(lp0
(lp1
(lp2
a(lp3
I0
aa(lp4
I3
aa(lp5
I0
aaa(lp6
(lp7
a(lp8
I0
aa(lp9
I3
aa(lp10
I0
aaa(lp11
(lp12
a(lp13
I0
aa(lp14
I3
aa(lp15
I0
aaa(lp16
(lp17
a(lp18
I3
aa(lp19
I0
aa(lp20
I0
aaa(lp21
(lp22
a(lp23
I3
aa(lp24
I0
aa(lp25
I0
aaa(lp26
(lp27
a(lp28
I2
aa(lp29
I0
aaa(lp30
(lp31
a(lp32
I0
aa(lp33
I0
aaa(lp34
(lp35
a(lp36
I0
aa(lp37
I3
aa(lp38
I0
aaa(lp39
(lp40
a(lp41
I0
aa(lp42
I3
aa(lp43
I0
aaa(lp44
(lp45
a(lp46
I0
aa(lp47
I3
aa(lp48
I0
aaa(lp49
(lp50
a(lp51
I0
aa(lp52
I3
aa(lp53
I0
aaa(lp54
(lp55
a(lp56
I0
aa(lp57
aa(lp58
(lp59
a(lp60
I2
aa(lp61
I0
aaa(lp62
(lp63
a(lp64
I0
aa(lp65
I3
aa(lp66
I0
aaa(lp67
(lp68
a(lp69
I3
aa(lp70
I0
aa(lp71
I0
aaa(lp72
(lp73
a(lp74
I2
aa(lp75
I0
aaa(lp76
(lp77
a(lp78
I2
aa(lp79
I0
aaa(lp80
(lp81
a(lp82
I0
aa(lp83
I3
aa(lp84
I0
aaa(lp85
(lp86
a(lp87
I0
aa(lp88
I3
aa(lp89
I0
aaa(lp90
(lp91
a(lp92
I0
aa(lp93
I3
aa(lp94
I0
aaa(lp95
(lp96
a(lp97
I2
aa(lp98
I0
aa(lp99
I0
aaa(lp100
(lp101
a(lp102
I0
aa(lp103
I3
aa(lp104
I0
aaa(lp105
(lp106
a(lp107
I0
aa(lp108
I3
aa(lp109
I0
aaa(lp110
(lp111
a(lp112
I2
aI3
aa(lp113
I0
aa(lp114
I0
aa(lp115
I0
aaa(lp116
(lp117
a(lp118
I0
aa(lp119
I3
aa(lp120
I0
aaa(lp121
(lp122
a(lp123
I0
aa(lp124
I3
aa(lp125
I0
aaa(lp126
(lp127
a(lp128
I2
aa(lp129
I0
aaa(lp130
(lp131
a(lp132
I2
aa(lp133
I0
aa(lp134
I0
aaa(lp135
(lp136
a(lp137
I0
aa(lp138
I3
aa(lp139
I0
aaa(lp140
(lp141
a(lp142
I2
aa(lp143
I0
aa(lp144
I0
aaa(lp145
(lp146
a(lp147
I3
aa(lp148
I0
aa(lp149
I0
aaa(lp150
(lp151
a(lp152
I3
aa(lp153
I0
aa(lp154
I0
aaa(lp155
(lp156
I1
aa(lp157
a(lp158
I3
aa(lp159
I1
aaa(lp160
(lp161
a(lp162
I2
aa(lp163
I0
aa(lp164
I0
aaa(lp165
(lp166
a(lp167
I0
aa(lp168
I3
aa(lp169
I0
aaa(lp170
(lp171
a(lp172
I2
aa(lp173
I0
aaa(lp174
(lp175
a(lp176
I2
aa(lp177
I0
aaa(lp178
(lp179
a(lp180
I2
aI3
aa(lp181
I0
aa(lp182
I0
aaa(lp183
(lp184
a(lp185
I3
aa(lp186
I0
aa(lp187
I0
aaa(lp188
(lp189
a(lp190
I0
aa(lp191
I3
aa(lp192
I0
aaa(lp193
(lp194
a(lp195
I0
aa(lp196
I3
aa(lp197
I0
aaa(lp198
(lp199
a(lp200
I0
aa(lp201
I3
aa(lp202
I0
aaa(lp203
(lp204
a(lp205
I3
aa(lp206
I0
aa(lp207
I0
aaa(lp208
(lp209
a(lp210
I2
aa(lp211
I0
aaa(lp212
(lp213
a(lp214
I0
aa(lp215
I3
aa(lp216
I0
aaa(lp217
(lp218
a(lp219
I3
aa(lp220
I0
aa(lp221
I0
aaa(lp222
(lp223
a(lp224
I0
aa(lp225
I3
aa(lp226
I0
aaa(lp227
(lp228
a(lp229
I0
aa(lp230
I3
aa(lp231
I0
aaa(lp232
(lp233
a(lp234
I2
aa(lp235
I0
aaa(lp236
(lp237
a(lp238
I0
aa(lp239
I3
aa(lp240
I0
aaa(lp241
(lp242
a(lp243
I0
aa(lp244
I3
aa(lp245
I0
aaa(lp246
(lp247
a(lp248
I3
aa(lp249
I0
aa(lp250
I0
aaa(lp251
(lp252
a(lp253
I2
aa(lp254
I0
aa(lp255
I0
aaa(lp256
(lp257
a(lp258
I0
aa(lp259
I3
aa(lp260
I0
aaa(lp261
(lp262
a(lp263
I3
aa(lp264
I0
aa(lp265
I0
aaa(lp266
(lp267
a(lp268
I2
aa(lp269
I0
aaa(lp270
(lp271
a(lp272
I2
aa(lp273
I0
aaa(lp274
(lp275
a(lp276
I0
aa(lp277
I3
aa(lp278
I0
aaa(lp279
(lp280
a(lp281
I0
aa(lp282
I3
aa(lp283
I0
aaa(lp284
(lp285
a(lp286
I0
aa(lp287
I3
aa(lp288
I0
aaa(lp289
(lp290
a(lp291
I0
aa(lp292
I3
aa(lp293
I0
aaa(lp294
(lp295
a(lp296
I0
aa(lp297
I3
aa(lp298
I0
aaa(lp299
(lp300
a(lp301
I3
aa(lp302
I0
aa(lp303
I0
aaa(lp304
(lp305
a(lp306
I0
aa(lp307
I3
aa(lp308
I0
aaa(lp309
(lp310
a(lp311
I0
aa(lp312
I3
aa(lp313
I0
aaa(lp314
(lp315
a(lp316
I3
aa(lp317
I0
aa(lp318
I0
aaa(lp319
(lp320
a(lp321
I2
aI3
aa(lp322
I0
aa(lp323
I0
aaa(lp324
(lp325
a(lp326
I3
aa(lp327
I0
aa(lp328
I0
aaa(lp329
(lp330
a(lp331
I3
aa(lp332
I0
aa(lp333
I0
aaa(lp334
(lp335
I1
aa(lp336
aa(lp337
(lp338
a(lp339
I2
aa(lp340
I0
aaa(lp341
(lp342
a(lp343
I2
aa(lp344
I0
aaa(lp345
(lp346
a(lp347
I2
aa(lp348
I0
aaa(lp349
(lp350
a(lp351
I2
aa(lp352
a(lp353
aa(lp354
(lp355
a(lp356
I3
aa(lp357
I0
aa(lp358
I0
aaa(lp359
(lp360
a(lp361
I0
aa(lp362
I3
aa(lp363
I0
aaa(lp364
(lp365
a(lp366
I3
aa(lp367
I0
aa(lp368
I0
aaa(lp369
(lp370
a(lp371
I0
aa(lp372
I3
aI4
aa(lp373
I0
aa(lp374
I0
aaa(lp375
(lp376
a(lp377
I0
aa(lp378
I3
aa(lp379
I0
aaa(lp380
(lp381
a(lp382
I2
aa(lp383
I0
aa(lp384
I0
aaa(lp385
(lp386
a(lp387
I2
aa(lp388
I0
aaa(lp389
(lp390
a(lp391
I3
aa(lp392
I0
aa(lp393
I0
aaa(lp394
(lp395
a(lp396
I2
aa(lp397
I0
aaa(lp398
(lp399
a(lp400
I2
aa(lp401
I0
aaa(lp402
(lp403
a(lp404
I0
aa(lp405
I3
aa(lp406
I0
aaa(lp407
(lp408
a(lp409
I0
aa(lp410
I3
aa(lp411
I0
aaa(lp412
(lp413
I1
aa(lp414
a(lp415
I3
aa(lp416
I1
aaa(lp417
(lp418
a(lp419
I0
aa(lp420
I3
aa(lp421
I0
aaa(lp422
(lp423
a(lp424
I0
aa(lp425
I3
aa(lp426
I0
aaa(lp427
(lp428
a(lp429
I2
aa(lp430
I0
aa(lp431
I0
aaa(lp432
(lp433
a(lp434
I3
aa(lp435
I0
aa(lp436
I0
aaa(lp437
(lp438
a(lp439
I2
aa(lp440
I0
aaa(lp441
(lp442
a(lp443
I3
aa(lp444
I0
aa(lp445
I0
aaa(lp446
(lp447
a(lp448
I2
aa(lp449
I0
aaa(lp450
(lp451
a(lp452
I0
aa(lp453
I3
aa(lp454
I0
aaa(lp455
(lp456
a(lp457
I0
aa(lp458
I3
aa(lp459
I0
aaa(lp460
(lp461
a(lp462
I0
aa(lp463
I3
aa(lp464
I0
aaa(lp465
(lp466
a(lp467
I2
aa(lp468
I0
aaa(lp469
(lp470
a(lp471
I2
aa(lp472
I0
aaa(lp473
(lp474
a(lp475
I2
aa(lp476
I0
aaa.