(lp0
(lp1
S'x'
p2
aS'x'
p3
ag3
ag3
ag3
aVeducation.academic_post.institution
p4
aS'SC'
p5
ag3
ag3
ag3
aVen.professor
p6
ag3
ag3
ag3
aS'SP'
p7
aVen.marshall_hall
p8
aS'PO'
p9
ag3
ag3
ag3
aa(lp10
S'x'
p11
ag3
ag3
ag3
ag3
aVengineering.engine.energy_source
p12
aS'SC'
p13
ag3
ag3
ag3
aS'x'
p14
ag3
ag3
ag3
aS'SP'
p15
aVen.internal_combustion_engine
p16
aS'PO'
p17
ag3
ag3
ag3
aa(lp18
S'x'
p19
ag3
ag3
ag3
ag3
aVfinance.stock_exchange.companies_traded
p20
aS'SC'
p21
ag3
ag3
ag3
aVbusiness.stock_ticker_symbol.ticker_symbol
p22
ag3
ag3
ag3
aS'SP'
p23
aVen.new_york_stock_exchange_inc
p24
aS'PO'
p25
ag3
ag3
ag3
aa(lp26
S'x'
p27
ag3
ag3
ag3
ag3
aS'x'
p28
ag3
ag3
ag3
aS'SP'
p29
aVlocation.mailing_address.citytown
p30
aS'SC'
p31
ag3
ag3
ag3
aVen.apple_inc
p32
aS'PO'
p33
ag3
ag3
ag3
aa(lp34
S'x'
p35
ag3
ag3
ag3
ag3
aS'x'
p36
ag3
ag3
ag3
aS'PO'
p37
aVcomic_books.comic_book_issue.cover_price
p38
aS'SC'
p39
ag3
ag3
ag3
aVen.the_x_men_1
p40
aS'SP'
p41
ag3
ag3
ag3
aa(lp42
Vbook.periodical.frequency_or_issues_per_year
p43
ag3
ag3
ag3
aVbook.periodical_frequency.issues_per_year
p44
ag3
ag3
aS'SP'
p45
aVen.the_washington_post
p46
aS'PO'
p47
ag3
ag3
aa(lp48
S'x'
p49
ag3
ag3
ag3
aVcomic_books.comic_book_issue.issue_number
p50
aS'SC'
p51
ag3
ag3
aVen.a_dream_of_a_thousand_cats
p52
aS'PO'
p53
ag3
ag3
aa(lp54
S'x'
p55
ag3
ag3
ag3
ag3
aVevent.disaster.survivors
p56
aS'SC'
p57
ag3
ag3
ag3
aS'x'
p58
ag3
ag3
ag3
aS'x'
p59
aVen.sinking_of_the_titanic
p60
aS'PO'
p61
ag3
ag3
ag3
aa(lp62
S'x'
p63
ag3
ag3
ag3
ag3
aVolympics.olympic_participating_country.olympics_participated_in
p64
aS'SC'
p65
ag3
ag3
ag3
aS'x'
p66
ag3
ag3
ag3
aS'SP'
p67
aVen.egypt
p68
aS'PO'
p69
ag3
ag3
ag3
aa(lp70
S'x'
p71
ag3
ag3
ag3
ag3
aVcelebrities.rehab.celebrity
p72
aS'SC'
p73
ag3
ag3
ag3
aS'x'
p74
ag3
ag3
ag3
aS'PO'
p75
aVen.betty_ford_center
p76
aS'SP'
p77
ag3
ag3
ag3
aa(lp78
S'x'
p79
aS'x'
p80
ag80
ag80
ag80
aVgames.game.minimum_age_years
p81
aS'SC'
p82
ag80
ag80
ag80
aS'x'
p83
ag80
ag80
ag80
aS'SP'
p84
aVen.monopoly_boardgame
p85
aS'PO'
p86
ag80
ag80
ag80
aa(lp87
S'x'
p88
ag80
ag80
ag80
aVm.0b66f5g
p89
aS'SC'
p90
ag80
ag80
aVphysics.subatomic_particle_generation.particles
p91
ag80
ag80
ag80
aa(lp92
S'x'
p93
ag80
ag80
ag80
aVlaw.constitutional_amendment.ratification_completed_on
p94
ag80
ag80
aS'PO'
p95
aVen.first_amendment_to_the_united_states_constitution
p96
aS'SP'
p97
ag80
ag80
aa(lp98
S'x'
p99
ag80
ag80
ag80
ag80
aVsports.sports_league_participation.team
p100
aS'SC'
p101
ag80
ag80
ag80
aVsports.sports_league_participation.league
p102
ag80
ag80
ag80
aS'PO'
p103
aVen.uefa
p104
aS'SP'
p105
ag80
ag80
ag80
aa(lp106
S'x'
p107
ag80
ag80
ag80
ag80
aVamerican_football.football_roster_position.position
p108
ag80
ag80
ag80
aS'SC'
p109
aVen.linebacker
p110
aS'SC'
p111
ag80
ag80
ag80
aVen.chicago_bears
p112
aS'PO'
p113
ag80
ag80
ag80
aa(lp114
S'x'
p115
ag80
ag80
ag80
aVpeople.deceased_person.cause_of_death
p116
ag80
ag80
aS'SP'
p117
aVen.bertrand_russell
p118
aS'PO'
p119
ag80
ag80
aa(lp120
S'x'
p121
ag80
ag80
ag80
aVamusement_parks.ride.duration
p122
ag80
ag80
aS'SP'
p123
aVen.haunted_mansion
p124
aS'PO'
p125
ag80
ag80
aa(lp126
S'x'
p127
ag80
ag80
ag80
ag80
aVfood.tea.tea_type
p128
aS'SC'
p129
ag80
ag80
ag80
aS'x'
p130
ag80
ag80
ag80
aS'SP'
p131
aVen.gunpowder_tea
p132
aS'PO'
p133
ag80
ag80
ag80
aa(lp134
S'x'
p135
ag80
ag80
ag80
ag80
aVtransportation.road.highway_system
p136
aS'SC'
p137
ag80
ag80
ag80
aS'x'
p138
ag80
ag80
ag80
aS'SP'
p139
aVen.us_route_101
p140
aS'PO'
p141
ag80
ag80
ag80
aa(lp142
S'x'
p143
ag80
ag80
ag80
ag80
aVsoccer.football_league_participation.league
p144
aS'SC'
p145
ag80
ag80
ag80
aVsoccer.football_league_participation.team
p146
ag80
ag80
ag80
aS'SP'
p147
aVen.real_madrid
p148
aS'PO'
p149
ag80
ag80
ag80
aa.