(lp0
((lp1
S'N0_p_WRB_JJ'
p2
aVN0_w_h
p3
aVN0_p_w_WRB_JJ_h
p4
aS'N0_t_o'
p5
aS'N0_t_p_o_WRB_JJ'
p6
aVN0_t_w_o_h
p7
aS'N1_p_NN_NNS'
p8
aVN1_w_t
p9
aVN1_p_w_NN_NNS_t
p10
aS'N1_t_v'
p11
aS'N1_t_p_v_NN_NNS'
p12
aVN1_t_w_v_t
p13
aS'N0_p_WRB_JJ_N1_p_NN_NNS'
p14
aS'N0_p_WRB_JJ_N1_p_NN_NNS_N2_p_VBD_NN'
p15
aS'N0_w_oN1_p_NN_NNS_N2_p_VBD_NN'
p16
aI0
tp17
a((lp18
S'ST_p_WRB_JJ'
p19
aVST_w_h
p20
aVST_p_w_WRB_JJ_h
p21
aS'N0_p_NN_NNS'
p22
aVN0_w_t
p23
aVN0_p_w_NN_NNS_t
p24
aS'N0_t_v'
p25
aS'N0_t_p_v_NN_NNS'
p26
aVN0_t_w_v_t
p27
aVST_p_w_WRB_JJ_h_N0_p_w_NN_NNS_t
p28
aVST_p_w_WRB_JJ_h_N0_w_t
p29
aS'ST_t_o_N0_p_NN_NNS'
p30
aVST_w_h_N0_t_v
p31
aS'ST_p_WRB_JJ_N0_p_NN_NNS'
p32
aS'ST_t_o_N0_t_v'
p33
aS'N1_p_VBD_NN'
p34
aVN1_w_d
p35
aVN1_p_w_VBD_NN_d
p36
aS'N1_t_i'
p37
aS'N1_t_p_i_VBD_NN'
p38
aVN1_t_w_i_d
p39
aS'N0_p_NN_NNS_N1_p_VBD_NN'
p40
aS'N0_p_NN_NNS_N1_p_VBD_NN_N2_p_NNP_NN'
p41
aS'N0_w_vN1_p_VBD_NN_N2_p_NNP_NN'
p42
aI3
tp43
a((lp44
S'ST_p_WRB_JJ'
p45
aVST_w_h
p46
aVST_p_w_WRB_JJ_h
p47
aS'N0_p_NN_NNS'
p48
aVN0_w_t
p49
aVN0_p_w_NN_NNS_t
p50
aS'N0_t_v'
p51
aS'N0_t_p_v_NN_NNS'
p52
aVN0_t_w_v_t
p53
aVST_p_w_WRB_JJ_h_N0_p_w_NN_NNS_t
p54
aVST_p_w_WRB_JJ_h_N0_w_t
p55
aS'ST_t_o_N0_p_NN_NNS'
p56
aVST_w_h_N0_t_v
p57
aS'ST_p_WRB_JJ_N0_p_NN_NNS'
p58
aS'ST_t_o_N0_t_v'
p59
aVAR_h_t
p60
aS'N1_p_VBD_NN'
p61
aVN1_w_d
p62
aVN1_p_w_VBD_NN_d
p63
aS'N1_t_i'
p64
aS'N1_t_p_i_VBD_NN'
p65
aVN1_t_w_i_d
p66
aS'N0_p_NN_NNS_N1_p_VBD_NN'
p67
aS'N0_p_NN_NNS_N1_p_VBD_NN_N2_p_NNP_NN'
p68
aS'N0_w_vN1_p_VBD_NN_N2_p_NNP_NN'
p69
aI0
tp70
a((lp71
S'ST_p_NN_NNS'
p72
aVST_w_t
p73
aVST_p_w_NN_NNS_t
p74
aS'N0_p_VBD_NN'
p75
aVN0_w_d
p76
aVN0_p_w_VBD_NN_d
p77
aS'N0_t_i'
p78
aS'N0_t_p_i_VBD_NN'
p79
aVN0_t_w_i_d
p80
aVST_p_w_NN_NNS_t_N0_p_w_VBD_NN_d
p81
aVST_p_w_NN_NNS_t_N0_w_d
p82
aS'ST_t_v_N0_p_VBD_NN'
p83
aVST_w_t_N0_t_i
p84
aS'ST_p_NN_NNS_N0_p_VBD_NN'
p85
aS'ST_t_v_N0_t_i'
p86
aS'N1_p_NNP_NN'
p87
aVN1_w_D
p88
aVN1_p_w_NNP_NN_D
p89
aS'N1_t_a'
p90
aS'N1_t_p_a_NNP_NN'
p91
aVN1_t_w_a_D
p92
aS'N0_p_VBD_NN_N1_p_NNP_NN'
p93
aI1
tp94
a((lp95
S'ST_p_WRB_JJ'
p96
aVST_w_h
p97
aVST_p_w_WRB_JJ_h
p98
aS'N0_p_VBD_NN'
p99
aVN0_w_d
p100
aVN0_p_w_VBD_NN_d
p101
aS'N0_t_i'
p102
aS'N0_t_p_i_VBD_NN'
p103
aVN0_t_w_i_d
p104
aVST_p_w_WRB_JJ_h_N0_p_w_VBD_NN_d
p105
aVST_p_w_WRB_JJ_h_N0_w_d
p106
aS'ST_t_o_N0_p_VBD_NN'
p107
aVST_w_h_N0_t_i
p108
aS'ST_p_WRB_JJ_N0_p_VBD_NN'
p109
aS'ST_t_o_N0_t_i'
p110
aS'N1_p_NNP_NN'
p111
aVN1_w_D
p112
aVN1_p_w_NNP_NN_D
p113
aS'N1_t_a'
p114
aS'N1_t_p_a_NNP_NN'
p115
aVN1_t_w_a_D
p116
aS'N0_p_VBD_NN_N1_p_NNP_NN'
p117
aI0
tp118
a((lp119
S'ST_p_VBD_NN'
p120
aVST_w_d
p121
aVST_p_w_VBD_NN_d
p122
aS'N0_p_NNP_NN'
p123
aVN0_w_D
p124
aVN0_p_w_NNP_NN_D
p125
aS'N0_t_a'
p126
aS'N0_t_p_a_NNP_NN'
p127
aVN0_t_w_a_D
p128
aVST_p_w_VBD_NN_d_N0_p_w_NNP_NN_D
p129
aVST_p_w_VBD_NN_d_N0_w_D
p130
aS'ST_t_i_N0_p_NNP_NN'
p131
aVST_w_d_N0_t_a
p132
aS'ST_p_VBD_NN_N0_p_NNP_NN'
p133
aS'ST_t_i_N0_t_a'
p134
aI2
tp135
a((lp136
S'ST_p_VBD_NN'
p137
aVST_w_d
p138
aVST_p_w_VBD_NN_d
p139
aS'N0_p_NNP_NN'
p140
aVN0_w_D
p141
aVN0_p_w_NNP_NN_D
p142
aS'N0_t_a'
p143
aS'N0_t_p_a_NNP_NN'
p144
aVN0_t_w_a_D
p145
aVST_p_w_VBD_NN_d_N0_p_w_NNP_NN_D
p146
aVST_p_w_VBD_NN_d_N0_w_D
p147
aS'ST_t_i_N0_p_NNP_NN'
p148
aVST_w_d_N0_t_a
p149
aS'ST_p_VBD_NN_N0_p_NNP_NN'
p150
aS'ST_t_i_N0_t_a'
p151
aVAL_D_d
p152
aI1
tp153
a((lp154
S'ST_p_WRB_JJ'
p155
aVST_w_h
p156
aVST_p_w_WRB_JJ_h
p157
aS'N0_p_NNP_NN'
p158
aVN0_w_D
p159
aVN0_p_w_NNP_NN_D
p160
aS'N0_t_a'
p161
aS'N0_t_p_a_NNP_NN'
p162
aVN0_t_w_a_D
p163
aVST_p_w_WRB_JJ_h_N0_p_w_NNP_NN_D
p164
aVST_p_w_WRB_JJ_h_N0_w_D
p165
aS'ST_t_o_N0_p_NNP_NN'
p166
aVST_w_h_N0_t_a
p167
aS'ST_p_WRB_JJ_N0_p_NNP_NN'
p168
aS'ST_t_o_N0_t_a'
p169
aI3
tp170
a((lp171
S'ST_p_WRB_JJ'
p172
aVST_w_h
p173
aVST_p_w_WRB_JJ_h
p174
aS'N0_p_NNP_NN'
p175
aVN0_w_D
p176
aVN0_p_w_NNP_NN_D
p177
aS'N0_t_a'
p178
aS'N0_t_p_a_NNP_NN'
p179
aVN0_t_w_a_D
p180
aVST_p_w_WRB_JJ_h_N0_p_w_NNP_NN_D
p181
aVST_p_w_WRB_JJ_h_N0_w_D
p182
aS'ST_t_o_N0_p_NNP_NN'
p183
aVST_w_h_N0_t_a
p184
aS'ST_p_WRB_JJ_N0_p_NNP_NN'
p185
aS'ST_t_o_N0_t_a'
p186
aVAR_h_D
p187
aI1
tp188
a((lp189
S'N0_p_NNP_NN'
p190
aVN0_w_D
p191
aVN0_p_w_NNP_NN_D
p192
aS'N0_t_a'
p193
aS'N0_t_p_a_NNP_NN'
p194
aVN0_t_w_a_D
p195
aI0
tp196
a((lp197
S'N0_p_WRB_JJ'
p198
aVN0_w_h
p199
aVN0_p_w_WRB_JJ_h
p200
aS'N0_t_o'
p201
aS'N0_t_p_o_WRB_JJ'
p202
aVN0_t_w_o_h
p203
aS'N1_p_NNS'
p204
aVN1_w_c
p205
aVN1_p_w_NNS_c
p206
aS'N1_t_o'
p207
aS'N1_t_p_o_NNS'
p208
aVN1_t_w_o_c
p209
aS'N0_p_WRB_JJ_N1_p_NNS'
p210
aS'N0_p_WRB_JJ_N1_p_NNS_N2_p_VBP_IN'
p211
aS'N0_w_oN1_p_NNS_N2_p_VBP_IN'
p212
aI0
tp213
a((lp214
S'ST_p_WRB_JJ'
p215
aVST_w_h
p216
aVST_p_w_WRB_JJ_h
p217
aS'N0_p_NNS'
p218
aVN0_w_c
p219
aVN0_p_w_NNS_c
p220
aS'N0_t_o'
p221
aS'N0_t_p_o_NNS'
p222
aVN0_t_w_o_c
p223
aVST_p_w_WRB_JJ_h_N0_p_w_NNS_c
p224
aVST_p_w_WRB_JJ_h_N0_w_c
p225
aS'ST_t_o_N0_p_NNS'
p226
aVST_w_h_N0_t_o
p227
aS'ST_p_WRB_JJ_N0_p_NNS'
p228
aS'ST_t_o_N0_t_o'
p229
aS'N1_p_VBP_IN'
p230
aVN1_w_a
p231
aVN1_p_w_VBP_IN_a
p232
aS'N1_t_r'
p233
aS'N1_t_p_r_VBP_IN'
p234
aVN1_t_w_r_a
p235
aS'N0_p_NNS_N1_p_VBP_IN'
p236
aS'N0_p_NNS_N1_p_VBP_IN_N2_p_NNP_NNP'
p237
aS'N0_w_oN1_p_VBP_IN_N2_p_NNP_NNP'
p238
aI3
tp239
a((lp240
S'ST_p_WRB_JJ'
p241
aVST_w_h
p242
aVST_p_w_WRB_JJ_h
p243
aS'N0_p_NNS'
p244
aVN0_w_c
p245
aVN0_p_w_NNS_c
p246
aS'N0_t_o'
p247
aS'N0_t_p_o_NNS'
p248
aVN0_t_w_o_c
p249
aVST_p_w_WRB_JJ_h_N0_p_w_NNS_c
p250
aVST_p_w_WRB_JJ_h_N0_w_c
p251
aS'ST_t_o_N0_p_NNS'
p252
aVST_w_h_N0_t_o
p253
aS'ST_p_WRB_JJ_N0_p_NNS'
p254
aS'ST_t_o_N0_t_o'
p255
aVAR_h_c
p256
aS'N1_p_VBP_IN'
p257
aVN1_w_a
p258
aVN1_p_w_VBP_IN_a
p259
aS'N1_t_r'
p260
aS'N1_t_p_r_VBP_IN'
p261
aVN1_t_w_r_a
p262
aS'N0_p_NNS_N1_p_VBP_IN'
p263
aS'N0_p_NNS_N1_p_VBP_IN_N2_p_NNP_NNP'
p264
aS'N0_w_oN1_p_VBP_IN_N2_p_NNP_NNP'
p265
aI0
tp266
a((lp267
S'ST_p_NNS'
p268
aVST_w_c
p269
aVST_p_w_NNS_c
p270
aS'N0_p_VBP_IN'
p271
aVN0_w_a
p272
aVN0_p_w_VBP_IN_a
p273
aS'N0_t_r'
p274
aS'N0_t_p_r_VBP_IN'
p275
aVN0_t_w_r_a
p276
aVST_p_w_NNS_c_N0_p_w_VBP_IN_a
p277
aVST_p_w_NNS_c_N0_w_a
p278
aS'ST_t_o_N0_p_VBP_IN'
p279
aVST_w_c_N0_t_r
p280
aS'ST_p_NNS_N0_p_VBP_IN'
p281
aS'ST_t_o_N0_t_r'
p282
aS'N1_p_NNP_NNP'
p283
aVN1_w_S
p284
aVN1_p_w_NNP_NNP_S
p285
aS'N1_t_o'
p286
aS'N1_t_p_o_NNP_NNP'
p287
aVN1_t_w_o_S
p288
aS'N0_p_VBP_IN_N1_p_NNP_NNP'
p289
aI1
tp290
a((lp291
S'ST_p_WRB_JJ'
p292
aVST_w_h
p293
aVST_p_w_WRB_JJ_h
p294
aS'N0_p_VBP_IN'
p295
aVN0_w_a
p296
aVN0_p_w_VBP_IN_a
p297
aS'N0_t_r'
p298
aS'N0_t_p_r_VBP_IN'
p299
aVN0_t_w_r_a
p300
aVST_p_w_WRB_JJ_h_N0_p_w_VBP_IN_a
p301
aVST_p_w_WRB_JJ_h_N0_w_a
p302
aS'ST_t_o_N0_p_VBP_IN'
p303
aVST_w_h_N0_t_r
p304
aS'ST_p_WRB_JJ_N0_p_VBP_IN'
p305
aS'ST_t_o_N0_t_r'
p306
aS'N1_p_NNP_NNP'
p307
aVN1_w_S
p308
aVN1_p_w_NNP_NNP_S
p309
aS'N1_t_o'
p310
aS'N1_t_p_o_NNP_NNP'
p311
aVN1_t_w_o_S
p312
aS'N0_p_VBP_IN_N1_p_NNP_NNP'
p313
aI0
tp314
a((lp315
S'ST_p_VBP_IN'
p316
aVST_w_a
p317
aVST_p_w_VBP_IN_a
p318
aS'N0_p_NNP_NNP'
p319
aVN0_w_S
p320
aVN0_p_w_NNP_NNP_S
p321
aS'N0_t_o'
p322
aS'N0_t_p_o_NNP_NNP'
p323
aVN0_t_w_o_S
p324
aVST_p_w_VBP_IN_a_N0_p_w_NNP_NNP_S
p325
aVST_p_w_VBP_IN_a_N0_w_S
p326
aS'ST_t_r_N0_p_NNP_NNP'
p327
aVST_w_a_N0_t_o
p328
aS'ST_p_VBP_IN_N0_p_NNP_NNP'
p329
aS'ST_t_r_N0_t_o'
p330
aI2
tp331
a((lp332
S'ST_p_VBP_IN'
p333
aVST_w_a
p334
aVST_p_w_VBP_IN_a
p335
aS'N0_p_NNP_NNP'
p336
aVN0_w_S
p337
aVN0_p_w_NNP_NNP_S
p338
aS'N0_t_o'
p339
aS'N0_t_p_o_NNP_NNP'
p340
aVN0_t_w_o_S
p341
aVST_p_w_VBP_IN_a_N0_p_w_NNP_NNP_S
p342
aVST_p_w_VBP_IN_a_N0_w_S
p343
aS'ST_t_r_N0_p_NNP_NNP'
p344
aVST_w_a_N0_t_o
p345
aS'ST_p_VBP_IN_N0_p_NNP_NNP'
p346
aS'ST_t_r_N0_t_o'
p347
aVAL_S_a
p348
aI1
tp349
a((lp350
S'ST_p_WRB_JJ'
p351
aVST_w_h
p352
aVST_p_w_WRB_JJ_h
p353
aS'N0_p_NNP_NNP'
p354
aVN0_w_S
p355
aVN0_p_w_NNP_NNP_S
p356
aS'N0_t_o'
p357
aS'N0_t_p_o_NNP_NNP'
p358
aVN0_t_w_o_S
p359
aVST_p_w_WRB_JJ_h_N0_p_w_NNP_NNP_S
p360
aVST_p_w_WRB_JJ_h_N0_w_S
p361
aS'ST_t_o_N0_p_NNP_NNP'
p362
aVST_w_h_N0_t_o
p363
aS'ST_p_WRB_JJ_N0_p_NNP_NNP'
p364
aS'ST_t_o_N0_t_o'
p365
aI3
tp366
a((lp367
S'ST_p_WRB_JJ'
p368
aVST_w_h
p369
aVST_p_w_WRB_JJ_h
p370
aS'N0_p_NNP_NNP'
p371
aVN0_w_S
p372
aVN0_p_w_NNP_NNP_S
p373
aS'N0_t_o'
p374
aS'N0_t_p_o_NNP_NNP'
p375
aVN0_t_w_o_S
p376
aVST_p_w_WRB_JJ_h_N0_p_w_NNP_NNP_S
p377
aVST_p_w_WRB_JJ_h_N0_w_S
p378
aS'ST_t_o_N0_p_NNP_NNP'
p379
aVST_w_h_N0_t_o
p380
aS'ST_p_WRB_JJ_N0_p_NNP_NNP'
p381
aS'ST_t_o_N0_t_o'
p382
aVAR_h_S
p383
aI1
tp384
a((lp385
S'N0_p_NNP_NNP'
p386
aVN0_w_S
p387
aVN0_p_w_NNP_NNP_S
p388
aS'N0_t_o'
p389
aS'N0_t_p_o_NNP_NNP'
p390
aVN0_t_w_o_S
p391
aI0
tp392
a((lp393
S'N0_p_WP'
p394
aVN0_w_w
p395
aVN0_p_w_WP_w
p396
aS'N0_t_h'
p397
aS'N0_t_p_h_WP'
p398
aVN0_t_w_h_w
p399
aS'N1_p_NN_NNS'
p400
aVN1_w_p
p401
aVN1_p_w_NN_NNS_p
p402
aS'N1_t_r'
p403
aS'N1_t_p_r_NN_NNS'
p404
aVN1_t_w_r_p
p405
aS'N0_p_WP_N1_p_NN_NNS'
p406
aS'N0_p_WP_N1_p_NN_NNS_N2_p_VBZ_VB'
p407
aS'N0_w_hN1_p_NN_NNS_N2_p_VBZ_VB'
p408
aI0
tp409
a((lp410
S'ST_p_WP'
p411
aVST_w_w
p412
aVST_p_w_WP_w
p413
aS'N0_p_NN_NNS'
p414
aVN0_w_p
p415
aVN0_p_w_NN_NNS_p
p416
aS'N0_t_r'
p417
aS'N0_t_p_r_NN_NNS'
p418
aVN0_t_w_r_p
p419
aVST_p_w_WP_w_N0_p_w_NN_NNS_p
p420
aVST_p_w_WP_w_N0_w_p
p421
aS'ST_t_h_N0_p_NN_NNS'
p422
aVST_w_w_N0_t_r
p423
aS'ST_p_WP_N0_p_NN_NNS'
p424
aS'ST_t_h_N0_t_r'
p425
aS'N1_p_VBZ_VB'
p426
aVN1_w_d
p427
aVN1_p_w_VBZ_VB_d
p428
aS'N1_t_o'
p429
aS'N1_t_p_o_VBZ_VB'
p430
aVN1_t_w_o_d
p431
aS'N0_p_NN_NNS_N1_p_VBZ_VB'
p432
aS'N0_p_NN_NNS_N1_p_VBZ_VB_N2_p_VB'
p433
aS'N0_w_rN1_p_VBZ_VB_N2_p_VB'
p434
aI3
tp435
a((lp436
S'ST_p_WP'
p437
aVST_w_w
p438
aVST_p_w_WP_w
p439
aS'N0_p_NN_NNS'
p440
aVN0_w_p
p441
aVN0_p_w_NN_NNS_p
p442
aS'N0_t_r'
p443
aS'N0_t_p_r_NN_NNS'
p444
aVN0_t_w_r_p
p445
aVST_p_w_WP_w_N0_p_w_NN_NNS_p
p446
aVST_p_w_WP_w_N0_w_p
p447
aS'ST_t_h_N0_p_NN_NNS'
p448
aVST_w_w_N0_t_r
p449
aS'ST_p_WP_N0_p_NN_NNS'
p450
aS'ST_t_h_N0_t_r'
p451
aVAR_w_p
p452
aS'N1_p_VBZ_VB'
p453
aVN1_w_d
p454
aVN1_p_w_VBZ_VB_d
p455
aS'N1_t_o'
p456
aS'N1_t_p_o_VBZ_VB'
p457
aVN1_t_w_o_d
p458
aS'N0_p_NN_NNS_N1_p_VBZ_VB'
p459
aS'N0_p_NN_NNS_N1_p_VBZ_VB_N2_p_VB'
p460
aS'N0_w_rN1_p_VBZ_VB_N2_p_VB'
p461
aI0
tp462
a((lp463
S'ST_p_NN_NNS'
p464
aVST_w_p
p465
aVST_p_w_NN_NNS_p
p466
aS'N0_p_VBZ_VB'
p467
aVN0_w_d
p468
aVN0_p_w_VBZ_VB_d
p469
aS'N0_t_o'
p470
aS'N0_t_p_o_VBZ_VB'
p471
aVN0_t_w_o_d
p472
aVST_p_w_NN_NNS_p_N0_p_w_VBZ_VB_d
p473
aVST_p_w_NN_NNS_p_N0_w_d
p474
aS'ST_t_r_N0_p_VBZ_VB'
p475
aVST_w_p_N0_t_o
p476
aS'ST_p_NN_NNS_N0_p_VBZ_VB'
p477
aS'ST_t_r_N0_t_o'
p478
aS'N1_p_VB'
p479
aVN1_w_i
p480
aVN1_p_w_VB_i
p481
aS'N1_t_P'
p482
aS'N1_t_p_P_VB'
p483
aVN1_t_w_P_i
p484
aS'N0_p_VBZ_VB_N1_p_VB'
p485
aI1
tp486
a((lp487
S'ST_p_WP'
p488
aVST_w_w
p489
aVST_p_w_WP_w
p490
aS'N0_p_VBZ_VB'
p491
aVN0_w_d
p492
aVN0_p_w_VBZ_VB_d
p493
aS'N0_t_o'
p494
aS'N0_t_p_o_VBZ_VB'
p495
aVN0_t_w_o_d
p496
aVST_p_w_WP_w_N0_p_w_VBZ_VB_d
p497
aVST_p_w_WP_w_N0_w_d
p498
aS'ST_t_h_N0_p_VBZ_VB'
p499
aVST_w_w_N0_t_o
p500
aS'ST_p_WP_N0_p_VBZ_VB'
p501
aS'ST_t_h_N0_t_o'
p502
aS'N1_p_VB'
p503
aVN1_w_i
p504
aVN1_p_w_VB_i
p505
aS'N1_t_P'
p506
aS'N1_t_p_P_VB'
p507
aVN1_t_w_P_i
p508
aS'N0_p_VBZ_VB_N1_p_VB'
p509
aI0
tp510
a((lp511
S'ST_p_VBZ_VB'
p512
aVST_w_d
p513
aVST_p_w_VBZ_VB_d
p514
aS'N0_p_VB'
p515
aVN0_w_i
p516
aVN0_p_w_VB_i
p517
aS'N0_t_P'
p518
aS'N0_t_p_P_VB'
p519
aVN0_t_w_P_i
p520
aVST_p_w_VBZ_VB_d_N0_p_w_VB_i
p521
aVST_p_w_VBZ_VB_d_N0_w_i
p522
aS'ST_t_o_N0_p_VB'
p523
aVST_w_d_N0_t_P
p524
aS'ST_p_VBZ_VB_N0_p_VB'
p525
aS'ST_t_o_N0_t_P'
p526
aI2
tp527
a((lp528
S'ST_p_VBZ_VB'
p529
aVST_w_d
p530
aVST_p_w_VBZ_VB_d
p531
aS'N0_p_VB'
p532
aVN0_w_i
p533
aVN0_p_w_VB_i
p534
aS'N0_t_P'
p535
aS'N0_t_p_P_VB'
p536
aVN0_t_w_P_i
p537
aVST_p_w_VBZ_VB_d_N0_p_w_VB_i
p538
aVST_p_w_VBZ_VB_d_N0_w_i
p539
aS'ST_t_o_N0_p_VB'
p540
aVST_w_d_N0_t_P
p541
aS'ST_p_VBZ_VB_N0_p_VB'
p542
aS'ST_t_o_N0_t_P'
p543
aVAL_i_d
p544
aI1
tp545
a((lp546
S'ST_p_WP'
p547
aVST_w_w
p548
aVST_p_w_WP_w
p549
aS'N0_p_VB'
p550
aVN0_w_i
p551
aVN0_p_w_VB_i
p552
aS'N0_t_P'
p553
aS'N0_t_p_P_VB'
p554
aVN0_t_w_P_i
p555
aVST_p_w_WP_w_N0_p_w_VB_i
p556
aVST_p_w_WP_w_N0_w_i
p557
aS'ST_t_h_N0_p_VB'
p558
aVST_w_w_N0_t_P
p559
aS'ST_p_WP_N0_p_VB'
p560
aS'ST_t_h_N0_t_P'
p561
aI3
tp562
a((lp563
S'ST_p_WP'
p564
aVST_w_w
p565
aVST_p_w_WP_w
p566
aS'N0_p_VB'
p567
aVN0_w_i
p568
aVN0_p_w_VB_i
p569
aS'N0_t_P'
p570
aS'N0_t_p_P_VB'
p571
aVN0_t_w_P_i
p572
aVST_p_w_WP_w_N0_p_w_VB_i
p573
aVST_p_w_WP_w_N0_w_i
p574
aS'ST_t_h_N0_p_VB'
p575
aVST_w_w_N0_t_P
p576
aS'ST_p_WP_N0_p_VB'
p577
aS'ST_t_h_N0_t_P'
p578
aVAR_w_i
p579
aI1
tp580
a((lp581
S'N0_p_VB'
p582
aVN0_w_i
p583
aVN0_p_w_VB_i
p584
aS'N0_t_P'
p585
aS'N0_t_p_P_VB'
p586
aVN0_t_w_P_i
p587
aI0
tp588
a((lp589
S'N0_p_WP'
p590
aVN0_w_w
p591
aVN0_p_w_WP_w
p592
aS'N0_t_h'
p593
aS'N0_t_p_h_WP'
p594
aVN0_t_w_h_w
p595
aS'N1_p_VBZ'
p596
aVN1_w_i
p597
aVN1_p_w_VBZ_i
p598
aS'N1_t_s'
p599
aS'N1_t_p_s_VBZ'
p600
aVN1_t_w_s_i
p601
aS'N0_p_WP_N1_p_VBZ'
p602
aS'N0_p_WP_N1_p_VBZ_N2_p_JJ'
p603
aS'N0_w_hN1_p_VBZ_N2_p_JJ'
p604
aI0
tp605
a((lp606
S'ST_p_WP'
p607
aVST_w_w
p608
aVST_p_w_WP_w
p609
aS'N0_p_VBZ'
p610
aVN0_w_i
p611
aVN0_p_w_VBZ_i
p612
aS'N0_t_s'
p613
aS'N0_t_p_s_VBZ'
p614
aVN0_t_w_s_i
p615
aVST_p_w_WP_w_N0_p_w_VBZ_i
p616
aVST_p_w_WP_w_N0_w_i
p617
aS'ST_t_h_N0_p_VBZ'
p618
aVST_w_w_N0_t_s
p619
aS'ST_p_WP_N0_p_VBZ'
p620
aS'ST_t_h_N0_t_s'
p621
aS'N1_p_JJ'
p622
aVN1_w_Y
p623
aVN1_p_w_JJ_Y
p624
aS'N1_t_a'
p625
aS'N1_t_p_a_JJ'
p626
aVN1_t_w_a_Y
p627
aS'N0_p_VBZ_N1_p_JJ'
p628
aS'N0_p_VBZ_N1_p_JJ_N2_p_.'
p629
aS'N0_w_sN1_p_JJ_N2_p_.'
p630
aI3
tp631
a((lp632
S'ST_p_WP'
p633
aVST_w_w
p634
aVST_p_w_WP_w
p635
aS'N0_p_VBZ'
p636
aVN0_w_i
p637
aVN0_p_w_VBZ_i
p638
aS'N0_t_s'
p639
aS'N0_t_p_s_VBZ'
p640
aVN0_t_w_s_i
p641
aVST_p_w_WP_w_N0_p_w_VBZ_i
p642
aVST_p_w_WP_w_N0_w_i
p643
aS'ST_t_h_N0_p_VBZ'
p644
aVST_w_w_N0_t_s
p645
aS'ST_p_WP_N0_p_VBZ'
p646
aS'ST_t_h_N0_t_s'
p647
aVAR_w_i
p648
aS'N1_p_JJ'
p649
aVN1_w_Y
p650
aVN1_p_w_JJ_Y
p651
aS'N1_t_a'
p652
aS'N1_t_p_a_JJ'
p653
aVN1_t_w_a_Y
p654
aS'N0_p_VBZ_N1_p_JJ'
p655
aS'N0_p_VBZ_N1_p_JJ_N2_p_.'
p656
aS'N0_w_sN1_p_JJ_N2_p_.'
p657
aI0
tp658
a((lp659
S'ST_p_VBZ'
p660
aVST_w_i
p661
aVST_p_w_VBZ_i
p662
aS'N0_p_JJ'
p663
aVN0_w_Y
p664
aVN0_p_w_JJ_Y
p665
aS'N0_t_a'
p666
aS'N0_t_p_a_JJ'
p667
aVN0_t_w_a_Y
p668
aVST_p_w_VBZ_i_N0_p_w_JJ_Y
p669
aVST_p_w_VBZ_i_N0_w_Y
p670
aS'ST_t_s_N0_p_JJ'
p671
aVST_w_i_N0_t_a
p672
aS'ST_p_VBZ_N0_p_JJ'
p673
aS'ST_t_s_N0_t_a'
p674
aS'N1_p_.'
p675
aVN1_w_s
p676
aVN1_p_w_._s
p677
aS'N1_t_l'
p678
aS'N1_t_p_l_.'
p679
aVN1_t_w_l_s
p680
aS'N0_p_JJ_N1_p_.'
p681
aI1
tp682
a((lp683
S'ST_p_WP'
p684
aVST_w_w
p685
aVST_p_w_WP_w
p686
aS'N0_p_JJ'
p687
aVN0_w_Y
p688
aVN0_p_w_JJ_Y
p689
aS'N0_t_a'
p690
aS'N0_t_p_a_JJ'
p691
aVN0_t_w_a_Y
p692
aVST_p_w_WP_w_N0_p_w_JJ_Y
p693
aVST_p_w_WP_w_N0_w_Y
p694
aS'ST_t_h_N0_p_JJ'
p695
aVST_w_w_N0_t_a
p696
aS'ST_p_WP_N0_p_JJ'
p697
aS'ST_t_h_N0_t_a'
p698
aS'N1_p_.'
p699
aVN1_w_s
p700
aVN1_p_w_._s
p701
aS'N1_t_l'
p702
aS'N1_t_p_l_.'
p703
aVN1_t_w_l_s
p704
aS'N0_p_JJ_N1_p_.'
p705
aI0
tp706
a((lp707
S'ST_p_JJ'
p708
aVST_w_Y
p709
aVST_p_w_JJ_Y
p710
aS'N0_p_.'
p711
aVN0_w_s
p712
aVN0_p_w_._s
p713
aS'N0_t_l'
p714
aS'N0_t_p_l_.'
p715
aVN0_t_w_l_s
p716
aVST_p_w_JJ_Y_N0_p_w_._s
p717
aVST_p_w_JJ_Y_N0_w_s
p718
aS'ST_t_a_N0_p_.'
p719
aVST_w_Y_N0_t_l
p720
aS'ST_p_JJ_N0_p_.'
p721
aS'ST_t_a_N0_t_l'
p722
aI2
tp723
a((lp724
S'ST_p_JJ'
p725
aVST_w_Y
p726
aVST_p_w_JJ_Y
p727
aS'N0_p_.'
p728
aVN0_w_s
p729
aVN0_p_w_._s
p730
aS'N0_t_l'
p731
aS'N0_t_p_l_.'
p732
aVN0_t_w_l_s
p733
aVST_p_w_JJ_Y_N0_p_w_._s
p734
aVST_p_w_JJ_Y_N0_w_s
p735
aS'ST_t_a_N0_p_.'
p736
aVST_w_Y_N0_t_l
p737
aS'ST_p_JJ_N0_p_.'
p738
aS'ST_t_a_N0_t_l'
p739
aVAL_s_Y
p740
aI1
tp741
a((lp742
S'ST_p_WP'
p743
aVST_w_w
p744
aVST_p_w_WP_w
p745
aS'N0_p_.'
p746
aVN0_w_s
p747
aVN0_p_w_._s
p748
aS'N0_t_l'
p749
aS'N0_t_p_l_.'
p750
aVN0_t_w_l_s
p751
aVST_p_w_WP_w_N0_p_w_._s
p752
aVST_p_w_WP_w_N0_w_s
p753
aS'ST_t_h_N0_p_.'
p754
aVST_w_w_N0_t_l
p755
aS'ST_p_WP_N0_p_.'
p756
aS'ST_t_h_N0_t_l'
p757
aI3
tp758
a((lp759
S'ST_p_WP'
p760
aVST_w_w
p761
aVST_p_w_WP_w
p762
aS'N0_p_.'
p763
aVN0_w_s
p764
aVN0_p_w_._s
p765
aS'N0_t_l'
p766
aS'N0_t_p_l_.'
p767
aVN0_t_w_l_s
p768
aVST_p_w_WP_w_N0_p_w_._s
p769
aVST_p_w_WP_w_N0_w_s
p770
aS'ST_t_h_N0_p_.'
p771
aVST_w_w_N0_t_l
p772
aS'ST_p_WP_N0_p_.'
p773
aS'ST_t_h_N0_t_l'
p774
aVAR_w_s
p775
aI1
tp776
a((lp777
S'N0_p_.'
p778
aVN0_w_s
p779
aVN0_p_w_._s
p780
aS'N0_t_l'
p781
aS'N0_t_p_l_.'
p782
aVN0_t_w_l_s
p783
aI0
tp784
a((lp785
S'N0_p_WP'
p786
aVN0_w_w
p787
aVN0_p_w_WP_w
p788
aS'N0_t_h'
p789
aS'N0_t_p_h_WP'
p790
aVN0_t_w_h_w
p791
aS'N1_p_VBZ'
p792
aVN1_w_i
p793
aVN1_p_w_VBZ_i
p794
aS'N1_t_s'
p795
aS'N1_t_p_s_VBZ'
p796
aVN1_t_w_s_i
p797
aS'N0_p_WP_N1_p_VBZ'
p798
aS'N0_p_WP_N1_p_VBZ_N2_p_NN_IN'
p799
aS'N0_w_hN1_p_VBZ_N2_p_NN_IN'
p800
aI0
tp801
a((lp802
S'ST_p_WP'
p803
aVST_w_w
p804
aVST_p_w_WP_w
p805
aS'N0_p_VBZ'
p806
aVN0_w_i
p807
aVN0_p_w_VBZ_i
p808
aS'N0_t_s'
p809
aS'N0_t_p_s_VBZ'
p810
aVN0_t_w_s_i
p811
aVST_p_w_WP_w_N0_p_w_VBZ_i
p812
aVST_p_w_WP_w_N0_w_i
p813
aS'ST_t_h_N0_p_VBZ'
p814
aVST_w_w_N0_t_s
p815
aS'ST_p_WP_N0_p_VBZ'
p816
aS'ST_t_h_N0_t_s'
p817
aS'N1_p_NN_IN'
p818
aVN1_w_p
p819
aVN1_p_w_NN_IN_p
p820
aS'N1_t_o'
p821
aS'N1_t_p_o_NN_IN'
p822
aVN1_t_w_o_p
p823
aS'N0_p_VBZ_N1_p_NN_IN'
p824
aS'N0_p_VBZ_N1_p_NN_IN_N2_p_NNP'
p825
aS'N0_w_sN1_p_NN_IN_N2_p_NNP'
p826
aI3
tp827
a((lp828
S'ST_p_WP'
p829
aVST_w_w
p830
aVST_p_w_WP_w
p831
aS'N0_p_VBZ'
p832
aVN0_w_i
p833
aVN0_p_w_VBZ_i
p834
aS'N0_t_s'
p835
aS'N0_t_p_s_VBZ'
p836
aVN0_t_w_s_i
p837
aVST_p_w_WP_w_N0_p_w_VBZ_i
p838
aVST_p_w_WP_w_N0_w_i
p839
aS'ST_t_h_N0_p_VBZ'
p840
aVST_w_w_N0_t_s
p841
aS'ST_p_WP_N0_p_VBZ'
p842
aS'ST_t_h_N0_t_s'
p843
aVAR_w_i
p844
aS'N1_p_NN_IN'
p845
aVN1_w_p
p846
aVN1_p_w_NN_IN_p
p847
aS'N1_t_o'
p848
aS'N1_t_p_o_NN_IN'
p849
aVN1_t_w_o_p
p850
aS'N0_p_VBZ_N1_p_NN_IN'
p851
aS'N0_p_VBZ_N1_p_NN_IN_N2_p_NNP'
p852
aS'N0_w_sN1_p_NN_IN_N2_p_NNP'
p853
aI0
tp854
a((lp855
S'ST_p_VBZ'
p856
aVST_w_i
p857
aVST_p_w_VBZ_i
p858
aS'N0_p_NN_IN'
p859
aVN0_w_p
p860
aVN0_p_w_NN_IN_p
p861
aS'N0_t_o'
p862
aS'N0_t_p_o_NN_IN'
p863
aVN0_t_w_o_p
p864
aVST_p_w_VBZ_i_N0_p_w_NN_IN_p
p865
aVST_p_w_VBZ_i_N0_w_p
p866
aS'ST_t_s_N0_p_NN_IN'
p867
aVST_w_i_N0_t_o
p868
aS'ST_p_VBZ_N0_p_NN_IN'
p869
aS'ST_t_s_N0_t_o'
p870
aS'N1_p_NNP'
p871
aVN1_w_B
p872
aVN1_p_w_NNP_B
p873
aS'N1_t_e'
p874
aS'N1_t_p_e_NNP'
p875
aVN1_t_w_e_B
p876
aS'N0_p_NN_IN_N1_p_NNP'
p877
aI1
tp878
a((lp879
S'ST_p_WP'
p880
aVST_w_w
p881
aVST_p_w_WP_w
p882
aS'N0_p_NN_IN'
p883
aVN0_w_p
p884
aVN0_p_w_NN_IN_p
p885
aS'N0_t_o'
p886
aS'N0_t_p_o_NN_IN'
p887
aVN0_t_w_o_p
p888
aVST_p_w_WP_w_N0_p_w_NN_IN_p
p889
aVST_p_w_WP_w_N0_w_p
p890
aS'ST_t_h_N0_p_NN_IN'
p891
aVST_w_w_N0_t_o
p892
aS'ST_p_WP_N0_p_NN_IN'
p893
aS'ST_t_h_N0_t_o'
p894
aS'N1_p_NNP'
p895
aVN1_w_B
p896
aVN1_p_w_NNP_B
p897
aS'N1_t_e'
p898
aS'N1_t_p_e_NNP'
p899
aVN1_t_w_e_B
p900
aS'N0_p_NN_IN_N1_p_NNP'
p901
aI0
tp902
a((lp903
S'ST_p_NN_IN'
p904
aVST_w_p
p905
aVST_p_w_NN_IN_p
p906
aS'N0_p_NNP'
p907
aVN0_w_B
p908
aVN0_p_w_NNP_B
p909
aS'N0_t_e'
p910
aS'N0_t_p_e_NNP'
p911
aVN0_t_w_e_B
p912
aVST_p_w_NN_IN_p_N0_p_w_NNP_B
p913
aVST_p_w_NN_IN_p_N0_w_B
p914
aS'ST_t_o_N0_p_NNP'
p915
aVST_w_p_N0_t_e
p916
aS'ST_p_NN_IN_N0_p_NNP'
p917
aS'ST_t_o_N0_t_e'
p918
aI2
tp919
a((lp920
S'ST_p_NN_IN'
p921
aVST_w_p
p922
aVST_p_w_NN_IN_p
p923
aS'N0_p_NNP'
p924
aVN0_w_B
p925
aVN0_p_w_NNP_B
p926
aS'N0_t_e'
p927
aS'N0_t_p_e_NNP'
p928
aVN0_t_w_e_B
p929
aVST_p_w_NN_IN_p_N0_p_w_NNP_B
p930
aVST_p_w_NN_IN_p_N0_w_B
p931
aS'ST_t_o_N0_p_NNP'
p932
aVST_w_p_N0_t_e
p933
aS'ST_p_NN_IN_N0_p_NNP'
p934
aS'ST_t_o_N0_t_e'
p935
aVAL_B_p
p936
aI1
tp937
a((lp938
S'ST_p_WP'
p939
aVST_w_w
p940
aVST_p_w_WP_w
p941
aS'N0_p_NNP'
p942
aVN0_w_B
p943
aVN0_p_w_NNP_B
p944
aS'N0_t_e'
p945
aS'N0_t_p_e_NNP'
p946
aVN0_t_w_e_B
p947
aVST_p_w_WP_w_N0_p_w_NNP_B
p948
aVST_p_w_WP_w_N0_w_B
p949
aS'ST_t_h_N0_p_NNP'
p950
aVST_w_w_N0_t_e
p951
aS'ST_p_WP_N0_p_NNP'
p952
aS'ST_t_h_N0_t_e'
p953
aI3
tp954
a((lp955
S'ST_p_WP'
p956
aVST_w_w
p957
aVST_p_w_WP_w
p958
aS'N0_p_NNP'
p959
aVN0_w_B
p960
aVN0_p_w_NNP_B
p961
aS'N0_t_e'
p962
aS'N0_t_p_e_NNP'
p963
aVN0_t_w_e_B
p964
aVST_p_w_WP_w_N0_p_w_NNP_B
p965
aVST_p_w_WP_w_N0_w_B
p966
aS'ST_t_h_N0_p_NNP'
p967
aVST_w_w_N0_t_e
p968
aS'ST_p_WP_N0_p_NNP'
p969
aS'ST_t_h_N0_t_e'
p970
aVAR_w_B
p971
aI1
tp972
a((lp973
S'N0_p_NNP'
p974
aVN0_w_B
p975
aVN0_p_w_NNP_B
p976
aS'N0_t_e'
p977
aS'N0_t_p_e_NNP'
p978
aVN0_t_w_e_B
p979
aI0
tp980
a((lp981
S'N0_p_WP'
p982
aVN0_w_w
p983
aVN0_p_w_WP_w
p984
aS'N0_t_h'
p985
aS'N0_t_p_h_WP'
p986
aVN0_t_w_h_w
p987
aS'N1_p_VBZ'
p988
aVN1_w_i
p989
aVN1_p_w_VBZ_i
p990
aS'N1_t_s'
p991
aS'N1_t_p_s_VBZ'
p992
aVN1_t_w_s_i
p993
aS'N0_p_WP_N1_p_VBZ'
p994
aS'N0_p_WP_N1_p_VBZ_N2_p_NN_IN'
p995
aS'N0_w_hN1_p_VBZ_N2_p_NN_IN'
p996
aI0
tp997
a((lp998
S'ST_p_WP'
p999
aVST_w_w
p1000
aVST_p_w_WP_w
p1001
aS'N0_p_VBZ'
p1002
aVN0_w_i
p1003
aVN0_p_w_VBZ_i
p1004
aS'N0_t_s'
p1005
aS'N0_t_p_s_VBZ'
p1006
aVN0_t_w_s_i
p1007
aVST_p_w_WP_w_N0_p_w_VBZ_i
p1008
aVST_p_w_WP_w_N0_w_i
p1009
aS'ST_t_h_N0_p_VBZ'
p1010
aVST_w_w_N0_t_s
p1011
aS'ST_p_WP_N0_p_VBZ'
p1012
aS'ST_t_h_N0_t_s'
p1013
aS'N1_p_NN_IN'
p1014
aVN1_w_f
p1015
aVN1_p_w_NN_IN_f
p1016
aS'N1_t_o'
p1017
aS'N1_t_p_o_NN_IN'
p1018
aVN1_t_w_o_f
p1019
aS'N0_p_VBZ_N1_p_NN_IN'
p1020
aS'N0_p_VBZ_N1_p_NN_IN_N2_p_NN'
p1021
aS'N0_w_sN1_p_NN_IN_N2_p_NN'
p1022
aI3
tp1023
a((lp1024
S'ST_p_WP'
p1025
aVST_w_w
p1026
aVST_p_w_WP_w
p1027
aS'N0_p_VBZ'
p1028
aVN0_w_i
p1029
aVN0_p_w_VBZ_i
p1030
aS'N0_t_s'
p1031
aS'N0_t_p_s_VBZ'
p1032
aVN0_t_w_s_i
p1033
aVST_p_w_WP_w_N0_p_w_VBZ_i
p1034
aVST_p_w_WP_w_N0_w_i
p1035
aS'ST_t_h_N0_p_VBZ'
p1036
aVST_w_w_N0_t_s
p1037
aS'ST_p_WP_N0_p_VBZ'
p1038
aS'ST_t_h_N0_t_s'
p1039
aVAR_w_i
p1040
aS'N1_p_NN_IN'
p1041
aVN1_w_f
p1042
aVN1_p_w_NN_IN_f
p1043
aS'N1_t_o'
p1044
aS'N1_t_p_o_NN_IN'
p1045
aVN1_t_w_o_f
p1046
aS'N0_p_VBZ_N1_p_NN_IN'
p1047
aS'N0_p_VBZ_N1_p_NN_IN_N2_p_NN'
p1048
aS'N0_w_sN1_p_NN_IN_N2_p_NN'
p1049
aI0
tp1050
a((lp1051
S'ST_p_VBZ'
p1052
aVST_w_i
p1053
aVST_p_w_VBZ_i
p1054
aS'N0_p_NN_IN'
p1055
aVN0_w_f
p1056
aVN0_p_w_NN_IN_f
p1057
aS'N0_t_o'
p1058
aS'N0_t_p_o_NN_IN'
p1059
aVN0_t_w_o_f
p1060
aVST_p_w_VBZ_i_N0_p_w_NN_IN_f
p1061
aVST_p_w_VBZ_i_N0_w_f
p1062
aS'ST_t_s_N0_p_NN_IN'
p1063
aVST_w_i_N0_t_o
p1064
aS'ST_p_VBZ_N0_p_NN_IN'
p1065
aS'ST_t_s_N0_t_o'
p1066
aS'N1_p_NN'
p1067
aVN1_w_s
p1068
aVN1_p_w_NN_s
p1069
aS'N1_t_a'
p1070
aS'N1_t_p_a_NN'
p1071
aVN1_t_w_a_s
p1072
aS'N0_p_NN_IN_N1_p_NN'
p1073
aI1
tp1074
a((lp1075
S'ST_p_WP'
p1076
aVST_w_w
p1077
aVST_p_w_WP_w
p1078
aS'N0_p_NN_IN'
p1079
aVN0_w_f
p1080
aVN0_p_w_NN_IN_f
p1081
aS'N0_t_o'
p1082
aS'N0_t_p_o_NN_IN'
p1083
aVN0_t_w_o_f
p1084
aVST_p_w_WP_w_N0_p_w_NN_IN_f
p1085
aVST_p_w_WP_w_N0_w_f
p1086
aS'ST_t_h_N0_p_NN_IN'
p1087
aVST_w_w_N0_t_o
p1088
aS'ST_p_WP_N0_p_NN_IN'
p1089
aS'ST_t_h_N0_t_o'
p1090
aS'N1_p_NN'
p1091
aVN1_w_s
p1092
aVN1_p_w_NN_s
p1093
aS'N1_t_a'
p1094
aS'N1_t_p_a_NN'
p1095
aVN1_t_w_a_s
p1096
aS'N0_p_NN_IN_N1_p_NN'
p1097
aI0
tp1098
a((lp1099
S'ST_p_NN_IN'
p1100
aVST_w_f
p1101
aVST_p_w_NN_IN_f
p1102
aS'N0_p_NN'
p1103
aVN0_w_s
p1104
aVN0_p_w_NN_s
p1105
aS'N0_t_a'
p1106
aS'N0_t_p_a_NN'
p1107
aVN0_t_w_a_s
p1108
aVST_p_w_NN_IN_f_N0_p_w_NN_s
p1109
aVST_p_w_NN_IN_f_N0_w_s
p1110
aS'ST_t_o_N0_p_NN'
p1111
aVST_w_f_N0_t_a
p1112
aS'ST_p_NN_IN_N0_p_NN'
p1113
aS'ST_t_o_N0_t_a'
p1114
aI2
tp1115
a((lp1116
S'ST_p_NN_IN'
p1117
aVST_w_f
p1118
aVST_p_w_NN_IN_f
p1119
aS'N0_p_NN'
p1120
aVN0_w_s
p1121
aVN0_p_w_NN_s
p1122
aS'N0_t_a'
p1123
aS'N0_t_p_a_NN'
p1124
aVN0_t_w_a_s
p1125
aVST_p_w_NN_IN_f_N0_p_w_NN_s
p1126
aVST_p_w_NN_IN_f_N0_w_s
p1127
aS'ST_t_o_N0_p_NN'
p1128
aVST_w_f_N0_t_a
p1129
aS'ST_p_NN_IN_N0_p_NN'
p1130
aS'ST_t_o_N0_t_a'
p1131
aVAL_s_f
p1132
aI1
tp1133
a((lp1134
S'ST_p_WP'
p1135
aVST_w_w
p1136
aVST_p_w_WP_w
p1137
aS'N0_p_NN'
p1138
aVN0_w_s
p1139
aVN0_p_w_NN_s
p1140
aS'N0_t_a'
p1141
aS'N0_t_p_a_NN'
p1142
aVN0_t_w_a_s
p1143
aVST_p_w_WP_w_N0_p_w_NN_s
p1144
aVST_p_w_WP_w_N0_w_s
p1145
aS'ST_t_h_N0_p_NN'
p1146
aVST_w_w_N0_t_a
p1147
aS'ST_p_WP_N0_p_NN'
p1148
aS'ST_t_h_N0_t_a'
p1149
aI3
tp1150
a((lp1151
S'ST_p_WP'
p1152
aVST_w_w
p1153
aVST_p_w_WP_w
p1154
aS'N0_p_NN'
p1155
aVN0_w_s
p1156
aVN0_p_w_NN_s
p1157
aS'N0_t_a'
p1158
aS'N0_t_p_a_NN'
p1159
aVN0_t_w_a_s
p1160
aVST_p_w_WP_w_N0_p_w_NN_s
p1161
aVST_p_w_WP_w_N0_w_s
p1162
aS'ST_t_h_N0_p_NN'
p1163
aVST_w_w_N0_t_a
p1164
aS'ST_p_WP_N0_p_NN'
p1165
aS'ST_t_h_N0_t_a'
p1166
aVAR_w_s
p1167
aI1
tp1168
a((lp1169
S'N0_p_NN'
p1170
aVN0_w_s
p1171
aVN0_p_w_NN_s
p1172
aS'N0_t_a'
p1173
aS'N0_t_p_a_NN'
p1174
aVN0_t_w_a_s
p1175
aI0
tp1176
a((lp1177
S'N0_p_WP'
p1178
aVN0_w_w
p1179
aVN0_p_w_WP_w
p1180
aS'N0_t_h'
p1181
aS'N0_t_p_h_WP'
p1182
aVN0_t_w_h_w
p1183
aS'N1_p_NN_NN'
p1184
aVN1_w_l
p1185
aVN1_p_w_NN_NN_l
p1186
aS'N1_t_i'
p1187
aS'N1_t_p_i_NN_NN'
p1188
aVN1_t_w_i_l
p1189
aS'N0_p_WP_N1_p_NN_NN'
p1190
aS'N0_p_WP_N1_p_NN_NN_N2_p_VBZ_IN'
p1191
aS'N0_w_hN1_p_NN_NN_N2_p_VBZ_IN'
p1192
aI0
tp1193
a((lp1194
S'ST_p_WP'
p1195
aVST_w_w
p1196
aVST_p_w_WP_w
p1197
aS'N0_p_NN_NN'
p1198
aVN0_w_l
p1199
aVN0_p_w_NN_NN_l
p1200
aS'N0_t_i'
p1201
aS'N0_t_p_i_NN_NN'
p1202
aVN0_t_w_i_l
p1203
aVST_p_w_WP_w_N0_p_w_NN_NN_l
p1204
aVST_p_w_WP_w_N0_w_l
p1205
aS'ST_t_h_N0_p_NN_NN'
p1206
aVST_w_w_N0_t_i
p1207
aS'ST_p_WP_N0_p_NN_NN'
p1208
aS'ST_t_h_N0_t_i'
p1209
aS'N1_p_VBZ_IN'
p1210
aVN1_w_i
p1211
aVN1_p_w_VBZ_IN_i
p1212
aS'N1_t_s'
p1213
aS'N1_t_p_s_VBZ_IN'
p1214
aVN1_t_w_s_i
p1215
aS'N0_p_NN_NN_N1_p_VBZ_IN'
p1216
aS'N0_p_NN_NN_N1_p_VBZ_IN_N2_p_NN_NN_NN'
p1217
aS'N0_w_iN1_p_VBZ_IN_N2_p_NN_NN_NN'
p1218
aI3
tp1219
a((lp1220
S'ST_p_WP'
p1221
aVST_w_w
p1222
aVST_p_w_WP_w
p1223
aS'N0_p_NN_NN'
p1224
aVN0_w_l
p1225
aVN0_p_w_NN_NN_l
p1226
aS'N0_t_i'
p1227
aS'N0_t_p_i_NN_NN'
p1228
aVN0_t_w_i_l
p1229
aVST_p_w_WP_w_N0_p_w_NN_NN_l
p1230
aVST_p_w_WP_w_N0_w_l
p1231
aS'ST_t_h_N0_p_NN_NN'
p1232
aVST_w_w_N0_t_i
p1233
aS'ST_p_WP_N0_p_NN_NN'
p1234
aS'ST_t_h_N0_t_i'
p1235
aVAR_w_l
p1236
aS'N1_p_VBZ_IN'
p1237
aVN1_w_i
p1238
aVN1_p_w_VBZ_IN_i
p1239
aS'N1_t_s'
p1240
aS'N1_t_p_s_VBZ_IN'
p1241
aVN1_t_w_s_i
p1242
aS'N0_p_NN_NN_N1_p_VBZ_IN'
p1243
aS'N0_p_NN_NN_N1_p_VBZ_IN_N2_p_NN_NN_NN'
p1244
aS'N0_w_iN1_p_VBZ_IN_N2_p_NN_NN_NN'
p1245
aI0
tp1246
a((lp1247
S'ST_p_NN_NN'
p1248
aVST_w_l
p1249
aVST_p_w_NN_NN_l
p1250
aS'N0_p_VBZ_IN'
p1251
aVN0_w_i
p1252
aVN0_p_w_VBZ_IN_i
p1253
aS'N0_t_s'
p1254
aS'N0_t_p_s_VBZ_IN'
p1255
aVN0_t_w_s_i
p1256
aVST_p_w_NN_NN_l_N0_p_w_VBZ_IN_i
p1257
aVST_p_w_NN_NN_l_N0_w_i
p1258
aS'ST_t_i_N0_p_VBZ_IN'
p1259
aVST_w_l_N0_t_s
p1260
aS'ST_p_NN_NN_N0_p_VBZ_IN'
p1261
aS'ST_t_i_N0_t_s'
p1262
aS'N1_p_NN_NN_NN'
p1263
aVN1_w_s
p1264
aVN1_p_w_NN_NN_NN_s
p1265
aS'N1_t_u'
p1266
aS'N1_t_p_u_NN_NN_NN'
p1267
aVN1_t_w_u_s
p1268
aS'N0_p_VBZ_IN_N1_p_NN_NN_NN'
p1269
aI1
tp1270
a((lp1271
S'ST_p_WP'
p1272
aVST_w_w
p1273
aVST_p_w_WP_w
p1274
aS'N0_p_VBZ_IN'
p1275
aVN0_w_i
p1276
aVN0_p_w_VBZ_IN_i
p1277
aS'N0_t_s'
p1278
aS'N0_t_p_s_VBZ_IN'
p1279
aVN0_t_w_s_i
p1280
aVST_p_w_WP_w_N0_p_w_VBZ_IN_i
p1281
aVST_p_w_WP_w_N0_w_i
p1282
aS'ST_t_h_N0_p_VBZ_IN'
p1283
aVST_w_w_N0_t_s
p1284
aS'ST_p_WP_N0_p_VBZ_IN'
p1285
aS'ST_t_h_N0_t_s'
p1286
aS'N1_p_NN_NN_NN'
p1287
aVN1_w_s
p1288
aVN1_p_w_NN_NN_NN_s
p1289
aS'N1_t_u'
p1290
aS'N1_t_p_u_NN_NN_NN'
p1291
aVN1_t_w_u_s
p1292
aS'N0_p_VBZ_IN_N1_p_NN_NN_NN'
p1293
aI0
tp1294
a((lp1295
S'ST_p_VBZ_IN'
p1296
aVST_w_i
p1297
aVST_p_w_VBZ_IN_i
p1298
aS'N0_p_NN_NN_NN'
p1299
aVN0_w_s
p1300
aVN0_p_w_NN_NN_NN_s
p1301
aS'N0_t_u'
p1302
aS'N0_t_p_u_NN_NN_NN'
p1303
aVN0_t_w_u_s
p1304
aVST_p_w_VBZ_IN_i_N0_p_w_NN_NN_NN_s
p1305
aVST_p_w_VBZ_IN_i_N0_w_s
p1306
aS'ST_t_s_N0_p_NN_NN_NN'
p1307
aVST_w_i_N0_t_u
p1308
aS'ST_p_VBZ_IN_N0_p_NN_NN_NN'
p1309
aS'ST_t_s_N0_t_u'
p1310
aI2
tp1311
a((lp1312
S'ST_p_VBZ_IN'
p1313
aVST_w_i
p1314
aVST_p_w_VBZ_IN_i
p1315
aS'N0_p_NN_NN_NN'
p1316
aVN0_w_s
p1317
aVN0_p_w_NN_NN_NN_s
p1318
aS'N0_t_u'
p1319
aS'N0_t_p_u_NN_NN_NN'
p1320
aVN0_t_w_u_s
p1321
aVST_p_w_VBZ_IN_i_N0_p_w_NN_NN_NN_s
p1322
aVST_p_w_VBZ_IN_i_N0_w_s
p1323
aS'ST_t_s_N0_p_NN_NN_NN'
p1324
aVST_w_i_N0_t_u
p1325
aS'ST_p_VBZ_IN_N0_p_NN_NN_NN'
p1326
aS'ST_t_s_N0_t_u'
p1327
aVAL_s_i
p1328
aI1
tp1329
a((lp1330
S'ST_p_WP'
p1331
aVST_w_w
p1332
aVST_p_w_WP_w
p1333
aS'N0_p_NN_NN_NN'
p1334
aVN0_w_s
p1335
aVN0_p_w_NN_NN_NN_s
p1336
aS'N0_t_u'
p1337
aS'N0_t_p_u_NN_NN_NN'
p1338
aVN0_t_w_u_s
p1339
aVST_p_w_WP_w_N0_p_w_NN_NN_NN_s
p1340
aVST_p_w_WP_w_N0_w_s
p1341
aS'ST_t_h_N0_p_NN_NN_NN'
p1342
aVST_w_w_N0_t_u
p1343
aS'ST_p_WP_N0_p_NN_NN_NN'
p1344
aS'ST_t_h_N0_t_u'
p1345
aI3
tp1346
a((lp1347
S'ST_p_WP'
p1348
aVST_w_w
p1349
aVST_p_w_WP_w
p1350
aS'N0_p_NN_NN_NN'
p1351
aVN0_w_s
p1352
aVN0_p_w_NN_NN_NN_s
p1353
aS'N0_t_u'
p1354
aS'N0_t_p_u_NN_NN_NN'
p1355
aVN0_t_w_u_s
p1356
aVST_p_w_WP_w_N0_p_w_NN_NN_NN_s
p1357
aVST_p_w_WP_w_N0_w_s
p1358
aS'ST_t_h_N0_p_NN_NN_NN'
p1359
aVST_w_w_N0_t_u
p1360
aS'ST_p_WP_N0_p_NN_NN_NN'
p1361
aS'ST_t_h_N0_t_u'
p1362
aVAR_w_s
p1363
aI1
tp1364
a((lp1365
S'N0_p_NN_NN_NN'
p1366
aVN0_w_s
p1367
aVN0_p_w_NN_NN_NN_s
p1368
aS'N0_t_u'
p1369
aS'N0_t_p_u_NN_NN_NN'
p1370
aVN0_t_w_u_s
p1371
aI0
tp1372
a((lp1373
S'N0_p_WP'
p1374
aVN0_w_w
p1375
aVN0_p_w_WP_w
p1376
aS'N0_t_h'
p1377
aS'N0_t_p_h_WP'
p1378
aVN0_t_w_h_w
p1379
aS'N1_p_VBD_NN'
p1380
aVN1_w_w
p1381
aVN1_p_w_VBD_NN_w
p1382
aS'N1_t_e'
p1383
aS'N1_t_p_e_VBD_NN'
p1384
aVN1_t_w_e_w
p1385
aS'N0_p_WP_N1_p_VBD_NN'
p1386
aS'N0_p_WP_N1_p_VBD_NN_N2_p_VBD'
p1387
aS'N0_w_hN1_p_VBD_NN_N2_p_VBD'
p1388
aI0
tp1389
a((lp1390
S'ST_p_WP'
p1391
aVST_w_w
p1392
aVST_p_w_WP_w
p1393
aS'N0_p_VBD_NN'
p1394
aVN0_w_w
p1395
aVN0_p_w_VBD_NN_w
p1396
aS'N0_t_e'
p1397
aS'N0_t_p_e_VBD_NN'
p1398
aVN0_t_w_e_w
p1399
aVST_p_w_WP_w_N0_p_w_VBD_NN_w
p1400
aVST_p_w_WP_w_N0_w_w
p1401
aS'ST_t_h_N0_p_VBD_NN'
p1402
aVST_w_w_N0_t_e
p1403
aS'ST_p_WP_N0_p_VBD_NN'
p1404
aS'ST_t_h_N0_t_e'
p1405
aS'N1_p_VBD'
p1406
aVN1_w_w
p1407
aVN1_p_w_VBD_w
p1408
aS'N1_t_a'
p1409
aS'N1_t_p_a_VBD'
p1410
aVN1_t_w_a_w
p1411
aS'N0_p_VBD_NN_N1_p_VBD'
p1412
aS'N0_p_VBD_NN_N1_p_VBD_N2_p_NN_IN_DT_NN'
p1413
aS'N0_w_eN1_p_VBD_N2_p_NN_IN_DT_NN'
p1414
aI3
tp1415
a((lp1416
S'ST_p_WP'
p1417
aVST_w_w
p1418
aVST_p_w_WP_w
p1419
aS'N0_p_VBD_NN'
p1420
aVN0_w_w
p1421
aVN0_p_w_VBD_NN_w
p1422
aS'N0_t_e'
p1423
aS'N0_t_p_e_VBD_NN'
p1424
aVN0_t_w_e_w
p1425
aVST_p_w_WP_w_N0_p_w_VBD_NN_w
p1426
aVST_p_w_WP_w_N0_w_w
p1427
aS'ST_t_h_N0_p_VBD_NN'
p1428
aVST_w_w_N0_t_e
p1429
aS'ST_p_WP_N0_p_VBD_NN'
p1430
aS'ST_t_h_N0_t_e'
p1431
aVAR_w_w
p1432
aS'N1_p_VBD'
p1433
aVN1_w_w
p1434
aVN1_p_w_VBD_w
p1435
aS'N1_t_a'
p1436
aS'N1_t_p_a_VBD'
p1437
aVN1_t_w_a_w
p1438
aS'N0_p_VBD_NN_N1_p_VBD'
p1439
aS'N0_p_VBD_NN_N1_p_VBD_N2_p_NN_IN_DT_NN'
p1440
aS'N0_w_eN1_p_VBD_N2_p_NN_IN_DT_NN'
p1441
aI0
tp1442
a((lp1443
S'ST_p_VBD_NN'
p1444
aVST_w_w
p1445
aVST_p_w_VBD_NN_w
p1446
aS'N0_p_VBD'
p1447
aVN0_w_w
p1448
aVN0_p_w_VBD_w
p1449
aS'N0_t_a'
p1450
aS'N0_t_p_a_VBD'
p1451
aVN0_t_w_a_w
p1452
aVST_p_w_VBD_NN_w_N0_p_w_VBD_w
p1453
aVST_p_w_VBD_NN_w_N0_w_w
p1454
aS'ST_t_e_N0_p_VBD'
p1455
aVST_w_w_N0_t_a
p1456
aS'ST_p_VBD_NN_N0_p_VBD'
p1457
aS'ST_t_e_N0_t_a'
p1458
aS'N1_p_NN_IN_DT_NN'
p1459
aVN1_w_f
p1460
aVN1_p_w_NN_IN_DT_NN_f
p1461
aS'N1_t_i'
p1462
aS'N1_t_p_i_NN_IN_DT_NN'
p1463
aVN1_t_w_i_f
p1464
aS'N0_p_VBD_N1_p_NN_IN_DT_NN'
p1465
aI1
tp1466
a((lp1467
S'ST_p_WP'
p1468
aVST_w_w
p1469
aVST_p_w_WP_w
p1470
aS'N0_p_VBD'
p1471
aVN0_w_w
p1472
aVN0_p_w_VBD_w
p1473
aS'N0_t_a'
p1474
aS'N0_t_p_a_VBD'
p1475
aVN0_t_w_a_w
p1476
aVST_p_w_WP_w_N0_p_w_VBD_w
p1477
aVST_p_w_WP_w_N0_w_w
p1478
aS'ST_t_h_N0_p_VBD'
p1479
aVST_w_w_N0_t_a
p1480
aS'ST_p_WP_N0_p_VBD'
p1481
aS'ST_t_h_N0_t_a'
p1482
aS'N1_p_NN_IN_DT_NN'
p1483
aVN1_w_f
p1484
aVN1_p_w_NN_IN_DT_NN_f
p1485
aS'N1_t_i'
p1486
aS'N1_t_p_i_NN_IN_DT_NN'
p1487
aVN1_t_w_i_f
p1488
aS'N0_p_VBD_N1_p_NN_IN_DT_NN'
p1489
aI0
tp1490
a((lp1491
S'ST_p_VBD'
p1492
aVST_w_w
p1493
aVST_p_w_VBD_w
p1494
aS'N0_p_NN_IN_DT_NN'
p1495
aVN0_w_f
p1496
aVN0_p_w_NN_IN_DT_NN_f
p1497
aS'N0_t_i'
p1498
aS'N0_t_p_i_NN_IN_DT_NN'
p1499
aVN0_t_w_i_f
p1500
aVST_p_w_VBD_w_N0_p_w_NN_IN_DT_NN_f
p1501
aVST_p_w_VBD_w_N0_w_f
p1502
aS'ST_t_a_N0_p_NN_IN_DT_NN'
p1503
aVST_w_w_N0_t_i
p1504
aS'ST_p_VBD_N0_p_NN_IN_DT_NN'
p1505
aS'ST_t_a_N0_t_i'
p1506
aI2
tp1507
a((lp1508
S'ST_p_VBD'
p1509
aVST_w_w
p1510
aVST_p_w_VBD_w
p1511
aS'N0_p_NN_IN_DT_NN'
p1512
aVN0_w_f
p1513
aVN0_p_w_NN_IN_DT_NN_f
p1514
aS'N0_t_i'
p1515
aS'N0_t_p_i_NN_IN_DT_NN'
p1516
aVN0_t_w_i_f
p1517
aVST_p_w_VBD_w_N0_p_w_NN_IN_DT_NN_f
p1518
aVST_p_w_VBD_w_N0_w_f
p1519
aS'ST_t_a_N0_p_NN_IN_DT_NN'
p1520
aVST_w_w_N0_t_i
p1521
aS'ST_p_VBD_N0_p_NN_IN_DT_NN'
p1522
aS'ST_t_a_N0_t_i'
p1523
aVAL_f_w
p1524
aI1
tp1525
a((lp1526
S'ST_p_WP'
p1527
aVST_w_w
p1528
aVST_p_w_WP_w
p1529
aS'N0_p_NN_IN_DT_NN'
p1530
aVN0_w_f
p1531
aVN0_p_w_NN_IN_DT_NN_f
p1532
aS'N0_t_i'
p1533
aS'N0_t_p_i_NN_IN_DT_NN'
p1534
aVN0_t_w_i_f
p1535
aVST_p_w_WP_w_N0_p_w_NN_IN_DT_NN_f
p1536
aVST_p_w_WP_w_N0_w_f
p1537
aS'ST_t_h_N0_p_NN_IN_DT_NN'
p1538
aVST_w_w_N0_t_i
p1539
aS'ST_p_WP_N0_p_NN_IN_DT_NN'
p1540
aS'ST_t_h_N0_t_i'
p1541
aI3
tp1542
a((lp1543
S'ST_p_WP'
p1544
aVST_w_w
p1545
aVST_p_w_WP_w
p1546
aS'N0_p_NN_IN_DT_NN'
p1547
aVN0_w_f
p1548
aVN0_p_w_NN_IN_DT_NN_f
p1549
aS'N0_t_i'
p1550
aS'N0_t_p_i_NN_IN_DT_NN'
p1551
aVN0_t_w_i_f
p1552
aVST_p_w_WP_w_N0_p_w_NN_IN_DT_NN_f
p1553
aVST_p_w_WP_w_N0_w_f
p1554
aS'ST_t_h_N0_p_NN_IN_DT_NN'
p1555
aVST_w_w_N0_t_i
p1556
aS'ST_p_WP_N0_p_NN_IN_DT_NN'
p1557
aS'ST_t_h_N0_t_i'
p1558
aVAR_w_f
p1559
aI1
tp1560
a((lp1561
S'N0_p_NN_IN_DT_NN'
p1562
aVN0_w_f
p1563
aVN0_p_w_NN_IN_DT_NN_f
p1564
aS'N0_t_i'
p1565
aS'N0_t_p_i_NN_IN_DT_NN'
p1566
aVN0_t_w_i_f
p1567
aI0
tp1568
a((lp1569
S'N0_p_WRB'
p1570
aVN0_w_w
p1571
aVN0_p_w_WRB_w
p1572
aS'N0_t_h'
p1573
aS'N0_t_p_h_WRB'
p1574
aVN0_t_w_h_w
p1575
aS'N1_p_VBD_VBD'
p1576
aVN1_w_w
p1577
aVN1_p_w_VBD_VBD_w
p1578
aS'N1_t_a'
p1579
aS'N1_t_p_a_VBD_VBD'
p1580
aVN1_t_w_a_w
p1581
aS'N0_p_WRB_N1_p_VBD_VBD'
p1582
aS'N0_p_WRB_N1_p_VBD_VBD_N2_p_NN_IN_NNP_NNP'
p1583
aS'N0_w_hN1_p_VBD_VBD_N2_p_NN_IN_NNP_NNP'
p1584
aI0
tp1585
a((lp1586
S'ST_p_WRB'
p1587
aVST_w_w
p1588
aVST_p_w_WRB_w
p1589
aS'N0_p_VBD_VBD'
p1590
aVN0_w_w
p1591
aVN0_p_w_VBD_VBD_w
p1592
aS'N0_t_a'
p1593
aS'N0_t_p_a_VBD_VBD'
p1594
aVN0_t_w_a_w
p1595
aVST_p_w_WRB_w_N0_p_w_VBD_VBD_w
p1596
aVST_p_w_WRB_w_N0_w_w
p1597
aS'ST_t_h_N0_p_VBD_VBD'
p1598
aVST_w_w_N0_t_a
p1599
aS'ST_p_WRB_N0_p_VBD_VBD'
p1600
aS'ST_t_h_N0_t_a'
p1601
aS'N1_p_NN_IN_NNP_NNP'
p1602
aVN1_w_o
p1603
aVN1_p_w_NN_IN_NNP_NNP_o
p1604
aS'N1_t_r'
p1605
aS'N1_t_p_r_NN_IN_NNP_NNP'
p1606
aVN1_t_w_r_o
p1607
aS'N0_p_VBD_VBD_N1_p_NN_IN_NNP_NNP'
p1608
aI0
tp1609
a((lp1610
S'ST_p_VBD_VBD'
p1611
aVST_w_w
p1612
aVST_p_w_VBD_VBD_w
p1613
aS'N0_p_NN_IN_NNP_NNP'
p1614
aVN0_w_o
p1615
aVN0_p_w_NN_IN_NNP_NNP_o
p1616
aS'N0_t_r'
p1617
aS'N0_t_p_r_NN_IN_NNP_NNP'
p1618
aVN0_t_w_r_o
p1619
aVST_p_w_VBD_VBD_w_N0_p_w_NN_IN_NNP_NNP_o
p1620
aVST_p_w_VBD_VBD_w_N0_w_o
p1621
aS'ST_t_a_N0_p_NN_IN_NNP_NNP'
p1622
aVST_w_w_N0_t_r
p1623
aS'ST_p_VBD_VBD_N0_p_NN_IN_NNP_NNP'
p1624
aS'ST_t_a_N0_t_r'
p1625
aI2
tp1626
a((lp1627
S'ST_p_VBD_VBD'
p1628
aVST_w_w
p1629
aVST_p_w_VBD_VBD_w
p1630
aS'N0_p_NN_IN_NNP_NNP'
p1631
aVN0_w_o
p1632
aVN0_p_w_NN_IN_NNP_NNP_o
p1633
aS'N0_t_r'
p1634
aS'N0_t_p_r_NN_IN_NNP_NNP'
p1635
aVN0_t_w_r_o
p1636
aVST_p_w_VBD_VBD_w_N0_p_w_NN_IN_NNP_NNP_o
p1637
aVST_p_w_VBD_VBD_w_N0_w_o
p1638
aS'ST_t_a_N0_p_NN_IN_NNP_NNP'
p1639
aVST_w_w_N0_t_r
p1640
aS'ST_p_VBD_VBD_N0_p_NN_IN_NNP_NNP'
p1641
aS'ST_t_a_N0_t_r'
p1642
aVAL_o_w
p1643
aI1
tp1644
a((lp1645
S'ST_p_WRB'
p1646
aVST_w_w
p1647
aVST_p_w_WRB_w
p1648
aS'N0_p_NN_IN_NNP_NNP'
p1649
aVN0_w_o
p1650
aVN0_p_w_NN_IN_NNP_NNP_o
p1651
aS'N0_t_r'
p1652
aS'N0_t_p_r_NN_IN_NNP_NNP'
p1653
aVN0_t_w_r_o
p1654
aVST_p_w_WRB_w_N0_p_w_NN_IN_NNP_NNP_o
p1655
aVST_p_w_WRB_w_N0_w_o
p1656
aS'ST_t_h_N0_p_NN_IN_NNP_NNP'
p1657
aVST_w_w_N0_t_r
p1658
aS'ST_p_WRB_N0_p_NN_IN_NNP_NNP'
p1659
aS'ST_t_h_N0_t_r'
p1660
aI3
tp1661
a((lp1662
S'ST_p_WRB'
p1663
aVST_w_w
p1664
aVST_p_w_WRB_w
p1665
aS'N0_p_NN_IN_NNP_NNP'
p1666
aVN0_w_o
p1667
aVN0_p_w_NN_IN_NNP_NNP_o
p1668
aS'N0_t_r'
p1669
aS'N0_t_p_r_NN_IN_NNP_NNP'
p1670
aVN0_t_w_r_o
p1671
aVST_p_w_WRB_w_N0_p_w_NN_IN_NNP_NNP_o
p1672
aVST_p_w_WRB_w_N0_w_o
p1673
aS'ST_t_h_N0_p_NN_IN_NNP_NNP'
p1674
aVST_w_w_N0_t_r
p1675
aS'ST_p_WRB_N0_p_NN_IN_NNP_NNP'
p1676
aS'ST_t_h_N0_t_r'
p1677
aVAR_w_o
p1678
aI1
tp1679
a((lp1680
S'N0_p_NN_IN_NNP_NNP'
p1681
aVN0_w_o
p1682
aVN0_p_w_NN_IN_NNP_NNP_o
p1683
aS'N0_t_r'
p1684
aS'N0_t_p_r_NN_IN_NNP_NNP'
p1685
aVN0_t_w_r_o
p1686
aI0
tp1687
a((lp1688
S'N0_p_WP'
p1689
aVN0_w_w
p1690
aVN0_p_w_WP_w
p1691
aS'N0_t_h'
p1692
aS'N0_t_p_h_WP'
p1693
aVN0_t_w_h_w
p1694
aS'N1_p_NN'
p1695
aVN1_w_y
p1696
aVN1_p_w_NN_y
p1697
aS'N1_t_e'
p1698
aS'N1_t_p_e_NN'
p1699
aVN1_t_w_e_y
p1700
aS'N0_p_WP_N1_p_NN'
p1701
aS'N0_p_WP_N1_p_NN_N2_p_VBD_NN_NN'
p1702
aS'N0_w_hN1_p_NN_N2_p_VBD_NN_NN'
p1703
aI0
tp1704
a((lp1705
S'ST_p_WP'
p1706
aVST_w_w
p1707
aVST_p_w_WP_w
p1708
aS'N0_p_NN'
p1709
aVN0_w_y
p1710
aVN0_p_w_NN_y
p1711
aS'N0_t_e'
p1712
aS'N0_t_p_e_NN'
p1713
aVN0_t_w_e_y
p1714
aVST_p_w_WP_w_N0_p_w_NN_y
p1715
aVST_p_w_WP_w_N0_w_y
p1716
aS'ST_t_h_N0_p_NN'
p1717
aVST_w_w_N0_t_e
p1718
aS'ST_p_WP_N0_p_NN'
p1719
aS'ST_t_h_N0_t_e'
p1720
aS'N1_p_VBD_NN_NN'
p1721
aVN1_w_w
p1722
aVN1_p_w_VBD_NN_NN_w
p1723
aS'N1_t_a'
p1724
aS'N1_t_p_a_VBD_NN_NN'
p1725
aVN1_t_w_a_w
p1726
aS'N0_p_NN_N1_p_VBD_NN_NN'
p1727
aS'N0_p_NN_N1_p_VBD_NN_NN_N2_p_NNP_NNP'
p1728
aS'N0_w_eN1_p_VBD_NN_NN_N2_p_NNP_NNP'
p1729
aI3
tp1730
a((lp1731
S'ST_p_WP'
p1732
aVST_w_w
p1733
aVST_p_w_WP_w
p1734
aS'N0_p_NN'
p1735
aVN0_w_y
p1736
aVN0_p_w_NN_y
p1737
aS'N0_t_e'
p1738
aS'N0_t_p_e_NN'
p1739
aVN0_t_w_e_y
p1740
aVST_p_w_WP_w_N0_p_w_NN_y
p1741
aVST_p_w_WP_w_N0_w_y
p1742
aS'ST_t_h_N0_p_NN'
p1743
aVST_w_w_N0_t_e
p1744
aS'ST_p_WP_N0_p_NN'
p1745
aS'ST_t_h_N0_t_e'
p1746
aVAR_w_y
p1747
aS'N1_p_VBD_NN_NN'
p1748
aVN1_w_w
p1749
aVN1_p_w_VBD_NN_NN_w
p1750
aS'N1_t_a'
p1751
aS'N1_t_p_a_VBD_NN_NN'
p1752
aVN1_t_w_a_w
p1753
aS'N0_p_NN_N1_p_VBD_NN_NN'
p1754
aS'N0_p_NN_N1_p_VBD_NN_NN_N2_p_NNP_NNP'
p1755
aS'N0_w_eN1_p_VBD_NN_NN_N2_p_NNP_NNP'
p1756
aI0
tp1757
a((lp1758
S'ST_p_NN'
p1759
aVST_w_y
p1760
aVST_p_w_NN_y
p1761
aS'N0_p_VBD_NN_NN'
p1762
aVN0_w_w
p1763
aVN0_p_w_VBD_NN_NN_w
p1764
aS'N0_t_a'
p1765
aS'N0_t_p_a_VBD_NN_NN'
p1766
aVN0_t_w_a_w
p1767
aVST_p_w_NN_y_N0_p_w_VBD_NN_NN_w
p1768
aVST_p_w_NN_y_N0_w_w
p1769
aS'ST_t_e_N0_p_VBD_NN_NN'
p1770
aVST_w_y_N0_t_a
p1771
aS'ST_p_NN_N0_p_VBD_NN_NN'
p1772
aS'ST_t_e_N0_t_a'
p1773
aS'N1_p_NNP_NNP'
p1774
aVN1_w_R
p1775
aVN1_p_w_NNP_NNP_R
p1776
aS'N1_t_o'
p1777
aS'N1_t_p_o_NNP_NNP'
p1778
aVN1_t_w_o_R
p1779
aS'N0_p_VBD_NN_NN_N1_p_NNP_NNP'
p1780
aI1
tp1781
a((lp1782
S'ST_p_WP'
p1783
aVST_w_w
p1784
aVST_p_w_WP_w
p1785
aS'N0_p_VBD_NN_NN'
p1786
aVN0_w_w
p1787
aVN0_p_w_VBD_NN_NN_w
p1788
aS'N0_t_a'
p1789
aS'N0_t_p_a_VBD_NN_NN'
p1790
aVN0_t_w_a_w
p1791
aVST_p_w_WP_w_N0_p_w_VBD_NN_NN_w
p1792
aVST_p_w_WP_w_N0_w_w
p1793
aS'ST_t_h_N0_p_VBD_NN_NN'
p1794
aVST_w_w_N0_t_a
p1795
aS'ST_p_WP_N0_p_VBD_NN_NN'
p1796
aS'ST_t_h_N0_t_a'
p1797
aS'N1_p_NNP_NNP'
p1798
aVN1_w_R
p1799
aVN1_p_w_NNP_NNP_R
p1800
aS'N1_t_o'
p1801
aS'N1_t_p_o_NNP_NNP'
p1802
aVN1_t_w_o_R
p1803
aS'N0_p_VBD_NN_NN_N1_p_NNP_NNP'
p1804
aI0
tp1805
a((lp1806
S'ST_p_VBD_NN_NN'
p1807
aVST_w_w
p1808
aVST_p_w_VBD_NN_NN_w
p1809
aS'N0_p_NNP_NNP'
p1810
aVN0_w_R
p1811
aVN0_p_w_NNP_NNP_R
p1812
aS'N0_t_o'
p1813
aS'N0_t_p_o_NNP_NNP'
p1814
aVN0_t_w_o_R
p1815
aVST_p_w_VBD_NN_NN_w_N0_p_w_NNP_NNP_R
p1816
aVST_p_w_VBD_NN_NN_w_N0_w_R
p1817
aS'ST_t_a_N0_p_NNP_NNP'
p1818
aVST_w_w_N0_t_o
p1819
aS'ST_p_VBD_NN_NN_N0_p_NNP_NNP'
p1820
aS'ST_t_a_N0_t_o'
p1821
aI2
tp1822
a((lp1823
S'ST_p_VBD_NN_NN'
p1824
aVST_w_w
p1825
aVST_p_w_VBD_NN_NN_w
p1826
aS'N0_p_NNP_NNP'
p1827
aVN0_w_R
p1828
aVN0_p_w_NNP_NNP_R
p1829
aS'N0_t_o'
p1830
aS'N0_t_p_o_NNP_NNP'
p1831
aVN0_t_w_o_R
p1832
aVST_p_w_VBD_NN_NN_w_N0_p_w_NNP_NNP_R
p1833
aVST_p_w_VBD_NN_NN_w_N0_w_R
p1834
aS'ST_t_a_N0_p_NNP_NNP'
p1835
aVST_w_w_N0_t_o
p1836
aS'ST_p_VBD_NN_NN_N0_p_NNP_NNP'
p1837
aS'ST_t_a_N0_t_o'
p1838
aVAL_R_w
p1839
aI1
tp1840
a((lp1841
S'ST_p_WP'
p1842
aVST_w_w
p1843
aVST_p_w_WP_w
p1844
aS'N0_p_NNP_NNP'
p1845
aVN0_w_R
p1846
aVN0_p_w_NNP_NNP_R
p1847
aS'N0_t_o'
p1848
aS'N0_t_p_o_NNP_NNP'
p1849
aVN0_t_w_o_R
p1850
aVST_p_w_WP_w_N0_p_w_NNP_NNP_R
p1851
aVST_p_w_WP_w_N0_w_R
p1852
aS'ST_t_h_N0_p_NNP_NNP'
p1853
aVST_w_w_N0_t_o
p1854
aS'ST_p_WP_N0_p_NNP_NNP'
p1855
aS'ST_t_h_N0_t_o'
p1856
aI3
tp1857
a((lp1858
S'ST_p_WP'
p1859
aVST_w_w
p1860
aVST_p_w_WP_w
p1861
aS'N0_p_NNP_NNP'
p1862
aVN0_w_R
p1863
aVN0_p_w_NNP_NNP_R
p1864
aS'N0_t_o'
p1865
aS'N0_t_p_o_NNP_NNP'
p1866
aVN0_t_w_o_R
p1867
aVST_p_w_WP_w_N0_p_w_NNP_NNP_R
p1868
aVST_p_w_WP_w_N0_w_R
p1869
aS'ST_t_h_N0_p_NNP_NNP'
p1870
aVST_w_w_N0_t_o
p1871
aS'ST_p_WP_N0_p_NNP_NNP'
p1872
aS'ST_t_h_N0_t_o'
p1873
aVAR_w_R
p1874
aI1
tp1875
a((lp1876
S'N0_p_NNP_NNP'
p1877
aVN0_w_R
p1878
aVN0_p_w_NNP_NNP_R
p1879
aS'N0_t_o'
p1880
aS'N0_t_p_o_NNP_NNP'
p1881
aVN0_t_w_o_R
p1882
aI0
tp1883
a((lp1884
S'N0_p_WP'
p1885
aVN0_w_w
p1886
aVN0_p_w_WP_w
p1887
aS'N0_t_h'
p1888
aS'N0_t_p_h_WP'
p1889
aVN0_t_w_h_w
p1890
aS'N1_p_VBD_IN'
p1891
aVN1_w_w
p1892
aVN1_p_w_VBD_IN_w
p1893
aS'N1_t_a'
p1894
aS'N1_t_p_a_VBD_IN'
p1895
aVN1_t_w_a_w
p1896
aS'N0_p_WP_N1_p_VBD_IN'
p1897
aS'N0_p_WP_N1_p_VBD_IN_N2_p_NN'
p1898
aS'N0_w_hN1_p_VBD_IN_N2_p_NN'
p1899
aI0
tp1900
a((lp1901
S'ST_p_WP'
p1902
aVST_w_w
p1903
aVST_p_w_WP_w
p1904
aS'N0_p_VBD_IN'
p1905
aVN0_w_w
p1906
aVN0_p_w_VBD_IN_w
p1907
aS'N0_t_a'
p1908
aS'N0_t_p_a_VBD_IN'
p1909
aVN0_t_w_a_w
p1910
aVST_p_w_WP_w_N0_p_w_VBD_IN_w
p1911
aVST_p_w_WP_w_N0_w_w
p1912
aS'ST_t_h_N0_p_VBD_IN'
p1913
aVST_w_w_N0_t_a
p1914
aS'ST_p_WP_N0_p_VBD_IN'
p1915
aS'ST_t_h_N0_t_a'
p1916
aS'N1_p_NN'
p1917
aVN1_w_l
p1918
aVN1_p_w_NN_l
p1919
aS'N1_t_i'
p1920
aS'N1_t_p_i_NN'
p1921
aVN1_t_w_i_l
p1922
aS'N0_p_VBD_IN_N1_p_NN'
p1923
aS'N0_p_VBD_IN_N1_p_NN_N2_p_JJ_NN'
p1924
aS'N0_w_aN1_p_NN_N2_p_JJ_NN'
p1925
aI3
tp1926
a((lp1927
S'ST_p_WP'
p1928
aVST_w_w
p1929
aVST_p_w_WP_w
p1930
aS'N0_p_VBD_IN'
p1931
aVN0_w_w
p1932
aVN0_p_w_VBD_IN_w
p1933
aS'N0_t_a'
p1934
aS'N0_t_p_a_VBD_IN'
p1935
aVN0_t_w_a_w
p1936
aVST_p_w_WP_w_N0_p_w_VBD_IN_w
p1937
aVST_p_w_WP_w_N0_w_w
p1938
aS'ST_t_h_N0_p_VBD_IN'
p1939
aVST_w_w_N0_t_a
p1940
aS'ST_p_WP_N0_p_VBD_IN'
p1941
aS'ST_t_h_N0_t_a'
p1942
aVAR_w_w
p1943
aS'N1_p_NN'
p1944
aVN1_w_l
p1945
aVN1_p_w_NN_l
p1946
aS'N1_t_i'
p1947
aS'N1_t_p_i_NN'
p1948
aVN1_t_w_i_l
p1949
aS'N0_p_VBD_IN_N1_p_NN'
p1950
aS'N0_p_VBD_IN_N1_p_NN_N2_p_JJ_NN'
p1951
aS'N0_w_aN1_p_NN_N2_p_JJ_NN'
p1952
aI0
tp1953
a((lp1954
S'ST_p_VBD_IN'
p1955
aVST_w_w
p1956
aVST_p_w_VBD_IN_w
p1957
aS'N0_p_NN'
p1958
aVN0_w_l
p1959
aVN0_p_w_NN_l
p1960
aS'N0_t_i'
p1961
aS'N0_t_p_i_NN'
p1962
aVN0_t_w_i_l
p1963
aVST_p_w_VBD_IN_w_N0_p_w_NN_l
p1964
aVST_p_w_VBD_IN_w_N0_w_l
p1965
aS'ST_t_a_N0_p_NN'
p1966
aVST_w_w_N0_t_i
p1967
aS'ST_p_VBD_IN_N0_p_NN'
p1968
aS'ST_t_a_N0_t_i'
p1969
aS'N1_p_JJ_NN'
p1970
aVN1_w_m
p1971
aVN1_p_w_JJ_NN_m
p1972
aS'N1_t_a'
p1973
aS'N1_t_p_a_JJ_NN'
p1974
aVN1_t_w_a_m
p1975
aS'N0_p_NN_N1_p_JJ_NN'
p1976
aI1
tp1977
a((lp1978
S'ST_p_WP'
p1979
aVST_w_w
p1980
aVST_p_w_WP_w
p1981
aS'N0_p_NN'
p1982
aVN0_w_l
p1983
aVN0_p_w_NN_l
p1984
aS'N0_t_i'
p1985
aS'N0_t_p_i_NN'
p1986
aVN0_t_w_i_l
p1987
aVST_p_w_WP_w_N0_p_w_NN_l
p1988
aVST_p_w_WP_w_N0_w_l
p1989
aS'ST_t_h_N0_p_NN'
p1990
aVST_w_w_N0_t_i
p1991
aS'ST_p_WP_N0_p_NN'
p1992
aS'ST_t_h_N0_t_i'
p1993
aS'N1_p_JJ_NN'
p1994
aVN1_w_m
p1995
aVN1_p_w_JJ_NN_m
p1996
aS'N1_t_a'
p1997
aS'N1_t_p_a_JJ_NN'
p1998
aVN1_t_w_a_m
p1999
aS'N0_p_NN_N1_p_JJ_NN'
p2000
aI0
tp2001
a((lp2002
S'ST_p_NN'
p2003
aVST_w_l
p2004
aVST_p_w_NN_l
p2005
aS'N0_p_JJ_NN'
p2006
aVN0_w_m
p2007
aVN0_p_w_JJ_NN_m
p2008
aS'N0_t_a'
p2009
aS'N0_t_p_a_JJ_NN'
p2010
aVN0_t_w_a_m
p2011
aVST_p_w_NN_l_N0_p_w_JJ_NN_m
p2012
aVST_p_w_NN_l_N0_w_m
p2013
aS'ST_t_i_N0_p_JJ_NN'
p2014
aVST_w_l_N0_t_a
p2015
aS'ST_p_NN_N0_p_JJ_NN'
p2016
aS'ST_t_i_N0_t_a'
p2017
aI2
tp2018
a((lp2019
S'ST_p_NN'
p2020
aVST_w_l
p2021
aVST_p_w_NN_l
p2022
aS'N0_p_JJ_NN'
p2023
aVN0_w_m
p2024
aVN0_p_w_JJ_NN_m
p2025
aS'N0_t_a'
p2026
aS'N0_t_p_a_JJ_NN'
p2027
aVN0_t_w_a_m
p2028
aVST_p_w_NN_l_N0_p_w_JJ_NN_m
p2029
aVST_p_w_NN_l_N0_w_m
p2030
aS'ST_t_i_N0_p_JJ_NN'
p2031
aVST_w_l_N0_t_a
p2032
aS'ST_p_NN_N0_p_JJ_NN'
p2033
aS'ST_t_i_N0_t_a'
p2034
aVAL_m_l
p2035
aI1
tp2036
a((lp2037
S'ST_p_WP'
p2038
aVST_w_w
p2039
aVST_p_w_WP_w
p2040
aS'N0_p_JJ_NN'
p2041
aVN0_w_m
p2042
aVN0_p_w_JJ_NN_m
p2043
aS'N0_t_a'
p2044
aS'N0_t_p_a_JJ_NN'
p2045
aVN0_t_w_a_m
p2046
aVST_p_w_WP_w_N0_p_w_JJ_NN_m
p2047
aVST_p_w_WP_w_N0_w_m
p2048
aS'ST_t_h_N0_p_JJ_NN'
p2049
aVST_w_w_N0_t_a
p2050
aS'ST_p_WP_N0_p_JJ_NN'
p2051
aS'ST_t_h_N0_t_a'
p2052
aI3
tp2053
a((lp2054
S'ST_p_WP'
p2055
aVST_w_w
p2056
aVST_p_w_WP_w
p2057
aS'N0_p_JJ_NN'
p2058
aVN0_w_m
p2059
aVN0_p_w_JJ_NN_m
p2060
aS'N0_t_a'
p2061
aS'N0_t_p_a_JJ_NN'
p2062
aVN0_t_w_a_m
p2063
aVST_p_w_WP_w_N0_p_w_JJ_NN_m
p2064
aVST_p_w_WP_w_N0_w_m
p2065
aS'ST_t_h_N0_p_JJ_NN'
p2066
aVST_w_w_N0_t_a
p2067
aS'ST_p_WP_N0_p_JJ_NN'
p2068
aS'ST_t_h_N0_t_a'
p2069
aVAR_w_m
p2070
aI1
tp2071
a((lp2072
S'N0_p_JJ_NN'
p2073
aVN0_w_m
p2074
aVN0_p_w_JJ_NN_m
p2075
aS'N0_t_a'
p2076
aS'N0_t_p_a_JJ_NN'
p2077
aVN0_t_w_a_m
p2078
aI0
tp2079
a((lp2080
S'N0_p_WRB_JJ'
p2081
aVN0_w_h
p2082
aVN0_p_w_WRB_JJ_h
p2083
aS'N0_t_o'
p2084
aS'N0_t_p_o_WRB_JJ'
p2085
aVN0_t_w_o_h
p2086
aS'N1_p_NNS'
p2087
aVN1_w_o
p2088
aVN1_p_w_NNS_o
p2089
aS'N1_t_r'
p2090
aS'N1_t_p_r_NNS'
p2091
aVN1_t_w_r_o
p2092
aS'N0_p_WRB_JJ_N1_p_NNS'
p2093
aS'N0_p_WRB_JJ_N1_p_NNS_N2_p_VBP_IN'
p2094
aS'N0_w_oN1_p_NNS_N2_p_VBP_IN'
p2095
aI0
tp2096
a((lp2097
S'ST_p_WRB_JJ'
p2098
aVST_w_h
p2099
aVST_p_w_WRB_JJ_h
p2100
aS'N0_p_NNS'
p2101
aVN0_w_o
p2102
aVN0_p_w_NNS_o
p2103
aS'N0_t_r'
p2104
aS'N0_t_p_r_NNS'
p2105
aVN0_t_w_r_o
p2106
aVST_p_w_WRB_JJ_h_N0_p_w_NNS_o
p2107
aVST_p_w_WRB_JJ_h_N0_w_o
p2108
aS'ST_t_o_N0_p_NNS'
p2109
aVST_w_h_N0_t_r
p2110
aS'ST_p_WRB_JJ_N0_p_NNS'
p2111
aS'ST_t_o_N0_t_r'
p2112
aS'N1_p_VBP_IN'
p2113
aVN1_w_a
p2114
aVN1_p_w_VBP_IN_a
p2115
aS'N1_t_r'
p2116
aS'N1_t_p_r_VBP_IN'
p2117
aVN1_t_w_r_a
p2118
aS'N0_p_NNS_N1_p_VBP_IN'
p2119
aS'N0_p_NNS_N1_p_VBP_IN_N2_p_NN_NN'
p2120
aS'N0_w_rN1_p_VBP_IN_N2_p_NN_NN'
p2121
aI3
tp2122
a((lp2123
S'ST_p_WRB_JJ'
p2124
aVST_w_h
p2125
aVST_p_w_WRB_JJ_h
p2126
aS'N0_p_NNS'
p2127
aVN0_w_o
p2128
aVN0_p_w_NNS_o
p2129
aS'N0_t_r'
p2130
aS'N0_t_p_r_NNS'
p2131
aVN0_t_w_r_o
p2132
aVST_p_w_WRB_JJ_h_N0_p_w_NNS_o
p2133
aVST_p_w_WRB_JJ_h_N0_w_o
p2134
aS'ST_t_o_N0_p_NNS'
p2135
aVST_w_h_N0_t_r
p2136
aS'ST_p_WRB_JJ_N0_p_NNS'
p2137
aS'ST_t_o_N0_t_r'
p2138
aVAR_h_o
p2139
aS'N1_p_VBP_IN'
p2140
aVN1_w_a
p2141
aVN1_p_w_VBP_IN_a
p2142
aS'N1_t_r'
p2143
aS'N1_t_p_r_VBP_IN'
p2144
aVN1_t_w_r_a
p2145
aS'N0_p_NNS_N1_p_VBP_IN'
p2146
aS'N0_p_NNS_N1_p_VBP_IN_N2_p_NN_NN'
p2147
aS'N0_w_rN1_p_VBP_IN_N2_p_NN_NN'
p2148
aI0
tp2149
a((lp2150
S'ST_p_NNS'
p2151
aVST_w_o
p2152
aVST_p_w_NNS_o
p2153
aS'N0_p_VBP_IN'
p2154
aVN0_w_a
p2155
aVN0_p_w_VBP_IN_a
p2156
aS'N0_t_r'
p2157
aS'N0_t_p_r_VBP_IN'
p2158
aVN0_t_w_r_a
p2159
aVST_p_w_NNS_o_N0_p_w_VBP_IN_a
p2160
aVST_p_w_NNS_o_N0_w_a
p2161
aS'ST_t_r_N0_p_VBP_IN'
p2162
aVST_w_o_N0_t_r
p2163
aS'ST_p_NNS_N0_p_VBP_IN'
p2164
aS'ST_t_r_N0_t_r'
p2165
aS'N1_p_NN_NN'
p2166
aVN1_w_a
p2167
aVN1_p_w_NN_NN_a
p2168
aS'N1_t_u'
p2169
aS'N1_t_p_u_NN_NN'
p2170
aVN1_t_w_u_a
p2171
aS'N0_p_VBP_IN_N1_p_NN_NN'
p2172
aI1
tp2173
a((lp2174
S'ST_p_WRB_JJ'
p2175
aVST_w_h
p2176
aVST_p_w_WRB_JJ_h
p2177
aS'N0_p_VBP_IN'
p2178
aVN0_w_a
p2179
aVN0_p_w_VBP_IN_a
p2180
aS'N0_t_r'
p2181
aS'N0_t_p_r_VBP_IN'
p2182
aVN0_t_w_r_a
p2183
aVST_p_w_WRB_JJ_h_N0_p_w_VBP_IN_a
p2184
aVST_p_w_WRB_JJ_h_N0_w_a
p2185
aS'ST_t_o_N0_p_VBP_IN'
p2186
aVST_w_h_N0_t_r
p2187
aS'ST_p_WRB_JJ_N0_p_VBP_IN'
p2188
aS'ST_t_o_N0_t_r'
p2189
aS'N1_p_NN_NN'
p2190
aVN1_w_a
p2191
aVN1_p_w_NN_NN_a
p2192
aS'N1_t_u'
p2193
aS'N1_t_p_u_NN_NN'
p2194
aVN1_t_w_u_a
p2195
aS'N0_p_VBP_IN_N1_p_NN_NN'
p2196
aI0
tp2197
a((lp2198
S'ST_p_VBP_IN'
p2199
aVST_w_a
p2200
aVST_p_w_VBP_IN_a
p2201
aS'N0_p_NN_NN'
p2202
aVN0_w_a
p2203
aVN0_p_w_NN_NN_a
p2204
aS'N0_t_u'
p2205
aS'N0_t_p_u_NN_NN'
p2206
aVN0_t_w_u_a
p2207
aVST_p_w_VBP_IN_a_N0_p_w_NN_NN_a
p2208
aVST_p_w_VBP_IN_a_N0_w_a
p2209
aS'ST_t_r_N0_p_NN_NN'
p2210
aVST_w_a_N0_t_u
p2211
aS'ST_p_VBP_IN_N0_p_NN_NN'
p2212
aS'ST_t_r_N0_t_u'
p2213
aI2
tp2214
a((lp2215
S'ST_p_VBP_IN'
p2216
aVST_w_a
p2217
aVST_p_w_VBP_IN_a
p2218
aS'N0_p_NN_NN'
p2219
aVN0_w_a
p2220
aVN0_p_w_NN_NN_a
p2221
aS'N0_t_u'
p2222
aS'N0_t_p_u_NN_NN'
p2223
aVN0_t_w_u_a
p2224
aVST_p_w_VBP_IN_a_N0_p_w_NN_NN_a
p2225
aVST_p_w_VBP_IN_a_N0_w_a
p2226
aS'ST_t_r_N0_p_NN_NN'
p2227
aVST_w_a_N0_t_u
p2228
aS'ST_p_VBP_IN_N0_p_NN_NN'
p2229
aS'ST_t_r_N0_t_u'
p2230
aVAL_a_a
p2231
aI1
tp2232
a((lp2233
S'ST_p_WRB_JJ'
p2234
aVST_w_h
p2235
aVST_p_w_WRB_JJ_h
p2236
aS'N0_p_NN_NN'
p2237
aVN0_w_a
p2238
aVN0_p_w_NN_NN_a
p2239
aS'N0_t_u'
p2240
aS'N0_t_p_u_NN_NN'
p2241
aVN0_t_w_u_a
p2242
aVST_p_w_WRB_JJ_h_N0_p_w_NN_NN_a
p2243
aVST_p_w_WRB_JJ_h_N0_w_a
p2244
aS'ST_t_o_N0_p_NN_NN'
p2245
aVST_w_h_N0_t_u
p2246
aS'ST_p_WRB_JJ_N0_p_NN_NN'
p2247
aS'ST_t_o_N0_t_u'
p2248
aI3
tp2249
a((lp2250
S'ST_p_WRB_JJ'
p2251
aVST_w_h
p2252
aVST_p_w_WRB_JJ_h
p2253
aS'N0_p_NN_NN'
p2254
aVN0_w_a
p2255
aVN0_p_w_NN_NN_a
p2256
aS'N0_t_u'
p2257
aS'N0_t_p_u_NN_NN'
p2258
aVN0_t_w_u_a
p2259
aVST_p_w_WRB_JJ_h_N0_p_w_NN_NN_a
p2260
aVST_p_w_WRB_JJ_h_N0_w_a
p2261
aS'ST_t_o_N0_p_NN_NN'
p2262
aVST_w_h_N0_t_u
p2263
aS'ST_p_WRB_JJ_N0_p_NN_NN'
p2264
aS'ST_t_o_N0_t_u'
p2265
aVAR_h_a
p2266
aI1
tp2267
a((lp2268
S'N0_p_NN_NN'
p2269
aVN0_w_a
p2270
aVN0_p_w_NN_NN_a
p2271
aS'N0_t_u'
p2272
aS'N0_t_p_u_NN_NN'
p2273
aVN0_t_w_u_a
p2274
aI0
tp2275
a((lp2276
S'N0_p_WP'
p2277
aVN0_w_w
p2278
aVN0_p_w_WP_w
p2279
aS'N0_t_h'
p2280
aS'N0_t_p_h_WP'
p2281
aVN0_t_w_h_w
p2282
aS'N1_p_VBZ_IN'
p2283
aVN1_w_i
p2284
aVN1_p_w_VBZ_IN_i
p2285
aS'N1_t_s'
p2286
aS'N1_t_p_s_VBZ_IN'
p2287
aVN1_t_w_s_i
p2288
aS'N0_p_WP_N1_p_VBZ_IN'
p2289
aS'N0_p_WP_N1_p_VBZ_IN_N2_p_NN_NN'
p2290
aS'N0_w_hN1_p_VBZ_IN_N2_p_NN_NN'
p2291
aI0
tp2292
a((lp2293
S'ST_p_WP'
p2294
aVST_w_w
p2295
aVST_p_w_WP_w
p2296
aS'N0_p_VBZ_IN'
p2297
aVN0_w_i
p2298
aVN0_p_w_VBZ_IN_i
p2299
aS'N0_t_s'
p2300
aS'N0_t_p_s_VBZ_IN'
p2301
aVN0_t_w_s_i
p2302
aVST_p_w_WP_w_N0_p_w_VBZ_IN_i
p2303
aVST_p_w_WP_w_N0_w_i
p2304
aS'ST_t_h_N0_p_VBZ_IN'
p2305
aVST_w_w_N0_t_s
p2306
aS'ST_p_WP_N0_p_VBZ_IN'
p2307
aS'ST_t_h_N0_t_s'
p2308
aS'N1_p_NN_NN'
p2309
aVN1_w_c
p2310
aVN1_p_w_NN_NN_c
p2311
aS'N1_t_u'
p2312
aS'N1_t_p_u_NN_NN'
p2313
aVN1_t_w_u_c
p2314
aS'N0_p_VBZ_IN_N1_p_NN_NN'
p2315
aS'N0_p_VBZ_IN_N1_p_NN_NN_N2_p_NNP_NN'
p2316
aS'N0_w_sN1_p_NN_NN_N2_p_NNP_NN'
p2317
aI0
tp2318
a((lp2319
S'ST_p_VBZ_IN'
p2320
aVST_w_i
p2321
aVST_p_w_VBZ_IN_i
p2322
aS'N0_p_NN_NN'
p2323
aVN0_w_c
p2324
aVN0_p_w_NN_NN_c
p2325
aS'N0_t_u'
p2326
aS'N0_t_p_u_NN_NN'
p2327
aVN0_t_w_u_c
p2328
aVST_p_w_VBZ_IN_i_N0_p_w_NN_NN_c
p2329
aVST_p_w_VBZ_IN_i_N0_w_c
p2330
aS'ST_t_s_N0_p_NN_NN'
p2331
aVST_w_i_N0_t_u
p2332
aS'ST_p_VBZ_IN_N0_p_NN_NN'
p2333
aS'ST_t_s_N0_t_u'
p2334
aS'N1_p_NNP_NN'
p2335
aVN1_w_U
p2336
aVN1_p_w_NNP_NN_U
p2337
aS'N1_t_K'
p2338
aS'N1_t_p_K_NNP_NN'
p2339
aVN1_t_w_K_U
p2340
aS'N0_p_NN_NN_N1_p_NNP_NN'
p2341
aI2
tp2342
a((lp2343
S'ST_p_VBZ_IN'
p2344
aVST_w_i
p2345
aVST_p_w_VBZ_IN_i
p2346
aS'N0_p_NN_NN'
p2347
aVN0_w_c
p2348
aVN0_p_w_NN_NN_c
p2349
aS'N0_t_u'
p2350
aS'N0_t_p_u_NN_NN'
p2351
aVN0_t_w_u_c
p2352
aVST_p_w_VBZ_IN_i_N0_p_w_NN_NN_c
p2353
aVST_p_w_VBZ_IN_i_N0_w_c
p2354
aS'ST_t_s_N0_p_NN_NN'
p2355
aVST_w_i_N0_t_u
p2356
aS'ST_p_VBZ_IN_N0_p_NN_NN'
p2357
aS'ST_t_s_N0_t_u'
p2358
aVAL_c_i
p2359
aS'N1_p_NNP_NN'
p2360
aVN1_w_U
p2361
aVN1_p_w_NNP_NN_U
p2362
aS'N1_t_K'
p2363
aS'N1_t_p_K_NNP_NN'
p2364
aVN1_t_w_K_U
p2365
aS'N0_p_NN_NN_N1_p_NNP_NN'
p2366
aI1
tp2367
a((lp2368
S'ST_p_WP'
p2369
aVST_w_w
p2370
aVST_p_w_WP_w
p2371
aS'N0_p_NN_NN'
p2372
aVN0_w_c
p2373
aVN0_p_w_NN_NN_c
p2374
aS'N0_t_u'
p2375
aS'N0_t_p_u_NN_NN'
p2376
aVN0_t_w_u_c
p2377
aVST_p_w_WP_w_N0_p_w_NN_NN_c
p2378
aVST_p_w_WP_w_N0_w_c
p2379
aS'ST_t_h_N0_p_NN_NN'
p2380
aVST_w_w_N0_t_u
p2381
aS'ST_p_WP_N0_p_NN_NN'
p2382
aS'ST_t_h_N0_t_u'
p2383
aS'N1_p_NNP_NN'
p2384
aVN1_w_U
p2385
aVN1_p_w_NNP_NN_U
p2386
aS'N1_t_K'
p2387
aS'N1_t_p_K_NNP_NN'
p2388
aVN1_t_w_K_U
p2389
aS'N0_p_NN_NN_N1_p_NNP_NN'
p2390
aI3
tp2391
a((lp2392
S'ST_p_WP'
p2393
aVST_w_w
p2394
aVST_p_w_WP_w
p2395
aS'N0_p_NN_NN'
p2396
aVN0_w_c
p2397
aVN0_p_w_NN_NN_c
p2398
aS'N0_t_u'
p2399
aS'N0_t_p_u_NN_NN'
p2400
aVN0_t_w_u_c
p2401
aVST_p_w_WP_w_N0_p_w_NN_NN_c
p2402
aVST_p_w_WP_w_N0_w_c
p2403
aS'ST_t_h_N0_p_NN_NN'
p2404
aVST_w_w_N0_t_u
p2405
aS'ST_p_WP_N0_p_NN_NN'
p2406
aS'ST_t_h_N0_t_u'
p2407
aVAR_w_c
p2408
aS'N1_p_NNP_NN'
p2409
aVN1_w_U
p2410
aVN1_p_w_NNP_NN_U
p2411
aS'N1_t_K'
p2412
aS'N1_t_p_K_NNP_NN'
p2413
aVN1_t_w_K_U
p2414
aS'N0_p_NN_NN_N1_p_NNP_NN'
p2415
aI0
tp2416
a((lp2417
S'ST_p_NN_NN'
p2418
aVST_w_c
p2419
aVST_p_w_NN_NN_c
p2420
aS'N0_p_NNP_NN'
p2421
aVN0_w_U
p2422
aVN0_p_w_NNP_NN_U
p2423
aS'N0_t_K'
p2424
aS'N0_t_p_K_NNP_NN'
p2425
aVN0_t_w_K_U
p2426
aVST_p_w_NN_NN_c_N0_p_w_NNP_NN_U
p2427
aVST_p_w_NN_NN_c_N0_w_U
p2428
aS'ST_t_u_N0_p_NNP_NN'
p2429
aVST_w_c_N0_t_K
p2430
aS'ST_p_NN_NN_N0_p_NNP_NN'
p2431
aS'ST_t_u_N0_t_K'
p2432
aI1
tp2433
a((lp2434
S'ST_p_WP'
p2435
aVST_w_w
p2436
aVST_p_w_WP_w
p2437
aS'N0_p_NNP_NN'
p2438
aVN0_w_U
p2439
aVN0_p_w_NNP_NN_U
p2440
aS'N0_t_K'
p2441
aS'N0_t_p_K_NNP_NN'
p2442
aVN0_t_w_K_U
p2443
aVST_p_w_WP_w_N0_p_w_NNP_NN_U
p2444
aVST_p_w_WP_w_N0_w_U
p2445
aS'ST_t_h_N0_p_NNP_NN'
p2446
aVST_w_w_N0_t_K
p2447
aS'ST_p_WP_N0_p_NNP_NN'
p2448
aS'ST_t_h_N0_t_K'
p2449
aI3
tp2450
a((lp2451
S'ST_p_WP'
p2452
aVST_w_w
p2453
aVST_p_w_WP_w
p2454
aS'N0_p_NNP_NN'
p2455
aVN0_w_U
p2456
aVN0_p_w_NNP_NN_U
p2457
aS'N0_t_K'
p2458
aS'N0_t_p_K_NNP_NN'
p2459
aVN0_t_w_K_U
p2460
aVST_p_w_WP_w_N0_p_w_NNP_NN_U
p2461
aVST_p_w_WP_w_N0_w_U
p2462
aS'ST_t_h_N0_p_NNP_NN'
p2463
aVST_w_w_N0_t_K
p2464
aS'ST_p_WP_N0_p_NNP_NN'
p2465
aS'ST_t_h_N0_t_K'
p2466
aVAR_w_U
p2467
aI1
tp2468
a((lp2469
S'N0_p_NNP_NN'
p2470
aVN0_w_U
p2471
aVN0_p_w_NNP_NN_U
p2472
aS'N0_t_K'
p2473
aS'N0_t_p_K_NNP_NN'
p2474
aVN0_t_w_K_U
p2475
aI0
tp2476
a((lp2477
S'N0_p_WP'
p2478
aVN0_w_w
p2479
aVN0_p_w_WP_w
p2480
aS'N0_t_h'
p2481
aS'N0_t_p_h_WP'
p2482
aVN0_t_w_h_w
p2483
aS'N1_p_DT'
p2484
aVN1_w_s
p2485
aVN1_p_w_DT_s
p2486
aS'N1_t_y'
p2487
aS'N1_t_p_y_DT'
p2488
aVN1_t_w_y_s
p2489
aS'N0_p_WP_N1_p_DT'
p2490
aS'N0_p_WP_N1_p_DT_N2_p_NN'
p2491
aS'N0_w_hN1_p_DT_N2_p_NN'
p2492
aI0
tp2493
a((lp2494
S'ST_p_WP'
p2495
aVST_w_w
p2496
aVST_p_w_WP_w
p2497
aS'N0_p_DT'
p2498
aVN0_w_s
p2499
aVN0_p_w_DT_s
p2500
aS'N0_t_y'
p2501
aS'N0_t_p_y_DT'
p2502
aVN0_t_w_y_s
p2503
aVST_p_w_WP_w_N0_p_w_DT_s
p2504
aVST_p_w_WP_w_N0_w_s
p2505
aS'ST_t_h_N0_p_DT'
p2506
aVST_w_w_N0_t_y
p2507
aS'ST_p_WP_N0_p_DT'
p2508
aS'ST_t_h_N0_t_y'
p2509
aS'N1_p_NN'
p2510
aVN1_w_f
p2511
aVN1_p_w_NN_f
p2512
aS'N1_t_o'
p2513
aS'N1_t_p_o_NN'
p2514
aVN1_t_w_o_f
p2515
aS'N0_p_DT_N1_p_NN'
p2516
aS'N0_p_DT_N1_p_NN_N2_p_IN'
p2517
aS'N0_w_yN1_p_NN_N2_p_IN'
p2518
aI3
tp2519
a((lp2520
S'ST_p_WP'
p2521
aVST_w_w
p2522
aVST_p_w_WP_w
p2523
aS'N0_p_DT'
p2524
aVN0_w_s
p2525
aVN0_p_w_DT_s
p2526
aS'N0_t_y'
p2527
aS'N0_t_p_y_DT'
p2528
aVN0_t_w_y_s
p2529
aVST_p_w_WP_w_N0_p_w_DT_s
p2530
aVST_p_w_WP_w_N0_w_s
p2531
aS'ST_t_h_N0_p_DT'
p2532
aVST_w_w_N0_t_y
p2533
aS'ST_p_WP_N0_p_DT'
p2534
aS'ST_t_h_N0_t_y'
p2535
aVAR_w_s
p2536
aS'N1_p_NN'
p2537
aVN1_w_f
p2538
aVN1_p_w_NN_f
p2539
aS'N1_t_o'
p2540
aS'N1_t_p_o_NN'
p2541
aVN1_t_w_o_f
p2542
aS'N0_p_DT_N1_p_NN'
p2543
aS'N0_p_DT_N1_p_NN_N2_p_IN'
p2544
aS'N0_w_yN1_p_NN_N2_p_IN'
p2545
aI0
tp2546
a((lp2547
S'ST_p_DT'
p2548
aVST_w_s
p2549
aVST_p_w_DT_s
p2550
aS'N0_p_NN'
p2551
aVN0_w_f
p2552
aVN0_p_w_NN_f
p2553
aS'N0_t_o'
p2554
aS'N0_t_p_o_NN'
p2555
aVN0_t_w_o_f
p2556
aVST_p_w_DT_s_N0_p_w_NN_f
p2557
aVST_p_w_DT_s_N0_w_f
p2558
aS'ST_t_y_N0_p_NN'
p2559
aVST_w_s_N0_t_o
p2560
aS'ST_p_DT_N0_p_NN'
p2561
aS'ST_t_y_N0_t_o'
p2562
aS'N1_p_IN'
p2563
aVN1_w_m
p2564
aVN1_p_w_IN_m
p2565
aS'N1_t_e'
p2566
aS'N1_t_p_e_IN'
p2567
aVN1_t_w_e_m
p2568
aS'N0_p_NN_N1_p_IN'
p2569
aI1
tp2570
a((lp2571
S'ST_p_WP'
p2572
aVST_w_w
p2573
aVST_p_w_WP_w
p2574
aS'N0_p_NN'
p2575
aVN0_w_f
p2576
aVN0_p_w_NN_f
p2577
aS'N0_t_o'
p2578
aS'N0_t_p_o_NN'
p2579
aVN0_t_w_o_f
p2580
aVST_p_w_WP_w_N0_p_w_NN_f
p2581
aVST_p_w_WP_w_N0_w_f
p2582
aS'ST_t_h_N0_p_NN'
p2583
aVST_w_w_N0_t_o
p2584
aS'ST_p_WP_N0_p_NN'
p2585
aS'ST_t_h_N0_t_o'
p2586
aS'N1_p_IN'
p2587
aVN1_w_m
p2588
aVN1_p_w_IN_m
p2589
aS'N1_t_e'
p2590
aS'N1_t_p_e_IN'
p2591
aVN1_t_w_e_m
p2592
aS'N0_p_NN_N1_p_IN'
p2593
aI0
tp2594
a((lp2595
S'ST_p_NN'
p2596
aVST_w_f
p2597
aVST_p_w_NN_f
p2598
aS'N0_p_IN'
p2599
aVN0_w_m
p2600
aVN0_p_w_IN_m
p2601
aS'N0_t_e'
p2602
aS'N0_t_p_e_IN'
p2603
aVN0_t_w_e_m
p2604
aVST_p_w_NN_f_N0_p_w_IN_m
p2605
aVST_p_w_NN_f_N0_w_m
p2606
aS'ST_t_o_N0_p_IN'
p2607
aVST_w_f_N0_t_e
p2608
aS'ST_p_NN_N0_p_IN'
p2609
aS'ST_t_o_N0_t_e'
p2610
aI2
tp2611
a((lp2612
S'ST_p_NN'
p2613
aVST_w_f
p2614
aVST_p_w_NN_f
p2615
aS'N0_p_IN'
p2616
aVN0_w_m
p2617
aVN0_p_w_IN_m
p2618
aS'N0_t_e'
p2619
aS'N0_t_p_e_IN'
p2620
aVN0_t_w_e_m
p2621
aVST_p_w_NN_f_N0_p_w_IN_m
p2622
aVST_p_w_NN_f_N0_w_m
p2623
aS'ST_t_o_N0_p_IN'
p2624
aVST_w_f_N0_t_e
p2625
aS'ST_p_NN_N0_p_IN'
p2626
aS'ST_t_o_N0_t_e'
p2627
aVAL_m_f
p2628
aI1
tp2629
a((lp2630
S'ST_p_WP'
p2631
aVST_w_w
p2632
aVST_p_w_WP_w
p2633
aS'N0_p_IN'
p2634
aVN0_w_m
p2635
aVN0_p_w_IN_m
p2636
aS'N0_t_e'
p2637
aS'N0_t_p_e_IN'
p2638
aVN0_t_w_e_m
p2639
aVST_p_w_WP_w_N0_p_w_IN_m
p2640
aVST_p_w_WP_w_N0_w_m
p2641
aS'ST_t_h_N0_p_IN'
p2642
aVST_w_w_N0_t_e
p2643
aS'ST_p_WP_N0_p_IN'
p2644
aS'ST_t_h_N0_t_e'
p2645
aI3
tp2646
a((lp2647
S'ST_p_WP'
p2648
aVST_w_w
p2649
aVST_p_w_WP_w
p2650
aS'N0_p_IN'
p2651
aVN0_w_m
p2652
aVN0_p_w_IN_m
p2653
aS'N0_t_e'
p2654
aS'N0_t_p_e_IN'
p2655
aVN0_t_w_e_m
p2656
aVST_p_w_WP_w_N0_p_w_IN_m
p2657
aVST_p_w_WP_w_N0_w_m
p2658
aS'ST_t_h_N0_p_IN'
p2659
aVST_w_w_N0_t_e
p2660
aS'ST_p_WP_N0_p_IN'
p2661
aS'ST_t_h_N0_t_e'
p2662
aVAR_w_m
p2663
aI1
tp2664
a((lp2665
S'N0_p_IN'
p2666
aVN0_w_m
p2667
aVN0_p_w_IN_m
p2668
aS'N0_t_e'
p2669
aS'N0_t_p_e_IN'
p2670
aVN0_t_w_e_m
p2671
aI0
tp2672
a((lp2673
S'N0_p_WP'
p2674
aVN0_w_w
p2675
aVN0_p_w_WP_w
p2676
aS'N0_t_h'
p2677
aS'N0_t_p_h_WP'
p2678
aVN0_t_w_h_w
p2679
aS'N1_p_VBZ'
p2680
aVN1_w_i
p2681
aVN1_p_w_VBZ_i
p2682
aS'N1_t_s'
p2683
aS'N1_t_p_s_VBZ'
p2684
aVN1_t_w_s_i
p2685
aS'N0_p_WP_N1_p_VBZ'
p2686
aS'N0_p_WP_N1_p_VBZ_N2_p_NNP_NNP'
p2687
aS'N0_w_hN1_p_VBZ_N2_p_NNP_NNP'
p2688
aI0
tp2689
a((lp2690
S'ST_p_WP'
p2691
aVST_w_w
p2692
aVST_p_w_WP_w
p2693
aS'N0_p_VBZ'
p2694
aVN0_w_i
p2695
aVN0_p_w_VBZ_i
p2696
aS'N0_t_s'
p2697
aS'N0_t_p_s_VBZ'
p2698
aVN0_t_w_s_i
p2699
aVST_p_w_WP_w_N0_p_w_VBZ_i
p2700
aVST_p_w_WP_w_N0_w_i
p2701
aS'ST_t_h_N0_p_VBZ'
p2702
aVST_w_w_N0_t_s
p2703
aS'ST_p_WP_N0_p_VBZ'
p2704
aS'ST_t_h_N0_t_s'
p2705
aS'N1_p_NNP_NNP'
p2706
aVN1_w_J
p2707
aVN1_p_w_NNP_NNP_J
p2708
aS'N1_t_e'
p2709
aS'N1_t_p_e_NNP_NNP'
p2710
aVN1_t_w_e_J
p2711
aS'N0_p_VBZ_N1_p_NNP_NNP'
p2712
aS'N0_p_VBZ_N1_p_NNP_NNP_N2_p_NN'
p2713
aS'N0_w_sN1_p_NNP_NNP_N2_p_NN'
p2714
aI0
tp2715
a((lp2716
S'ST_p_VBZ'
p2717
aVST_w_i
p2718
aVST_p_w_VBZ_i
p2719
aS'N0_p_NNP_NNP'
p2720
aVN0_w_J
p2721
aVN0_p_w_NNP_NNP_J
p2722
aS'N0_t_e'
p2723
aS'N0_t_p_e_NNP_NNP'
p2724
aVN0_t_w_e_J
p2725
aVST_p_w_VBZ_i_N0_p_w_NNP_NNP_J
p2726
aVST_p_w_VBZ_i_N0_w_J
p2727
aS'ST_t_s_N0_p_NNP_NNP'
p2728
aVST_w_i_N0_t_e
p2729
aS'ST_p_VBZ_N0_p_NNP_NNP'
p2730
aS'ST_t_s_N0_t_e'
p2731
aS'N1_p_NN'
p2732
aVN1_w_r
p2733
aVN1_p_w_NN_r
p2734
aS'N1_t_e'
p2735
aS'N1_t_p_e_NN'
p2736
aVN1_t_w_e_r
p2737
aS'N0_p_NNP_NNP_N1_p_NN'
p2738
aI2
tp2739
a((lp2740
S'ST_p_VBZ'
p2741
aVST_w_i
p2742
aVST_p_w_VBZ_i
p2743
aS'N0_p_NNP_NNP'
p2744
aVN0_w_J
p2745
aVN0_p_w_NNP_NNP_J
p2746
aS'N0_t_e'
p2747
aS'N0_t_p_e_NNP_NNP'
p2748
aVN0_t_w_e_J
p2749
aVST_p_w_VBZ_i_N0_p_w_NNP_NNP_J
p2750
aVST_p_w_VBZ_i_N0_w_J
p2751
aS'ST_t_s_N0_p_NNP_NNP'
p2752
aVST_w_i_N0_t_e
p2753
aS'ST_p_VBZ_N0_p_NNP_NNP'
p2754
aS'ST_t_s_N0_t_e'
p2755
aVAL_J_i
p2756
aS'N1_p_NN'
p2757
aVN1_w_r
p2758
aVN1_p_w_NN_r
p2759
aS'N1_t_e'
p2760
aS'N1_t_p_e_NN'
p2761
aVN1_t_w_e_r
p2762
aS'N0_p_NNP_NNP_N1_p_NN'
p2763
aI1
tp2764
a((lp2765
S'ST_p_WP'
p2766
aVST_w_w
p2767
aVST_p_w_WP_w
p2768
aS'N0_p_NNP_NNP'
p2769
aVN0_w_J
p2770
aVN0_p_w_NNP_NNP_J
p2771
aS'N0_t_e'
p2772
aS'N0_t_p_e_NNP_NNP'
p2773
aVN0_t_w_e_J
p2774
aVST_p_w_WP_w_N0_p_w_NNP_NNP_J
p2775
aVST_p_w_WP_w_N0_w_J
p2776
aS'ST_t_h_N0_p_NNP_NNP'
p2777
aVST_w_w_N0_t_e
p2778
aS'ST_p_WP_N0_p_NNP_NNP'
p2779
aS'ST_t_h_N0_t_e'
p2780
aS'N1_p_NN'
p2781
aVN1_w_r
p2782
aVN1_p_w_NN_r
p2783
aS'N1_t_e'
p2784
aS'N1_t_p_e_NN'
p2785
aVN1_t_w_e_r
p2786
aS'N0_p_NNP_NNP_N1_p_NN'
p2787
aI3
tp2788
a((lp2789
S'ST_p_WP'
p2790
aVST_w_w
p2791
aVST_p_w_WP_w
p2792
aS'N0_p_NNP_NNP'
p2793
aVN0_w_J
p2794
aVN0_p_w_NNP_NNP_J
p2795
aS'N0_t_e'
p2796
aS'N0_t_p_e_NNP_NNP'
p2797
aVN0_t_w_e_J
p2798
aVST_p_w_WP_w_N0_p_w_NNP_NNP_J
p2799
aVST_p_w_WP_w_N0_w_J
p2800
aS'ST_t_h_N0_p_NNP_NNP'
p2801
aVST_w_w_N0_t_e
p2802
aS'ST_p_WP_N0_p_NNP_NNP'
p2803
aS'ST_t_h_N0_t_e'
p2804
aVAR_w_J
p2805
aS'N1_p_NN'
p2806
aVN1_w_r
p2807
aVN1_p_w_NN_r
p2808
aS'N1_t_e'
p2809
aS'N1_t_p_e_NN'
p2810
aVN1_t_w_e_r
p2811
aS'N0_p_NNP_NNP_N1_p_NN'
p2812
aI0
tp2813
a((lp2814
S'ST_p_NNP_NNP'
p2815
aVST_w_J
p2816
aVST_p_w_NNP_NNP_J
p2817
aS'N0_p_NN'
p2818
aVN0_w_r
p2819
aVN0_p_w_NN_r
p2820
aS'N0_t_e'
p2821
aS'N0_t_p_e_NN'
p2822
aVN0_t_w_e_r
p2823
aVST_p_w_NNP_NNP_J_N0_p_w_NN_r
p2824
aVST_p_w_NNP_NNP_J_N0_w_r
p2825
aS'ST_t_e_N0_p_NN'
p2826
aVST_w_J_N0_t_e
p2827
aS'ST_p_NNP_NNP_N0_p_NN'
p2828
aS'ST_t_e_N0_t_e'
p2829
aI1
tp2830
a((lp2831
S'ST_p_WP'
p2832
aVST_w_w
p2833
aVST_p_w_WP_w
p2834
aS'N0_p_NN'
p2835
aVN0_w_r
p2836
aVN0_p_w_NN_r
p2837
aS'N0_t_e'
p2838
aS'N0_t_p_e_NN'
p2839
aVN0_t_w_e_r
p2840
aVST_p_w_WP_w_N0_p_w_NN_r
p2841
aVST_p_w_WP_w_N0_w_r
p2842
aS'ST_t_h_N0_p_NN'
p2843
aVST_w_w_N0_t_e
p2844
aS'ST_p_WP_N0_p_NN'
p2845
aS'ST_t_h_N0_t_e'
p2846
aI3
tp2847
a((lp2848
S'ST_p_WP'
p2849
aVST_w_w
p2850
aVST_p_w_WP_w
p2851
aS'N0_p_NN'
p2852
aVN0_w_r
p2853
aVN0_p_w_NN_r
p2854
aS'N0_t_e'
p2855
aS'N0_t_p_e_NN'
p2856
aVN0_t_w_e_r
p2857
aVST_p_w_WP_w_N0_p_w_NN_r
p2858
aVST_p_w_WP_w_N0_w_r
p2859
aS'ST_t_h_N0_p_NN'
p2860
aVST_w_w_N0_t_e
p2861
aS'ST_p_WP_N0_p_NN'
p2862
aS'ST_t_h_N0_t_e'
p2863
aVAR_w_r
p2864
aI1
tp2865
a((lp2866
S'N0_p_NN'
p2867
aVN0_w_r
p2868
aVN0_p_w_NN_r
p2869
aS'N0_t_e'
p2870
aS'N0_t_p_e_NN'
p2871
aVN0_t_w_e_r
p2872
aI0
tp2873
a((lp2874
S'N0_p_WRB_JJ'
p2875
aVN0_w_h
p2876
aVN0_p_w_WRB_JJ_h
p2877
aS'N0_t_o'
p2878
aS'N0_t_p_o_WRB_JJ'
p2879
aVN0_t_w_o_h
p2880
aS'N1_p_NNS'
p2881
aVN1_w_r
p2882
aVN1_p_w_NNS_r
p2883
aS'N1_t_e'
p2884
aS'N1_t_p_e_NNS'
p2885
aVN1_t_w_e_r
p2886
aS'N0_p_WRB_JJ_N1_p_NNS'
p2887
aS'N0_p_WRB_JJ_N1_p_NNS_N2_p_VBP'
p2888
aS'N0_w_oN1_p_NNS_N2_p_VBP'
p2889
aI0
tp2890
a((lp2891
S'ST_p_WRB_JJ'
p2892
aVST_w_h
p2893
aVST_p_w_WRB_JJ_h
p2894
aS'N0_p_NNS'
p2895
aVN0_w_r
p2896
aVN0_p_w_NNS_r
p2897
aS'N0_t_e'
p2898
aS'N0_t_p_e_NNS'
p2899
aVN0_t_w_e_r
p2900
aVST_p_w_WRB_JJ_h_N0_p_w_NNS_r
p2901
aVST_p_w_WRB_JJ_h_N0_w_r
p2902
aS'ST_t_o_N0_p_NNS'
p2903
aVST_w_h_N0_t_e
p2904
aS'ST_p_WRB_JJ_N0_p_NNS'
p2905
aS'ST_t_o_N0_t_e'
p2906
aS'N1_p_VBP'
p2907
aVN1_w_u
p2908
aVN1_p_w_VBP_u
p2909
aS'N1_t_s'
p2910
aS'N1_t_p_s_VBP'
p2911
aVN1_t_w_s_u
p2912
aS'N0_p_NNS_N1_p_VBP'
p2913
aS'N0_p_NNS_N1_p_VBP_N2_p_NN'
p2914
aS'N0_w_eN1_p_VBP_N2_p_NN'
p2915
aI2
tp2916
a((lp2917
S'ST_p_WRB_JJ'
p2918
aVST_w_h
p2919
aVST_p_w_WRB_JJ_h
p2920
aS'N0_p_NNS'
p2921
aVN0_w_r
p2922
aVN0_p_w_NNS_r
p2923
aS'N0_t_e'
p2924
aS'N0_t_p_e_NNS'
p2925
aVN0_t_w_e_r
p2926
aVST_p_w_WRB_JJ_h_N0_p_w_NNS_r
p2927
aVST_p_w_WRB_JJ_h_N0_w_r
p2928
aS'ST_t_o_N0_p_NNS'
p2929
aVST_w_h_N0_t_e
p2930
aS'ST_p_WRB_JJ_N0_p_NNS'
p2931
aS'ST_t_o_N0_t_e'
p2932
aVAL_r_h
p2933
aS'N1_p_VBP'
p2934
aVN1_w_u
p2935
aVN1_p_w_VBP_u
p2936
aS'N1_t_s'
p2937
aS'N1_t_p_s_VBP'
p2938
aVN1_t_w_s_u
p2939
aS'N0_p_NNS_N1_p_VBP'
p2940
aS'N0_p_NNS_N1_p_VBP_N2_p_NN'
p2941
aS'N0_w_eN1_p_VBP_N2_p_NN'
p2942
aI1
tp2943
a((lp2944
S'N0_p_NNS'
p2945
aVN0_w_r
p2946
aVN0_p_w_NNS_r
p2947
aS'N0_t_e'
p2948
aS'N0_t_p_e_NNS'
p2949
aVN0_t_w_e_r
p2950
aS'N1_p_VBP'
p2951
aVN1_w_u
p2952
aVN1_p_w_VBP_u
p2953
aS'N1_t_s'
p2954
aS'N1_t_p_s_VBP'
p2955
aVN1_t_w_s_u
p2956
aS'N0_p_NNS_N1_p_VBP'
p2957
aS'N0_p_NNS_N1_p_VBP_N2_p_NN'
p2958
aS'N0_w_eN1_p_VBP_N2_p_NN'
p2959
aI0
tp2960
a((lp2961
S'ST_p_NNS'
p2962
aVST_w_r
p2963
aVST_p_w_NNS_r
p2964
aS'N0_p_VBP'
p2965
aVN0_w_u
p2966
aVN0_p_w_VBP_u
p2967
aS'N0_t_s'
p2968
aS'N0_t_p_s_VBP'
p2969
aVN0_t_w_s_u
p2970
aVST_p_w_NNS_r_N0_p_w_VBP_u
p2971
aVST_p_w_NNS_r_N0_w_u
p2972
aS'ST_t_e_N0_p_VBP'
p2973
aVST_w_r_N0_t_s
p2974
aS'ST_p_NNS_N0_p_VBP'
p2975
aS'ST_t_e_N0_t_s'
p2976
aS'N1_p_NN'
p2977
aVN1_w_b
p2978
aVN1_p_w_NN_b
p2979
aS'N1_t_i'
p2980
aS'N1_t_p_i_NN'
p2981
aVN1_t_w_i_b
p2982
aS'N0_p_VBP_N1_p_NN'
p2983
aI0
tp2984
a((lp2985
S'ST_p_VBP'
p2986
aVST_w_u
p2987
aVST_p_w_VBP_u
p2988
aS'N0_p_NN'
p2989
aVN0_w_b
p2990
aVN0_p_w_NN_b
p2991
aS'N0_t_i'
p2992
aS'N0_t_p_i_NN'
p2993
aVN0_t_w_i_b
p2994
aVST_p_w_VBP_u_N0_p_w_NN_b
p2995
aVST_p_w_VBP_u_N0_w_b
p2996
aS'ST_t_s_N0_p_NN'
p2997
aVST_w_u_N0_t_i
p2998
aS'ST_p_VBP_N0_p_NN'
p2999
aS'ST_t_s_N0_t_i'
p3000
aI2
tp3001
a((lp3002
S'ST_p_VBP'
p3003
aVST_w_u
p3004
aVST_p_w_VBP_u
p3005
aS'N0_p_NN'
p3006
aVN0_w_b
p3007
aVN0_p_w_NN_b
p3008
aS'N0_t_i'
p3009
aS'N0_t_p_i_NN'
p3010
aVN0_t_w_i_b
p3011
aVST_p_w_VBP_u_N0_p_w_NN_b
p3012
aVST_p_w_VBP_u_N0_w_b
p3013
aS'ST_t_s_N0_p_NN'
p3014
aVST_w_u_N0_t_i
p3015
aS'ST_p_VBP_N0_p_NN'
p3016
aS'ST_t_s_N0_t_i'
p3017
aVAL_b_u
p3018
aI1
tp3019
a((lp3020
S'ST_p_NNS'
p3021
aVST_w_r
p3022
aVST_p_w_NNS_r
p3023
aS'N0_p_NN'
p3024
aVN0_w_b
p3025
aVN0_p_w_NN_b
p3026
aS'N0_t_i'
p3027
aS'N0_t_p_i_NN'
p3028
aVN0_t_w_i_b
p3029
aVST_p_w_NNS_r_N0_p_w_NN_b
p3030
aVST_p_w_NNS_r_N0_w_b
p3031
aS'ST_t_e_N0_p_NN'
p3032
aVST_w_r_N0_t_i
p3033
aS'ST_p_NNS_N0_p_NN'
p3034
aS'ST_t_e_N0_t_i'
p3035
aI3
tp3036
a((lp3037
S'ST_p_NNS'
p3038
aVST_w_r
p3039
aVST_p_w_NNS_r
p3040
aS'N0_p_NN'
p3041
aVN0_w_b
p3042
aVN0_p_w_NN_b
p3043
aS'N0_t_i'
p3044
aS'N0_t_p_i_NN'
p3045
aVN0_t_w_i_b
p3046
aVST_p_w_NNS_r_N0_p_w_NN_b
p3047
aVST_p_w_NNS_r_N0_w_b
p3048
aS'ST_t_e_N0_p_NN'
p3049
aVST_w_r_N0_t_i
p3050
aS'ST_p_NNS_N0_p_NN'
p3051
aS'ST_t_e_N0_t_i'
p3052
aVAR_r_b
p3053
aI1
tp3054
a((lp3055
S'N0_p_NN'
p3056
aVN0_w_b
p3057
aVN0_p_w_NN_b
p3058
aS'N0_t_i'
p3059
aS'N0_t_p_i_NN'
p3060
aVN0_t_w_i_b
p3061
aI0
tp3062
a((lp3063
S'N0_p_WP'
p3064
aVN0_w_w
p3065
aVN0_p_w_WP_w
p3066
aS'N0_t_h'
p3067
aS'N0_t_p_h_WP'
p3068
aVN0_t_w_h_w
p3069
aS'N1_p_VBZ'
p3070
aVN1_w_i
p3071
aVN1_p_w_VBZ_i
p3072
aS'N1_t_s'
p3073
aS'N1_t_p_s_VBZ'
p3074
aVN1_t_w_s_i
p3075
aS'N0_p_WP_N1_p_VBZ'
p3076
aS'N0_p_WP_N1_p_VBZ_N2_p_NN_IN'
p3077
aS'N0_w_hN1_p_VBZ_N2_p_NN_IN'
p3078
aI0
tp3079
a((lp3080
S'ST_p_WP'
p3081
aVST_w_w
p3082
aVST_p_w_WP_w
p3083
aS'N0_p_VBZ'
p3084
aVN0_w_i
p3085
aVN0_p_w_VBZ_i
p3086
aS'N0_t_s'
p3087
aS'N0_t_p_s_VBZ'
p3088
aVN0_t_w_s_i
p3089
aVST_p_w_WP_w_N0_p_w_VBZ_i
p3090
aVST_p_w_WP_w_N0_w_i
p3091
aS'ST_t_h_N0_p_VBZ'
p3092
aVST_w_w_N0_t_s
p3093
aS'ST_p_WP_N0_p_VBZ'
p3094
aS'ST_t_h_N0_t_s'
p3095
aS'N1_p_NN_IN'
p3096
aVN1_w_c
p3097
aVN1_p_w_NN_IN_c
p3098
aS'N1_t_a'
p3099
aS'N1_t_p_a_NN_IN'
p3100
aVN1_t_w_a_c
p3101
aS'N0_p_VBZ_N1_p_NN_IN'
p3102
aS'N0_p_VBZ_N1_p_NN_IN_N2_p_NNP'
p3103
aS'N0_w_sN1_p_NN_IN_N2_p_NNP'
p3104
aI0
tp3105
a((lp3106
S'ST_p_VBZ'
p3107
aVST_w_i
p3108
aVST_p_w_VBZ_i
p3109
aS'N0_p_NN_IN'
p3110
aVN0_w_c
p3111
aVN0_p_w_NN_IN_c
p3112
aS'N0_t_a'
p3113
aS'N0_t_p_a_NN_IN'
p3114
aVN0_t_w_a_c
p3115
aVST_p_w_VBZ_i_N0_p_w_NN_IN_c
p3116
aVST_p_w_VBZ_i_N0_w_c
p3117
aS'ST_t_s_N0_p_NN_IN'
p3118
aVST_w_i_N0_t_a
p3119
aS'ST_p_VBZ_N0_p_NN_IN'
p3120
aS'ST_t_s_N0_t_a'
p3121
aS'N1_p_NNP'
p3122
aVN1_w_I
p3123
aVN1_p_w_NNP_I
p3124
aS'N1_t_c'
p3125
aS'N1_t_p_c_NNP'
p3126
aVN1_t_w_c_I
p3127
aS'N0_p_NN_IN_N1_p_NNP'
p3128
aI2
tp3129
a((lp3130
S'ST_p_VBZ'
p3131
aVST_w_i
p3132
aVST_p_w_VBZ_i
p3133
aS'N0_p_NN_IN'
p3134
aVN0_w_c
p3135
aVN0_p_w_NN_IN_c
p3136
aS'N0_t_a'
p3137
aS'N0_t_p_a_NN_IN'
p3138
aVN0_t_w_a_c
p3139
aVST_p_w_VBZ_i_N0_p_w_NN_IN_c
p3140
aVST_p_w_VBZ_i_N0_w_c
p3141
aS'ST_t_s_N0_p_NN_IN'
p3142
aVST_w_i_N0_t_a
p3143
aS'ST_p_VBZ_N0_p_NN_IN'
p3144
aS'ST_t_s_N0_t_a'
p3145
aVAL_c_i
p3146
aS'N1_p_NNP'
p3147
aVN1_w_I
p3148
aVN1_p_w_NNP_I
p3149
aS'N1_t_c'
p3150
aS'N1_t_p_c_NNP'
p3151
aVN1_t_w_c_I
p3152
aS'N0_p_NN_IN_N1_p_NNP'
p3153
aI1
tp3154
a((lp3155
S'ST_p_WP'
p3156
aVST_w_w
p3157
aVST_p_w_WP_w
p3158
aS'N0_p_NN_IN'
p3159
aVN0_w_c
p3160
aVN0_p_w_NN_IN_c
p3161
aS'N0_t_a'
p3162
aS'N0_t_p_a_NN_IN'
p3163
aVN0_t_w_a_c
p3164
aVST_p_w_WP_w_N0_p_w_NN_IN_c
p3165
aVST_p_w_WP_w_N0_w_c
p3166
aS'ST_t_h_N0_p_NN_IN'
p3167
aVST_w_w_N0_t_a
p3168
aS'ST_p_WP_N0_p_NN_IN'
p3169
aS'ST_t_h_N0_t_a'
p3170
aS'N1_p_NNP'
p3171
aVN1_w_I
p3172
aVN1_p_w_NNP_I
p3173
aS'N1_t_c'
p3174
aS'N1_t_p_c_NNP'
p3175
aVN1_t_w_c_I
p3176
aS'N0_p_NN_IN_N1_p_NNP'
p3177
aI3
tp3178
a((lp3179
S'ST_p_WP'
p3180
aVST_w_w
p3181
aVST_p_w_WP_w
p3182
aS'N0_p_NN_IN'
p3183
aVN0_w_c
p3184
aVN0_p_w_NN_IN_c
p3185
aS'N0_t_a'
p3186
aS'N0_t_p_a_NN_IN'
p3187
aVN0_t_w_a_c
p3188
aVST_p_w_WP_w_N0_p_w_NN_IN_c
p3189
aVST_p_w_WP_w_N0_w_c
p3190
aS'ST_t_h_N0_p_NN_IN'
p3191
aVST_w_w_N0_t_a
p3192
aS'ST_p_WP_N0_p_NN_IN'
p3193
aS'ST_t_h_N0_t_a'
p3194
aVAR_w_c
p3195
aS'N1_p_NNP'
p3196
aVN1_w_I
p3197
aVN1_p_w_NNP_I
p3198
aS'N1_t_c'
p3199
aS'N1_t_p_c_NNP'
p3200
aVN1_t_w_c_I
p3201
aS'N0_p_NN_IN_N1_p_NNP'
p3202
aI0
tp3203
a((lp3204
S'ST_p_NN_IN'
p3205
aVST_w_c
p3206
aVST_p_w_NN_IN_c
p3207
aS'N0_p_NNP'
p3208
aVN0_w_I
p3209
aVN0_p_w_NNP_I
p3210
aS'N0_t_c'
p3211
aS'N0_t_p_c_NNP'
p3212
aVN0_t_w_c_I
p3213
aVST_p_w_NN_IN_c_N0_p_w_NNP_I
p3214
aVST_p_w_NN_IN_c_N0_w_I
p3215
aS'ST_t_a_N0_p_NNP'
p3216
aVST_w_c_N0_t_c
p3217
aS'ST_p_NN_IN_N0_p_NNP'
p3218
aS'ST_t_a_N0_t_c'
p3219
aI1
tp3220
a((lp3221
S'ST_p_WP'
p3222
aVST_w_w
p3223
aVST_p_w_WP_w
p3224
aS'N0_p_NNP'
p3225
aVN0_w_I
p3226
aVN0_p_w_NNP_I
p3227
aS'N0_t_c'
p3228
aS'N0_t_p_c_NNP'
p3229
aVN0_t_w_c_I
p3230
aVST_p_w_WP_w_N0_p_w_NNP_I
p3231
aVST_p_w_WP_w_N0_w_I
p3232
aS'ST_t_h_N0_p_NNP'
p3233
aVST_w_w_N0_t_c
p3234
aS'ST_p_WP_N0_p_NNP'
p3235
aS'ST_t_h_N0_t_c'
p3236
aI3
tp3237
a((lp3238
S'ST_p_WP'
p3239
aVST_w_w
p3240
aVST_p_w_WP_w
p3241
aS'N0_p_NNP'
p3242
aVN0_w_I
p3243
aVN0_p_w_NNP_I
p3244
aS'N0_t_c'
p3245
aS'N0_t_p_c_NNP'
p3246
aVN0_t_w_c_I
p3247
aVST_p_w_WP_w_N0_p_w_NNP_I
p3248
aVST_p_w_WP_w_N0_w_I
p3249
aS'ST_t_h_N0_p_NNP'
p3250
aVST_w_w_N0_t_c
p3251
aS'ST_p_WP_N0_p_NNP'
p3252
aS'ST_t_h_N0_t_c'
p3253
aVAR_w_I
p3254
aI1
tp3255
a((lp3256
S'N0_p_NNP'
p3257
aVN0_w_I
p3258
aVN0_p_w_NNP_I
p3259
aS'N0_t_c'
p3260
aS'N0_t_p_c_NNP'
p3261
aVN0_t_w_c_I
p3262
aI0
tp3263
a((lp3264
S'N0_p_WP'
p3265
aVN0_w_w
p3266
aVN0_p_w_WP_w
p3267
aS'N0_t_h'
p3268
aS'N0_t_p_h_WP'
p3269
aVN0_t_w_h_w
p3270
aS'N1_p_JJ_NN'
p3271
aVN1_w_p
p3272
aVN1_p_w_JJ_NN_p
p3273
aS'N1_t_u'
p3274
aS'N1_t_p_u_JJ_NN'
p3275
aVN1_t_w_u_p
p3276
aS'N0_p_WP_N1_p_JJ_NN'
p3277
aS'N0_p_WP_N1_p_JJ_NN_N2_p_VBZ_RB_IN'
p3278
aS'N0_w_hN1_p_JJ_NN_N2_p_VBZ_RB_IN'
p3279
aI0
tp3280
a((lp3281
S'ST_p_WP'
p3282
aVST_w_w
p3283
aVST_p_w_WP_w
p3284
aS'N0_p_JJ_NN'
p3285
aVN0_w_p
p3286
aVN0_p_w_JJ_NN_p
p3287
aS'N0_t_u'
p3288
aS'N0_t_p_u_JJ_NN'
p3289
aVN0_t_w_u_p
p3290
aVST_p_w_WP_w_N0_p_w_JJ_NN_p
p3291
aVST_p_w_WP_w_N0_w_p
p3292
aS'ST_t_h_N0_p_JJ_NN'
p3293
aVST_w_w_N0_t_u
p3294
aS'ST_p_WP_N0_p_JJ_NN'
p3295
aS'ST_t_h_N0_t_u'
p3296
aS'N1_p_VBZ_RB_IN'
p3297
aVN1_w_i
p3298
aVN1_p_w_VBZ_RB_IN_i
p3299
aS'N1_t_s'
p3300
aS'N1_t_p_s_VBZ_RB_IN'
p3301
aVN1_t_w_s_i
p3302
aS'N0_p_JJ_NN_N1_p_VBZ_RB_IN'
p3303
aS'N0_p_JJ_NN_N1_p_VBZ_RB_IN_N2_p_NNP'
p3304
aS'N0_w_uN1_p_VBZ_RB_IN_N2_p_NNP'
p3305
aI3
tp3306
a((lp3307
S'ST_p_WP'
p3308
aVST_w_w
p3309
aVST_p_w_WP_w
p3310
aS'N0_p_JJ_NN'
p3311
aVN0_w_p
p3312
aVN0_p_w_JJ_NN_p
p3313
aS'N0_t_u'
p3314
aS'N0_t_p_u_JJ_NN'
p3315
aVN0_t_w_u_p
p3316
aVST_p_w_WP_w_N0_p_w_JJ_NN_p
p3317
aVST_p_w_WP_w_N0_w_p
p3318
aS'ST_t_h_N0_p_JJ_NN'
p3319
aVST_w_w_N0_t_u
p3320
aS'ST_p_WP_N0_p_JJ_NN'
p3321
aS'ST_t_h_N0_t_u'
p3322
aVAR_w_p
p3323
aS'N1_p_VBZ_RB_IN'
p3324
aVN1_w_i
p3325
aVN1_p_w_VBZ_RB_IN_i
p3326
aS'N1_t_s'
p3327
aS'N1_t_p_s_VBZ_RB_IN'
p3328
aVN1_t_w_s_i
p3329
aS'N0_p_JJ_NN_N1_p_VBZ_RB_IN'
p3330
aS'N0_p_JJ_NN_N1_p_VBZ_RB_IN_N2_p_NNP'
p3331
aS'N0_w_uN1_p_VBZ_RB_IN_N2_p_NNP'
p3332
aI0
tp3333
a((lp3334
S'ST_p_JJ_NN'
p3335
aVST_w_p
p3336
aVST_p_w_JJ_NN_p
p3337
aS'N0_p_VBZ_RB_IN'
p3338
aVN0_w_i
p3339
aVN0_p_w_VBZ_RB_IN_i
p3340
aS'N0_t_s'
p3341
aS'N0_t_p_s_VBZ_RB_IN'
p3342
aVN0_t_w_s_i
p3343
aVST_p_w_JJ_NN_p_N0_p_w_VBZ_RB_IN_i
p3344
aVST_p_w_JJ_NN_p_N0_w_i
p3345
aS'ST_t_u_N0_p_VBZ_RB_IN'
p3346
aVST_w_p_N0_t_s
p3347
aS'ST_p_JJ_NN_N0_p_VBZ_RB_IN'
p3348
aS'ST_t_u_N0_t_s'
p3349
aS'N1_p_NNP'
p3350
aVN1_w_T
p3351
aVN1_p_w_NNP_T
p3352
aS'N1_t_o'
p3353
aS'N1_t_p_o_NNP'
p3354
aVN1_t_w_o_T
p3355
aS'N0_p_VBZ_RB_IN_N1_p_NNP'
p3356
aI1
tp3357
a((lp3358
S'ST_p_WP'
p3359
aVST_w_w
p3360
aVST_p_w_WP_w
p3361
aS'N0_p_VBZ_RB_IN'
p3362
aVN0_w_i
p3363
aVN0_p_w_VBZ_RB_IN_i
p3364
aS'N0_t_s'
p3365
aS'N0_t_p_s_VBZ_RB_IN'
p3366
aVN0_t_w_s_i
p3367
aVST_p_w_WP_w_N0_p_w_VBZ_RB_IN_i
p3368
aVST_p_w_WP_w_N0_w_i
p3369
aS'ST_t_h_N0_p_VBZ_RB_IN'
p3370
aVST_w_w_N0_t_s
p3371
aS'ST_p_WP_N0_p_VBZ_RB_IN'
p3372
aS'ST_t_h_N0_t_s'
p3373
aS'N1_p_NNP'
p3374
aVN1_w_T
p3375
aVN1_p_w_NNP_T
p3376
aS'N1_t_o'
p3377
aS'N1_t_p_o_NNP'
p3378
aVN1_t_w_o_T
p3379
aS'N0_p_VBZ_RB_IN_N1_p_NNP'
p3380
aI0
tp3381
a((lp3382
S'ST_p_VBZ_RB_IN'
p3383
aVST_w_i
p3384
aVST_p_w_VBZ_RB_IN_i
p3385
aS'N0_p_NNP'
p3386
aVN0_w_T
p3387
aVN0_p_w_NNP_T
p3388
aS'N0_t_o'
p3389
aS'N0_t_p_o_NNP'
p3390
aVN0_t_w_o_T
p3391
aVST_p_w_VBZ_RB_IN_i_N0_p_w_NNP_T
p3392
aVST_p_w_VBZ_RB_IN_i_N0_w_T
p3393
aS'ST_t_s_N0_p_NNP'
p3394
aVST_w_i_N0_t_o
p3395
aS'ST_p_VBZ_RB_IN_N0_p_NNP'
p3396
aS'ST_t_s_N0_t_o'
p3397
aI2
tp3398
a((lp3399
S'ST_p_VBZ_RB_IN'
p3400
aVST_w_i
p3401
aVST_p_w_VBZ_RB_IN_i
p3402
aS'N0_p_NNP'
p3403
aVN0_w_T
p3404
aVN0_p_w_NNP_T
p3405
aS'N0_t_o'
p3406
aS'N0_t_p_o_NNP'
p3407
aVN0_t_w_o_T
p3408
aVST_p_w_VBZ_RB_IN_i_N0_p_w_NNP_T
p3409
aVST_p_w_VBZ_RB_IN_i_N0_w_T
p3410
aS'ST_t_s_N0_p_NNP'
p3411
aVST_w_i_N0_t_o
p3412
aS'ST_p_VBZ_RB_IN_N0_p_NNP'
p3413
aS'ST_t_s_N0_t_o'
p3414
aVAL_T_i
p3415
aI1
tp3416
a((lp3417
S'ST_p_WP'
p3418
aVST_w_w
p3419
aVST_p_w_WP_w
p3420
aS'N0_p_NNP'
p3421
aVN0_w_T
p3422
aVN0_p_w_NNP_T
p3423
aS'N0_t_o'
p3424
aS'N0_t_p_o_NNP'
p3425
aVN0_t_w_o_T
p3426
aVST_p_w_WP_w_N0_p_w_NNP_T
p3427
aVST_p_w_WP_w_N0_w_T
p3428
aS'ST_t_h_N0_p_NNP'
p3429
aVST_w_w_N0_t_o
p3430
aS'ST_p_WP_N0_p_NNP'
p3431
aS'ST_t_h_N0_t_o'
p3432
aI3
tp3433
a((lp3434
S'ST_p_WP'
p3435
aVST_w_w
p3436
aVST_p_w_WP_w
p3437
aS'N0_p_NNP'
p3438
aVN0_w_T
p3439
aVN0_p_w_NNP_T
p3440
aS'N0_t_o'
p3441
aS'N0_t_p_o_NNP'
p3442
aVN0_t_w_o_T
p3443
aVST_p_w_WP_w_N0_p_w_NNP_T
p3444
aVST_p_w_WP_w_N0_w_T
p3445
aS'ST_t_h_N0_p_NNP'
p3446
aVST_w_w_N0_t_o
p3447
aS'ST_p_WP_N0_p_NNP'
p3448
aS'ST_t_h_N0_t_o'
p3449
aVAR_w_T
p3450
aI1
tp3451
a((lp3452
S'N0_p_NNP'
p3453
aVN0_w_T
p3454
aVN0_p_w_NNP_T
p3455
aS'N0_t_o'
p3456
aS'N0_t_p_o_NNP'
p3457
aVN0_t_w_o_T
p3458
aI0
tp3459
a((lp3460
S'N0_p_WP'
p3461
aVN0_w_w
p3462
aVN0_p_w_WP_w
p3463
aS'N0_t_h'
p3464
aS'N0_t_p_h_WP'
p3465
aVN0_t_w_h_w
p3466
aS'N1_p_VBZ_IN'
p3467
aVN1_w_i
p3468
aVN1_p_w_VBZ_IN_i
p3469
aS'N1_t_s'
p3470
aS'N1_t_p_s_VBZ_IN'
p3471
aVN1_t_w_s_i
p3472
aS'N0_p_WP_N1_p_VBZ_IN'
p3473
aS'N0_p_WP_N1_p_VBZ_IN_N2_p_NN_NN'
p3474
aS'N0_w_hN1_p_VBZ_IN_N2_p_NN_NN'
p3475
aI0
tp3476
a((lp3477
S'ST_p_WP'
p3478
aVST_w_w
p3479
aVST_p_w_WP_w
p3480
aS'N0_p_VBZ_IN'
p3481
aVN0_w_i
p3482
aVN0_p_w_VBZ_IN_i
p3483
aS'N0_t_s'
p3484
aS'N0_t_p_s_VBZ_IN'
p3485
aVN0_t_w_s_i
p3486
aVST_p_w_WP_w_N0_p_w_VBZ_IN_i
p3487
aVST_p_w_WP_w_N0_w_i
p3488
aS'ST_t_h_N0_p_VBZ_IN'
p3489
aVST_w_w_N0_t_s
p3490
aS'ST_p_WP_N0_p_VBZ_IN'
p3491
aS'ST_t_h_N0_t_s'
p3492
aS'N1_p_NN_NN'
p3493
aVN1_w_c
p3494
aVN1_p_w_NN_NN_c
p3495
aS'N1_t_u'
p3496
aS'N1_t_p_u_NN_NN'
p3497
aVN1_t_w_u_c
p3498
aS'N0_p_VBZ_IN_N1_p_NN_NN'
p3499
aS'N0_p_VBZ_IN_N1_p_NN_NN_N2_p_JJ_NN'
p3500
aS'N0_w_sN1_p_NN_NN_N2_p_JJ_NN'
p3501
aI3
tp3502
a((lp3503
S'ST_p_WP'
p3504
aVST_w_w
p3505
aVST_p_w_WP_w
p3506
aS'N0_p_VBZ_IN'
p3507
aVN0_w_i
p3508
aVN0_p_w_VBZ_IN_i
p3509
aS'N0_t_s'
p3510
aS'N0_t_p_s_VBZ_IN'
p3511
aVN0_t_w_s_i
p3512
aVST_p_w_WP_w_N0_p_w_VBZ_IN_i
p3513
aVST_p_w_WP_w_N0_w_i
p3514
aS'ST_t_h_N0_p_VBZ_IN'
p3515
aVST_w_w_N0_t_s
p3516
aS'ST_p_WP_N0_p_VBZ_IN'
p3517
aS'ST_t_h_N0_t_s'
p3518
aVAR_w_i
p3519
aS'N1_p_NN_NN'
p3520
aVN1_w_c
p3521
aVN1_p_w_NN_NN_c
p3522
aS'N1_t_u'
p3523
aS'N1_t_p_u_NN_NN'
p3524
aVN1_t_w_u_c
p3525
aS'N0_p_VBZ_IN_N1_p_NN_NN'
p3526
aS'N0_p_VBZ_IN_N1_p_NN_NN_N2_p_JJ_NN'
p3527
aS'N0_w_sN1_p_NN_NN_N2_p_JJ_NN'
p3528
aI0
tp3529
a((lp3530
S'ST_p_VBZ_IN'
p3531
aVST_w_i
p3532
aVST_p_w_VBZ_IN_i
p3533
aS'N0_p_NN_NN'
p3534
aVN0_w_c
p3535
aVN0_p_w_NN_NN_c
p3536
aS'N0_t_u'
p3537
aS'N0_t_p_u_NN_NN'
p3538
aVN0_t_w_u_c
p3539
aVST_p_w_VBZ_IN_i_N0_p_w_NN_NN_c
p3540
aVST_p_w_VBZ_IN_i_N0_w_c
p3541
aS'ST_t_s_N0_p_NN_NN'
p3542
aVST_w_i_N0_t_u
p3543
aS'ST_p_VBZ_IN_N0_p_NN_NN'
p3544
aS'ST_t_s_N0_t_u'
p3545
aS'N1_p_JJ_NN'
p3546
aVN1_w_s
p3547
aVN1_p_w_JJ_NN_s
p3548
aS'N1_t_p'
p3549
aS'N1_t_p_p_JJ_NN'
p3550
aVN1_t_w_p_s
p3551
aS'N0_p_NN_NN_N1_p_JJ_NN'
p3552
aI1
tp3553
a((lp3554
S'ST_p_WP'
p3555
aVST_w_w
p3556
aVST_p_w_WP_w
p3557
aS'N0_p_NN_NN'
p3558
aVN0_w_c
p3559
aVN0_p_w_NN_NN_c
p3560
aS'N0_t_u'
p3561
aS'N0_t_p_u_NN_NN'
p3562
aVN0_t_w_u_c
p3563
aVST_p_w_WP_w_N0_p_w_NN_NN_c
p3564
aVST_p_w_WP_w_N0_w_c
p3565
aS'ST_t_h_N0_p_NN_NN'
p3566
aVST_w_w_N0_t_u
p3567
aS'ST_p_WP_N0_p_NN_NN'
p3568
aS'ST_t_h_N0_t_u'
p3569
aS'N1_p_JJ_NN'
p3570
aVN1_w_s
p3571
aVN1_p_w_JJ_NN_s
p3572
aS'N1_t_p'
p3573
aS'N1_t_p_p_JJ_NN'
p3574
aVN1_t_w_p_s
p3575
aS'N0_p_NN_NN_N1_p_JJ_NN'
p3576
aI0
tp3577
a((lp3578
S'ST_p_NN_NN'
p3579
aVST_w_c
p3580
aVST_p_w_NN_NN_c
p3581
aS'N0_p_JJ_NN'
p3582
aVN0_w_s
p3583
aVN0_p_w_JJ_NN_s
p3584
aS'N0_t_p'
p3585
aS'N0_t_p_p_JJ_NN'
p3586
aVN0_t_w_p_s
p3587
aVST_p_w_NN_NN_c_N0_p_w_JJ_NN_s
p3588
aVST_p_w_NN_NN_c_N0_w_s
p3589
aS'ST_t_u_N0_p_JJ_NN'
p3590
aVST_w_c_N0_t_p
p3591
aS'ST_p_NN_NN_N0_p_JJ_NN'
p3592
aS'ST_t_u_N0_t_p'
p3593
aI2
tp3594
a((lp3595
S'ST_p_NN_NN'
p3596
aVST_w_c
p3597
aVST_p_w_NN_NN_c
p3598
aS'N0_p_JJ_NN'
p3599
aVN0_w_s
p3600
aVN0_p_w_JJ_NN_s
p3601
aS'N0_t_p'
p3602
aS'N0_t_p_p_JJ_NN'
p3603
aVN0_t_w_p_s
p3604
aVST_p_w_NN_NN_c_N0_p_w_JJ_NN_s
p3605
aVST_p_w_NN_NN_c_N0_w_s
p3606
aS'ST_t_u_N0_p_JJ_NN'
p3607
aVST_w_c_N0_t_p
p3608
aS'ST_p_NN_NN_N0_p_JJ_NN'
p3609
aS'ST_t_u_N0_t_p'
p3610
aVAL_s_c
p3611
aI1
tp3612
a((lp3613
S'ST_p_WP'
p3614
aVST_w_w
p3615
aVST_p_w_WP_w
p3616
aS'N0_p_JJ_NN'
p3617
aVN0_w_s
p3618
aVN0_p_w_JJ_NN_s
p3619
aS'N0_t_p'
p3620
aS'N0_t_p_p_JJ_NN'
p3621
aVN0_t_w_p_s
p3622
aVST_p_w_WP_w_N0_p_w_JJ_NN_s
p3623
aVST_p_w_WP_w_N0_w_s
p3624
aS'ST_t_h_N0_p_JJ_NN'
p3625
aVST_w_w_N0_t_p
p3626
aS'ST_p_WP_N0_p_JJ_NN'
p3627
aS'ST_t_h_N0_t_p'
p3628
aI3
tp3629
a((lp3630
S'ST_p_WP'
p3631
aVST_w_w
p3632
aVST_p_w_WP_w
p3633
aS'N0_p_JJ_NN'
p3634
aVN0_w_s
p3635
aVN0_p_w_JJ_NN_s
p3636
aS'N0_t_p'
p3637
aS'N0_t_p_p_JJ_NN'
p3638
aVN0_t_w_p_s
p3639
aVST_p_w_WP_w_N0_p_w_JJ_NN_s
p3640
aVST_p_w_WP_w_N0_w_s
p3641
aS'ST_t_h_N0_p_JJ_NN'
p3642
aVST_w_w_N0_t_p
p3643
aS'ST_p_WP_N0_p_JJ_NN'
p3644
aS'ST_t_h_N0_t_p'
p3645
aVAR_w_s
p3646
aI1
tp3647
a((lp3648
S'N0_p_JJ_NN'
p3649
aVN0_w_s
p3650
aVN0_p_w_JJ_NN_s
p3651
aS'N0_t_p'
p3652
aS'N0_t_p_p_JJ_NN'
p3653
aVN0_t_w_p_s
p3654
aI0
tp3655
a((lp3656
S'N0_p_WRB_JJ'
p3657
aVN0_w_h
p3658
aVN0_p_w_WRB_JJ_h
p3659
aS'N0_t_o'
p3660
aS'N0_t_p_o_WRB_JJ'
p3661
aVN0_t_w_o_h
p3662
aS'N1_p_NNS'
p3663
aVN1_w_a
p3664
aVN1_p_w_NNS_a
p3665
aS'N1_t_w'
p3666
aS'N1_t_p_w_NNS'
p3667
aVN1_t_w_w_a
p3668
aS'N0_p_WRB_JJ_N1_p_NNS'
p3669
aS'N0_p_WRB_JJ_N1_p_NNS_N2_p_VBD_NN'
p3670
aS'N0_w_oN1_p_NNS_N2_p_VBD_NN'
p3671
aI0
tp3672
a((lp3673
S'ST_p_WRB_JJ'
p3674
aVST_w_h
p3675
aVST_p_w_WRB_JJ_h
p3676
aS'N0_p_NNS'
p3677
aVN0_w_a
p3678
aVN0_p_w_NNS_a
p3679
aS'N0_t_w'
p3680
aS'N0_t_p_w_NNS'
p3681
aVN0_t_w_w_a
p3682
aVST_p_w_WRB_JJ_h_N0_p_w_NNS_a
p3683
aVST_p_w_WRB_JJ_h_N0_w_a
p3684
aS'ST_t_o_N0_p_NNS'
p3685
aVST_w_h_N0_t_w
p3686
aS'ST_p_WRB_JJ_N0_p_NNS'
p3687
aS'ST_t_o_N0_t_w'
p3688
aS'N1_p_VBD_NN'
p3689
aVN1_w_d
p3690
aVN1_p_w_VBD_NN_d
p3691
aS'N1_t_i'
p3692
aS'N1_t_p_i_VBD_NN'
p3693
aVN1_t_w_i_d
p3694
aS'N0_p_NNS_N1_p_VBD_NN'
p3695
aS'N0_p_NNS_N1_p_VBD_NN_N2_p_JJ_NN'
p3696
aS'N0_w_wN1_p_VBD_NN_N2_p_JJ_NN'
p3697
aI3
tp3698
a((lp3699
S'ST_p_WRB_JJ'
p3700
aVST_w_h
p3701
aVST_p_w_WRB_JJ_h
p3702
aS'N0_p_NNS'
p3703
aVN0_w_a
p3704
aVN0_p_w_NNS_a
p3705
aS'N0_t_w'
p3706
aS'N0_t_p_w_NNS'
p3707
aVN0_t_w_w_a
p3708
aVST_p_w_WRB_JJ_h_N0_p_w_NNS_a
p3709
aVST_p_w_WRB_JJ_h_N0_w_a
p3710
aS'ST_t_o_N0_p_NNS'
p3711
aVST_w_h_N0_t_w
p3712
aS'ST_p_WRB_JJ_N0_p_NNS'
p3713
aS'ST_t_o_N0_t_w'
p3714
aVAR_h_a
p3715
aS'N1_p_VBD_NN'
p3716
aVN1_w_d
p3717
aVN1_p_w_VBD_NN_d
p3718
aS'N1_t_i'
p3719
aS'N1_t_p_i_VBD_NN'
p3720
aVN1_t_w_i_d
p3721
aS'N0_p_NNS_N1_p_VBD_NN'
p3722
aS'N0_p_NNS_N1_p_VBD_NN_N2_p_JJ_NN'
p3723
aS'N0_w_wN1_p_VBD_NN_N2_p_JJ_NN'
p3724
aI0
tp3725
a((lp3726
S'ST_p_NNS'
p3727
aVST_w_a
p3728
aVST_p_w_NNS_a
p3729
aS'N0_p_VBD_NN'
p3730
aVN0_w_d
p3731
aVN0_p_w_VBD_NN_d
p3732
aS'N0_t_i'
p3733
aS'N0_t_p_i_VBD_NN'
p3734
aVN0_t_w_i_d
p3735
aVST_p_w_NNS_a_N0_p_w_VBD_NN_d
p3736
aVST_p_w_NNS_a_N0_w_d
p3737
aS'ST_t_w_N0_p_VBD_NN'
p3738
aVST_w_a_N0_t_i
p3739
aS'ST_p_NNS_N0_p_VBD_NN'
p3740
aS'ST_t_w_N0_t_i'
p3741
aS'N1_p_JJ_NN'
p3742
aVN1_w_b
p3743
aVN1_p_w_JJ_NN_b
p3744
aS'N1_t_i'
p3745
aS'N1_t_p_i_JJ_NN'
p3746
aVN1_t_w_i_b
p3747
aS'N0_p_VBD_NN_N1_p_JJ_NN'
p3748
aI1
tp3749
a((lp3750
S'ST_p_WRB_JJ'
p3751
aVST_w_h
p3752
aVST_p_w_WRB_JJ_h
p3753
aS'N0_p_VBD_NN'
p3754
aVN0_w_d
p3755
aVN0_p_w_VBD_NN_d
p3756
aS'N0_t_i'
p3757
aS'N0_t_p_i_VBD_NN'
p3758
aVN0_t_w_i_d
p3759
aVST_p_w_WRB_JJ_h_N0_p_w_VBD_NN_d
p3760
aVST_p_w_WRB_JJ_h_N0_w_d
p3761
aS'ST_t_o_N0_p_VBD_NN'
p3762
aVST_w_h_N0_t_i
p3763
aS'ST_p_WRB_JJ_N0_p_VBD_NN'
p3764
aS'ST_t_o_N0_t_i'
p3765
aS'N1_p_JJ_NN'
p3766
aVN1_w_b
p3767
aVN1_p_w_JJ_NN_b
p3768
aS'N1_t_i'
p3769
aS'N1_t_p_i_JJ_NN'
p3770
aVN1_t_w_i_b
p3771
aS'N0_p_VBD_NN_N1_p_JJ_NN'
p3772
aI0
tp3773
a((lp3774
S'ST_p_VBD_NN'
p3775
aVST_w_d
p3776
aVST_p_w_VBD_NN_d
p3777
aS'N0_p_JJ_NN'
p3778
aVN0_w_b
p3779
aVN0_p_w_JJ_NN_b
p3780
aS'N0_t_i'
p3781
aS'N0_t_p_i_JJ_NN'
p3782
aVN0_t_w_i_b
p3783
aVST_p_w_VBD_NN_d_N0_p_w_JJ_NN_b
p3784
aVST_p_w_VBD_NN_d_N0_w_b
p3785
aS'ST_t_i_N0_p_JJ_NN'
p3786
aVST_w_d_N0_t_i
p3787
aS'ST_p_VBD_NN_N0_p_JJ_NN'
p3788
aS'ST_t_i_N0_t_i'
p3789
aI2
tp3790
a((lp3791
S'ST_p_VBD_NN'
p3792
aVST_w_d
p3793
aVST_p_w_VBD_NN_d
p3794
aS'N0_p_JJ_NN'
p3795
aVN0_w_b
p3796
aVN0_p_w_JJ_NN_b
p3797
aS'N0_t_i'
p3798
aS'N0_t_p_i_JJ_NN'
p3799
aVN0_t_w_i_b
p3800
aVST_p_w_VBD_NN_d_N0_p_w_JJ_NN_b
p3801
aVST_p_w_VBD_NN_d_N0_w_b
p3802
aS'ST_t_i_N0_p_JJ_NN'
p3803
aVST_w_d_N0_t_i
p3804
aS'ST_p_VBD_NN_N0_p_JJ_NN'
p3805
aS'ST_t_i_N0_t_i'
p3806
aVAL_b_d
p3807
aI1
tp3808
a((lp3809
S'ST_p_WRB_JJ'
p3810
aVST_w_h
p3811
aVST_p_w_WRB_JJ_h
p3812
aS'N0_p_JJ_NN'
p3813
aVN0_w_b
p3814
aVN0_p_w_JJ_NN_b
p3815
aS'N0_t_i'
p3816
aS'N0_t_p_i_JJ_NN'
p3817
aVN0_t_w_i_b
p3818
aVST_p_w_WRB_JJ_h_N0_p_w_JJ_NN_b
p3819
aVST_p_w_WRB_JJ_h_N0_w_b
p3820
aS'ST_t_o_N0_p_JJ_NN'
p3821
aVST_w_h_N0_t_i
p3822
aS'ST_p_WRB_JJ_N0_p_JJ_NN'
p3823
aS'ST_t_o_N0_t_i'
p3824
aI3
tp3825
a((lp3826
S'ST_p_WRB_JJ'
p3827
aVST_w_h
p3828
aVST_p_w_WRB_JJ_h
p3829
aS'N0_p_JJ_NN'
p3830
aVN0_w_b
p3831
aVN0_p_w_JJ_NN_b
p3832
aS'N0_t_i'
p3833
aS'N0_t_p_i_JJ_NN'
p3834
aVN0_t_w_i_b
p3835
aVST_p_w_WRB_JJ_h_N0_p_w_JJ_NN_b
p3836
aVST_p_w_WRB_JJ_h_N0_w_b
p3837
aS'ST_t_o_N0_p_JJ_NN'
p3838
aVST_w_h_N0_t_i
p3839
aS'ST_p_WRB_JJ_N0_p_JJ_NN'
p3840
aS'ST_t_o_N0_t_i'
p3841
aVAR_h_b
p3842
aI1
tp3843
a((lp3844
S'N0_p_JJ_NN'
p3845
aVN0_w_b
p3846
aVN0_p_w_JJ_NN_b
p3847
aS'N0_t_i'
p3848
aS'N0_t_p_i_JJ_NN'
p3849
aVN0_t_w_i_b
p3850
aI0
tp3851
a((lp3852
S'N0_p_WP'
p3853
aVN0_w_w
p3854
aVN0_p_w_WP_w
p3855
aS'N0_t_h'
p3856
aS'N0_t_p_h_WP'
p3857
aVN0_t_w_h_w
p3858
aS'N1_p_VBZ'
p3859
aVN1_w_b
p3860
aVN1_p_w_VBZ_b
p3861
aS'N1_t_r'
p3862
aS'N1_t_p_r_VBZ'
p3863
aVN1_t_w_r_b
p3864
aS'N0_p_WP_N1_p_VBZ'
p3865
aS'N0_p_WP_N1_p_VBZ_N2_p_VBP_IN'
p3866
aS'N0_w_hN1_p_VBZ_N2_p_VBP_IN'
p3867
aI0
tp3868
a((lp3869
S'ST_p_WP'
p3870
aVST_w_w
p3871
aVST_p_w_WP_w
p3872
aS'N0_p_VBZ'
p3873
aVN0_w_b
p3874
aVN0_p_w_VBZ_b
p3875
aS'N0_t_r'
p3876
aS'N0_t_p_r_VBZ'
p3877
aVN0_t_w_r_b
p3878
aVST_p_w_WP_w_N0_p_w_VBZ_b
p3879
aVST_p_w_WP_w_N0_w_b
p3880
aS'ST_t_h_N0_p_VBZ'
p3881
aVST_w_w_N0_t_r
p3882
aS'ST_p_WP_N0_p_VBZ'
p3883
aS'ST_t_h_N0_t_r'
p3884
aS'N1_p_VBP_IN'
p3885
aVN1_w_g
p3886
aVN1_p_w_VBP_IN_g
p3887
aS'N1_t_o'
p3888
aS'N1_t_p_o_VBP_IN'
p3889
aVN1_t_w_o_g
p3890
aS'N0_p_VBZ_N1_p_VBP_IN'
p3891
aS'N0_p_VBZ_N1_p_VBP_IN_N2_p_NNP_NNP_NNP'
p3892
aS'N0_w_rN1_p_VBP_IN_N2_p_NNP_NNP_NNP'
p3893
aI3
tp3894
a((lp3895
S'ST_p_WP'
p3896
aVST_w_w
p3897
aVST_p_w_WP_w
p3898
aS'N0_p_VBZ'
p3899
aVN0_w_b
p3900
aVN0_p_w_VBZ_b
p3901
aS'N0_t_r'
p3902
aS'N0_t_p_r_VBZ'
p3903
aVN0_t_w_r_b
p3904
aVST_p_w_WP_w_N0_p_w_VBZ_b
p3905
aVST_p_w_WP_w_N0_w_b
p3906
aS'ST_t_h_N0_p_VBZ'
p3907
aVST_w_w_N0_t_r
p3908
aS'ST_p_WP_N0_p_VBZ'
p3909
aS'ST_t_h_N0_t_r'
p3910
aVAR_w_b
p3911
aS'N1_p_VBP_IN'
p3912
aVN1_w_g
p3913
aVN1_p_w_VBP_IN_g
p3914
aS'N1_t_o'
p3915
aS'N1_t_p_o_VBP_IN'
p3916
aVN1_t_w_o_g
p3917
aS'N0_p_VBZ_N1_p_VBP_IN'
p3918
aS'N0_p_VBZ_N1_p_VBP_IN_N2_p_NNP_NNP_NNP'
p3919
aS'N0_w_rN1_p_VBP_IN_N2_p_NNP_NNP_NNP'
p3920
aI0
tp3921
a((lp3922
S'ST_p_VBZ'
p3923
aVST_w_b
p3924
aVST_p_w_VBZ_b
p3925
aS'N0_p_VBP_IN'
p3926
aVN0_w_g
p3927
aVN0_p_w_VBP_IN_g
p3928
aS'N0_t_o'
p3929
aS'N0_t_p_o_VBP_IN'
p3930
aVN0_t_w_o_g
p3931
aVST_p_w_VBZ_b_N0_p_w_VBP_IN_g
p3932
aVST_p_w_VBZ_b_N0_w_g
p3933
aS'ST_t_r_N0_p_VBP_IN'
p3934
aVST_w_b_N0_t_o
p3935
aS'ST_p_VBZ_N0_p_VBP_IN'
p3936
aS'ST_t_r_N0_t_o'
p3937
aS'N1_p_NNP_NNP_NNP'
p3938
aVN1_w_S
p3939
aVN1_p_w_NNP_NNP_NNP_S
p3940
aS'N1_t_a'
p3941
aS'N1_t_p_a_NNP_NNP_NNP'
p3942
aVN1_t_w_a_S
p3943
aS'N0_p_VBP_IN_N1_p_NNP_NNP_NNP'
p3944
aI1
tp3945
a((lp3946
S'ST_p_WP'
p3947
aVST_w_w
p3948
aVST_p_w_WP_w
p3949
aS'N0_p_VBP_IN'
p3950
aVN0_w_g
p3951
aVN0_p_w_VBP_IN_g
p3952
aS'N0_t_o'
p3953
aS'N0_t_p_o_VBP_IN'
p3954
aVN0_t_w_o_g
p3955
aVST_p_w_WP_w_N0_p_w_VBP_IN_g
p3956
aVST_p_w_WP_w_N0_w_g
p3957
aS'ST_t_h_N0_p_VBP_IN'
p3958
aVST_w_w_N0_t_o
p3959
aS'ST_p_WP_N0_p_VBP_IN'
p3960
aS'ST_t_h_N0_t_o'
p3961
aS'N1_p_NNP_NNP_NNP'
p3962
aVN1_w_S
p3963
aVN1_p_w_NNP_NNP_NNP_S
p3964
aS'N1_t_a'
p3965
aS'N1_t_p_a_NNP_NNP_NNP'
p3966
aVN1_t_w_a_S
p3967
aS'N0_p_VBP_IN_N1_p_NNP_NNP_NNP'
p3968
aI0
tp3969
a((lp3970
S'ST_p_VBP_IN'
p3971
aVST_w_g
p3972
aVST_p_w_VBP_IN_g
p3973
aS'N0_p_NNP_NNP_NNP'
p3974
aVN0_w_S
p3975
aVN0_p_w_NNP_NNP_NNP_S
p3976
aS'N0_t_a'
p3977
aS'N0_t_p_a_NNP_NNP_NNP'
p3978
aVN0_t_w_a_S
p3979
aVST_p_w_VBP_IN_g_N0_p_w_NNP_NNP_NNP_S
p3980
aVST_p_w_VBP_IN_g_N0_w_S
p3981
aS'ST_t_o_N0_p_NNP_NNP_NNP'
p3982
aVST_w_g_N0_t_a
p3983
aS'ST_p_VBP_IN_N0_p_NNP_NNP_NNP'
p3984
aS'ST_t_o_N0_t_a'
p3985
aI2
tp3986
a((lp3987
S'ST_p_VBP_IN'
p3988
aVST_w_g
p3989
aVST_p_w_VBP_IN_g
p3990
aS'N0_p_NNP_NNP_NNP'
p3991
aVN0_w_S
p3992
aVN0_p_w_NNP_NNP_NNP_S
p3993
aS'N0_t_a'
p3994
aS'N0_t_p_a_NNP_NNP_NNP'
p3995
aVN0_t_w_a_S
p3996
aVST_p_w_VBP_IN_g_N0_p_w_NNP_NNP_NNP_S
p3997
aVST_p_w_VBP_IN_g_N0_w_S
p3998
aS'ST_t_o_N0_p_NNP_NNP_NNP'
p3999
aVST_w_g_N0_t_a
p4000
aS'ST_p_VBP_IN_N0_p_NNP_NNP_NNP'
p4001
aS'ST_t_o_N0_t_a'
p4002
aVAL_S_g
p4003
aI1
tp4004
a((lp4005
S'ST_p_WP'
p4006
aVST_w_w
p4007
aVST_p_w_WP_w
p4008
aS'N0_p_NNP_NNP_NNP'
p4009
aVN0_w_S
p4010
aVN0_p_w_NNP_NNP_NNP_S
p4011
aS'N0_t_a'
p4012
aS'N0_t_p_a_NNP_NNP_NNP'
p4013
aVN0_t_w_a_S
p4014
aVST_p_w_WP_w_N0_p_w_NNP_NNP_NNP_S
p4015
aVST_p_w_WP_w_N0_w_S
p4016
aS'ST_t_h_N0_p_NNP_NNP_NNP'
p4017
aVST_w_w_N0_t_a
p4018
aS'ST_p_WP_N0_p_NNP_NNP_NNP'
p4019
aS'ST_t_h_N0_t_a'
p4020
aI3
tp4021
a((lp4022
S'ST_p_WP'
p4023
aVST_w_w
p4024
aVST_p_w_WP_w
p4025
aS'N0_p_NNP_NNP_NNP'
p4026
aVN0_w_S
p4027
aVN0_p_w_NNP_NNP_NNP_S
p4028
aS'N0_t_a'
p4029
aS'N0_t_p_a_NNP_NNP_NNP'
p4030
aVN0_t_w_a_S
p4031
aVST_p_w_WP_w_N0_p_w_NNP_NNP_NNP_S
p4032
aVST_p_w_WP_w_N0_w_S
p4033
aS'ST_t_h_N0_p_NNP_NNP_NNP'
p4034
aVST_w_w_N0_t_a
p4035
aS'ST_p_WP_N0_p_NNP_NNP_NNP'
p4036
aS'ST_t_h_N0_t_a'
p4037
aVAR_w_S
p4038
aI1
tp4039
a((lp4040
S'N0_p_NNP_NNP_NNP'
p4041
aVN0_w_S
p4042
aVN0_p_w_NNP_NNP_NNP_S
p4043
aS'N0_t_a'
p4044
aS'N0_t_p_a_NNP_NNP_NNP'
p4045
aVN0_t_w_a_S
p4046
aI0
tp4047
a((lp4048
S'N0_p_WRB_JJ'
p4049
aVN0_w_h
p4050
aVN0_p_w_WRB_JJ_h
p4051
aS'N0_t_o'
p4052
aS'N0_t_p_o_WRB_JJ'
p4053
aVN0_t_w_o_h
p4054
aS'N1_p_JJ_NNS'
p4055
aVN1_w_m
p4056
aVN1_p_w_JJ_NNS_m
p4057
aS'N1_t_a'
p4058
aS'N1_t_p_a_JJ_NNS'
p4059
aVN1_t_w_a_m
p4060
aS'N0_p_WRB_JJ_N1_p_JJ_NNS'
p4061
aS'N0_p_WRB_JJ_N1_p_JJ_NNS_N2_p_VBN_IN'
p4062
aS'N0_w_oN1_p_JJ_NNS_N2_p_VBN_IN'
p4063
aI0
tp4064
a((lp4065
S'ST_p_WRB_JJ'
p4066
aVST_w_h
p4067
aVST_p_w_WRB_JJ_h
p4068
aS'N0_p_JJ_NNS'
p4069
aVN0_w_m
p4070
aVN0_p_w_JJ_NNS_m
p4071
aS'N0_t_a'
p4072
aS'N0_t_p_a_JJ_NNS'
p4073
aVN0_t_w_a_m
p4074
aVST_p_w_WRB_JJ_h_N0_p_w_JJ_NNS_m
p4075
aVST_p_w_WRB_JJ_h_N0_w_m
p4076
aS'ST_t_o_N0_p_JJ_NNS'
p4077
aVST_w_h_N0_t_a
p4078
aS'ST_p_WRB_JJ_N0_p_JJ_NNS'
p4079
aS'ST_t_o_N0_t_a'
p4080
aS'N1_p_VBN_IN'
p4081
aVN1_w_h
p4082
aVN1_p_w_VBN_IN_h
p4083
aS'N1_t_a'
p4084
aS'N1_t_p_a_VBN_IN'
p4085
aVN1_t_w_a_h
p4086
aS'N0_p_JJ_NNS_N1_p_VBN_IN'
p4087
aS'N0_p_JJ_NNS_N1_p_VBN_IN_N2_p_NNP'
p4088
aS'N0_w_aN1_p_VBN_IN_N2_p_NNP'
p4089
aI3
tp4090
a((lp4091
S'ST_p_WRB_JJ'
p4092
aVST_w_h
p4093
aVST_p_w_WRB_JJ_h
p4094
aS'N0_p_JJ_NNS'
p4095
aVN0_w_m
p4096
aVN0_p_w_JJ_NNS_m
p4097
aS'N0_t_a'
p4098
aS'N0_t_p_a_JJ_NNS'
p4099
aVN0_t_w_a_m
p4100
aVST_p_w_WRB_JJ_h_N0_p_w_JJ_NNS_m
p4101
aVST_p_w_WRB_JJ_h_N0_w_m
p4102
aS'ST_t_o_N0_p_JJ_NNS'
p4103
aVST_w_h_N0_t_a
p4104
aS'ST_p_WRB_JJ_N0_p_JJ_NNS'
p4105
aS'ST_t_o_N0_t_a'
p4106
aVAR_h_m
p4107
aS'N1_p_VBN_IN'
p4108
aVN1_w_h
p4109
aVN1_p_w_VBN_IN_h
p4110
aS'N1_t_a'
p4111
aS'N1_t_p_a_VBN_IN'
p4112
aVN1_t_w_a_h
p4113
aS'N0_p_JJ_NNS_N1_p_VBN_IN'
p4114
aS'N0_p_JJ_NNS_N1_p_VBN_IN_N2_p_NNP'
p4115
aS'N0_w_aN1_p_VBN_IN_N2_p_NNP'
p4116
aI0
tp4117
a((lp4118
S'ST_p_JJ_NNS'
p4119
aVST_w_m
p4120
aVST_p_w_JJ_NNS_m
p4121
aS'N0_p_VBN_IN'
p4122
aVN0_w_h
p4123
aVN0_p_w_VBN_IN_h
p4124
aS'N0_t_a'
p4125
aS'N0_t_p_a_VBN_IN'
p4126
aVN0_t_w_a_h
p4127
aVST_p_w_JJ_NNS_m_N0_p_w_VBN_IN_h
p4128
aVST_p_w_JJ_NNS_m_N0_w_h
p4129
aS'ST_t_a_N0_p_VBN_IN'
p4130
aVST_w_m_N0_t_a
p4131
aS'ST_p_JJ_NNS_N0_p_VBN_IN'
p4132
aS'ST_t_a_N0_t_a'
p4133
aS'N1_p_NNP'
p4134
aVN1_w_A
p4135
aVN1_p_w_NNP_A
p4136
aS'N1_t_u'
p4137
aS'N1_t_p_u_NNP'
p4138
aVN1_t_w_u_A
p4139
aS'N0_p_VBN_IN_N1_p_NNP'
p4140
aI1
tp4141
a((lp4142
S'ST_p_WRB_JJ'
p4143
aVST_w_h
p4144
aVST_p_w_WRB_JJ_h
p4145
aS'N0_p_VBN_IN'
p4146
aVN0_w_h
p4147
aVN0_p_w_VBN_IN_h
p4148
aS'N0_t_a'
p4149
aS'N0_t_p_a_VBN_IN'
p4150
aVN0_t_w_a_h
p4151
aVST_p_w_WRB_JJ_h_N0_p_w_VBN_IN_h
p4152
aVST_p_w_WRB_JJ_h_N0_w_h
p4153
aS'ST_t_o_N0_p_VBN_IN'
p4154
aVST_w_h_N0_t_a
p4155
aS'ST_p_WRB_JJ_N0_p_VBN_IN'
p4156
aS'ST_t_o_N0_t_a'
p4157
aS'N1_p_NNP'
p4158
aVN1_w_A
p4159
aVN1_p_w_NNP_A
p4160
aS'N1_t_u'
p4161
aS'N1_t_p_u_NNP'
p4162
aVN1_t_w_u_A
p4163
aS'N0_p_VBN_IN_N1_p_NNP'
p4164
aI0
tp4165
a((lp4166
S'ST_p_VBN_IN'
p4167
aVST_w_h
p4168
aVST_p_w_VBN_IN_h
p4169
aS'N0_p_NNP'
p4170
aVN0_w_A
p4171
aVN0_p_w_NNP_A
p4172
aS'N0_t_u'
p4173
aS'N0_t_p_u_NNP'
p4174
aVN0_t_w_u_A
p4175
aVST_p_w_VBN_IN_h_N0_p_w_NNP_A
p4176
aVST_p_w_VBN_IN_h_N0_w_A
p4177
aS'ST_t_a_N0_p_NNP'
p4178
aVST_w_h_N0_t_u
p4179
aS'ST_p_VBN_IN_N0_p_NNP'
p4180
aS'ST_t_a_N0_t_u'
p4181
aI2
tp4182
a((lp4183
S'ST_p_VBN_IN'
p4184
aVST_w_h
p4185
aVST_p_w_VBN_IN_h
p4186
aS'N0_p_NNP'
p4187
aVN0_w_A
p4188
aVN0_p_w_NNP_A
p4189
aS'N0_t_u'
p4190
aS'N0_t_p_u_NNP'
p4191
aVN0_t_w_u_A
p4192
aVST_p_w_VBN_IN_h_N0_p_w_NNP_A
p4193
aVST_p_w_VBN_IN_h_N0_w_A
p4194
aS'ST_t_a_N0_p_NNP'
p4195
aVST_w_h_N0_t_u
p4196
aS'ST_p_VBN_IN_N0_p_NNP'
p4197
aS'ST_t_a_N0_t_u'
p4198
aVAL_A_h
p4199
aI1
tp4200
a((lp4201
S'ST_p_WRB_JJ'
p4202
aVST_w_h
p4203
aVST_p_w_WRB_JJ_h
p4204
aS'N0_p_NNP'
p4205
aVN0_w_A
p4206
aVN0_p_w_NNP_A
p4207
aS'N0_t_u'
p4208
aS'N0_t_p_u_NNP'
p4209
aVN0_t_w_u_A
p4210
aVST_p_w_WRB_JJ_h_N0_p_w_NNP_A
p4211
aVST_p_w_WRB_JJ_h_N0_w_A
p4212
aS'ST_t_o_N0_p_NNP'
p4213
aVST_w_h_N0_t_u
p4214
aS'ST_p_WRB_JJ_N0_p_NNP'
p4215
aS'ST_t_o_N0_t_u'
p4216
aI3
tp4217
a((lp4218
S'ST_p_WRB_JJ'
p4219
aVST_w_h
p4220
aVST_p_w_WRB_JJ_h
p4221
aS'N0_p_NNP'
p4222
aVN0_w_A
p4223
aVN0_p_w_NNP_A
p4224
aS'N0_t_u'
p4225
aS'N0_t_p_u_NNP'
p4226
aVN0_t_w_u_A
p4227
aVST_p_w_WRB_JJ_h_N0_p_w_NNP_A
p4228
aVST_p_w_WRB_JJ_h_N0_w_A
p4229
aS'ST_t_o_N0_p_NNP'
p4230
aVST_w_h_N0_t_u
p4231
aS'ST_p_WRB_JJ_N0_p_NNP'
p4232
aS'ST_t_o_N0_t_u'
p4233
aVAR_h_A
p4234
aI1
tp4235
a((lp4236
S'N0_p_NNP'
p4237
aVN0_w_A
p4238
aVN0_p_w_NNP_A
p4239
aS'N0_t_u'
p4240
aS'N0_t_p_u_NNP'
p4241
aVN0_t_w_u_A
p4242
aI0
tp4243
a((lp4244
S'N0_p_WRB_JJ'
p4245
aVN0_w_h
p4246
aVN0_p_w_WRB_JJ_h
p4247
aS'N0_t_o'
p4248
aS'N0_t_p_o_WRB_JJ'
p4249
aVN0_t_w_o_h
p4250
aS'N1_p_NNS'
p4251
aVN1_w_r
p4252
aVN1_p_w_NNS_r
p4253
aS'N1_t_e'
p4254
aS'N1_t_p_e_NNS'
p4255
aVN1_t_w_e_r
p4256
aS'N0_p_WRB_JJ_N1_p_NNS'
p4257
aS'N0_p_WRB_JJ_N1_p_NNS_N2_p_VBP_IN'
p4258
aS'N0_w_oN1_p_NNS_N2_p_VBP_IN'
p4259
aI0
tp4260
a((lp4261
S'ST_p_WRB_JJ'
p4262
aVST_w_h
p4263
aVST_p_w_WRB_JJ_h
p4264
aS'N0_p_NNS'
p4265
aVN0_w_r
p4266
aVN0_p_w_NNS_r
p4267
aS'N0_t_e'
p4268
aS'N0_t_p_e_NNS'
p4269
aVN0_t_w_e_r
p4270
aVST_p_w_WRB_JJ_h_N0_p_w_NNS_r
p4271
aVST_p_w_WRB_JJ_h_N0_w_r
p4272
aS'ST_t_o_N0_p_NNS'
p4273
aVST_w_h_N0_t_e
p4274
aS'ST_p_WRB_JJ_N0_p_NNS'
p4275
aS'ST_t_o_N0_t_e'
p4276
aS'N1_p_VBP_IN'
p4277
aVN1_w_b
p4278
aVN1_p_w_VBP_IN_b
p4279
aS'N1_t_e'
p4280
aS'N1_t_p_e_VBP_IN'
p4281
aVN1_t_w_e_b
p4282
aS'N0_p_NNS_N1_p_VBP_IN'
p4283
aS'N0_p_NNS_N1_p_VBP_IN_N2_p_NN'
p4284
aS'N0_w_eN1_p_VBP_IN_N2_p_NN'
p4285
aI3
tp4286
a((lp4287
S'ST_p_WRB_JJ'
p4288
aVST_w_h
p4289
aVST_p_w_WRB_JJ_h
p4290
aS'N0_p_NNS'
p4291
aVN0_w_r
p4292
aVN0_p_w_NNS_r
p4293
aS'N0_t_e'
p4294
aS'N0_t_p_e_NNS'
p4295
aVN0_t_w_e_r
p4296
aVST_p_w_WRB_JJ_h_N0_p_w_NNS_r
p4297
aVST_p_w_WRB_JJ_h_N0_w_r
p4298
aS'ST_t_o_N0_p_NNS'
p4299
aVST_w_h_N0_t_e
p4300
aS'ST_p_WRB_JJ_N0_p_NNS'
p4301
aS'ST_t_o_N0_t_e'
p4302
aVAR_h_r
p4303
aS'N1_p_VBP_IN'
p4304
aVN1_w_b
p4305
aVN1_p_w_VBP_IN_b
p4306
aS'N1_t_e'
p4307
aS'N1_t_p_e_VBP_IN'
p4308
aVN1_t_w_e_b
p4309
aS'N0_p_NNS_N1_p_VBP_IN'
p4310
aS'N0_p_NNS_N1_p_VBP_IN_N2_p_NN'
p4311
aS'N0_w_eN1_p_VBP_IN_N2_p_NN'
p4312
aI0
tp4313
a((lp4314
S'ST_p_NNS'
p4315
aVST_w_r
p4316
aVST_p_w_NNS_r
p4317
aS'N0_p_VBP_IN'
p4318
aVN0_w_b
p4319
aVN0_p_w_VBP_IN_b
p4320
aS'N0_t_e'
p4321
aS'N0_t_p_e_VBP_IN'
p4322
aVN0_t_w_e_b
p4323
aVST_p_w_NNS_r_N0_p_w_VBP_IN_b
p4324
aVST_p_w_NNS_r_N0_w_b
p4325
aS'ST_t_e_N0_p_VBP_IN'
p4326
aVST_w_r_N0_t_e
p4327
aS'ST_p_NNS_N0_p_VBP_IN'
p4328
aS'ST_t_e_N0_t_e'
p4329
aS'N1_p_NN'
p4330
aVN1_w_r
p4331
aVN1_p_w_NN_r
p4332
aS'N1_t_e'
p4333
aS'N1_t_p_e_NN'
p4334
aVN1_t_w_e_r
p4335
aS'N0_p_VBP_IN_N1_p_NN'
p4336
aI1
tp4337
a((lp4338
S'ST_p_WRB_JJ'
p4339
aVST_w_h
p4340
aVST_p_w_WRB_JJ_h
p4341
aS'N0_p_VBP_IN'
p4342
aVN0_w_b
p4343
aVN0_p_w_VBP_IN_b
p4344
aS'N0_t_e'
p4345
aS'N0_t_p_e_VBP_IN'
p4346
aVN0_t_w_e_b
p4347
aVST_p_w_WRB_JJ_h_N0_p_w_VBP_IN_b
p4348
aVST_p_w_WRB_JJ_h_N0_w_b
p4349
aS'ST_t_o_N0_p_VBP_IN'
p4350
aVST_w_h_N0_t_e
p4351
aS'ST_p_WRB_JJ_N0_p_VBP_IN'
p4352
aS'ST_t_o_N0_t_e'
p4353
aS'N1_p_NN'
p4354
aVN1_w_r
p4355
aVN1_p_w_NN_r
p4356
aS'N1_t_e'
p4357
aS'N1_t_p_e_NN'
p4358
aVN1_t_w_e_r
p4359
aS'N0_p_VBP_IN_N1_p_NN'
p4360
aI0
tp4361
a((lp4362
S'ST_p_VBP_IN'
p4363
aVST_w_b
p4364
aVST_p_w_VBP_IN_b
p4365
aS'N0_p_NN'
p4366
aVN0_w_r
p4367
aVN0_p_w_NN_r
p4368
aS'N0_t_e'
p4369
aS'N0_t_p_e_NN'
p4370
aVN0_t_w_e_r
p4371
aVST_p_w_VBP_IN_b_N0_p_w_NN_r
p4372
aVST_p_w_VBP_IN_b_N0_w_r
p4373
aS'ST_t_e_N0_p_NN'
p4374
aVST_w_b_N0_t_e
p4375
aS'ST_p_VBP_IN_N0_p_NN'
p4376
aS'ST_t_e_N0_t_e'
p4377
aI2
tp4378
a((lp4379
S'ST_p_VBP_IN'
p4380
aVST_w_b
p4381
aVST_p_w_VBP_IN_b
p4382
aS'N0_p_NN'
p4383
aVN0_w_r
p4384
aVN0_p_w_NN_r
p4385
aS'N0_t_e'
p4386
aS'N0_t_p_e_NN'
p4387
aVN0_t_w_e_r
p4388
aVST_p_w_VBP_IN_b_N0_p_w_NN_r
p4389
aVST_p_w_VBP_IN_b_N0_w_r
p4390
aS'ST_t_e_N0_p_NN'
p4391
aVST_w_b_N0_t_e
p4392
aS'ST_p_VBP_IN_N0_p_NN'
p4393
aS'ST_t_e_N0_t_e'
p4394
aVAL_r_b
p4395
aI1
tp4396
a((lp4397
S'ST_p_WRB_JJ'
p4398
aVST_w_h
p4399
aVST_p_w_WRB_JJ_h
p4400
aS'N0_p_NN'
p4401
aVN0_w_r
p4402
aVN0_p_w_NN_r
p4403
aS'N0_t_e'
p4404
aS'N0_t_p_e_NN'
p4405
aVN0_t_w_e_r
p4406
aVST_p_w_WRB_JJ_h_N0_p_w_NN_r
p4407
aVST_p_w_WRB_JJ_h_N0_w_r
p4408
aS'ST_t_o_N0_p_NN'
p4409
aVST_w_h_N0_t_e
p4410
aS'ST_p_WRB_JJ_N0_p_NN'
p4411
aS'ST_t_o_N0_t_e'
p4412
aI3
tp4413
a((lp4414
S'ST_p_WRB_JJ'
p4415
aVST_w_h
p4416
aVST_p_w_WRB_JJ_h
p4417
aS'N0_p_NN'
p4418
aVN0_w_r
p4419
aVN0_p_w_NN_r
p4420
aS'N0_t_e'
p4421
aS'N0_t_p_e_NN'
p4422
aVN0_t_w_e_r
p4423
aVST_p_w_WRB_JJ_h_N0_p_w_NN_r
p4424
aVST_p_w_WRB_JJ_h_N0_w_r
p4425
aS'ST_t_o_N0_p_NN'
p4426
aVST_w_h_N0_t_e
p4427
aS'ST_p_WRB_JJ_N0_p_NN'
p4428
aS'ST_t_o_N0_t_e'
p4429
aVAR_h_r
p4430
aI1
tp4431
a((lp4432
S'N0_p_NN'
p4433
aVN0_w_r
p4434
aVN0_p_w_NN_r
p4435
aS'N0_t_e'
p4436
aS'N0_t_p_e_NN'
p4437
aVN0_t_w_e_r
p4438
aI0
tp4439
a((lp4440
S'N0_p_WRB_JJ'
p4441
aVN0_w_h
p4442
aVN0_p_w_WRB_JJ_h
p4443
aS'N0_t_o'
p4444
aS'N0_t_p_o_WRB_JJ'
p4445
aVN0_t_w_o_h
p4446
aS'N1_p_VBG_NNS'
p4447
aVN1_w_w
p4448
aVN1_p_w_VBG_NNS_w
p4449
aS'N1_t_r'
p4450
aS'N1_t_p_r_VBG_NNS'
p4451
aVN1_t_w_r_w
p4452
aS'N0_p_WRB_JJ_N1_p_VBG_NNS'
p4453
aS'N0_p_WRB_JJ_N1_p_VBG_NNS_N2_p_VBP_VBN_IN'
p4454
aS'N0_w_oN1_p_VBG_NNS_N2_p_VBP_VBN_IN'
p4455
aI0
tp4456
a((lp4457
S'ST_p_WRB_JJ'
p4458
aVST_w_h
p4459
aVST_p_w_WRB_JJ_h
p4460
aS'N0_p_VBG_NNS'
p4461
aVN0_w_w
p4462
aVN0_p_w_VBG_NNS_w
p4463
aS'N0_t_r'
p4464
aS'N0_t_p_r_VBG_NNS'
p4465
aVN0_t_w_r_w
p4466
aVST_p_w_WRB_JJ_h_N0_p_w_VBG_NNS_w
p4467
aVST_p_w_WRB_JJ_h_N0_w_w
p4468
aS'ST_t_o_N0_p_VBG_NNS'
p4469
aVST_w_h_N0_t_r
p4470
aS'ST_p_WRB_JJ_N0_p_VBG_NNS'
p4471
aS'ST_t_o_N0_t_r'
p4472
aS'N1_p_VBP_VBN_IN'
p4473
aVN1_w_a
p4474
aVN1_p_w_VBP_VBN_IN_a
p4475
aS'N1_t_r'
p4476
aS'N1_t_p_r_VBP_VBN_IN'
p4477
aVN1_t_w_r_a
p4478
aS'N0_p_VBG_NNS_N1_p_VBP_VBN_IN'
p4479
aS'N0_p_VBG_NNS_N1_p_VBP_VBN_IN_N2_p_JJ'
p4480
aS'N0_w_rN1_p_VBP_VBN_IN_N2_p_JJ'
p4481
aI3
tp4482
a((lp4483
S'ST_p_WRB_JJ'
p4484
aVST_w_h
p4485
aVST_p_w_WRB_JJ_h
p4486
aS'N0_p_VBG_NNS'
p4487
aVN0_w_w
p4488
aVN0_p_w_VBG_NNS_w
p4489
aS'N0_t_r'
p4490
aS'N0_t_p_r_VBG_NNS'
p4491
aVN0_t_w_r_w
p4492
aVST_p_w_WRB_JJ_h_N0_p_w_VBG_NNS_w
p4493
aVST_p_w_WRB_JJ_h_N0_w_w
p4494
aS'ST_t_o_N0_p_VBG_NNS'
p4495
aVST_w_h_N0_t_r
p4496
aS'ST_p_WRB_JJ_N0_p_VBG_NNS'
p4497
aS'ST_t_o_N0_t_r'
p4498
aVAR_h_w
p4499
aS'N1_p_VBP_VBN_IN'
p4500
aVN1_w_a
p4501
aVN1_p_w_VBP_VBN_IN_a
p4502
aS'N1_t_r'
p4503
aS'N1_t_p_r_VBP_VBN_IN'
p4504
aVN1_t_w_r_a
p4505
aS'N0_p_VBG_NNS_N1_p_VBP_VBN_IN'
p4506
aS'N0_p_VBG_NNS_N1_p_VBP_VBN_IN_N2_p_JJ'
p4507
aS'N0_w_rN1_p_VBP_VBN_IN_N2_p_JJ'
p4508
aI0
tp4509
a((lp4510
S'ST_p_VBG_NNS'
p4511
aVST_w_w
p4512
aVST_p_w_VBG_NNS_w
p4513
aS'N0_p_VBP_VBN_IN'
p4514
aVN0_w_a
p4515
aVN0_p_w_VBP_VBN_IN_a
p4516
aS'N0_t_r'
p4517
aS'N0_t_p_r_VBP_VBN_IN'
p4518
aVN0_t_w_r_a
p4519
aVST_p_w_VBG_NNS_w_N0_p_w_VBP_VBN_IN_a
p4520
aVST_p_w_VBG_NNS_w_N0_w_a
p4521
aS'ST_t_r_N0_p_VBP_VBN_IN'
p4522
aVST_w_w_N0_t_r
p4523
aS'ST_p_VBG_NNS_N0_p_VBP_VBN_IN'
p4524
aS'ST_t_r_N0_t_r'
p4525
aS'N1_p_JJ'
p4526
aVN1_w_j
p4527
aVN1_p_w_JJ_j
p4528
aS'N1_t_a'
p4529
aS'N1_t_p_a_JJ'
p4530
aVN1_t_w_a_j
p4531
aS'N0_p_VBP_VBN_IN_N1_p_JJ'
p4532
aI1
tp4533
a((lp4534
S'ST_p_WRB_JJ'
p4535
aVST_w_h
p4536
aVST_p_w_WRB_JJ_h
p4537
aS'N0_p_VBP_VBN_IN'
p4538
aVN0_w_a
p4539
aVN0_p_w_VBP_VBN_IN_a
p4540
aS'N0_t_r'
p4541
aS'N0_t_p_r_VBP_VBN_IN'
p4542
aVN0_t_w_r_a
p4543
aVST_p_w_WRB_JJ_h_N0_p_w_VBP_VBN_IN_a
p4544
aVST_p_w_WRB_JJ_h_N0_w_a
p4545
aS'ST_t_o_N0_p_VBP_VBN_IN'
p4546
aVST_w_h_N0_t_r
p4547
aS'ST_p_WRB_JJ_N0_p_VBP_VBN_IN'
p4548
aS'ST_t_o_N0_t_r'
p4549
aS'N1_p_JJ'
p4550
aVN1_w_j
p4551
aVN1_p_w_JJ_j
p4552
aS'N1_t_a'
p4553
aS'N1_t_p_a_JJ'
p4554
aVN1_t_w_a_j
p4555
aS'N0_p_VBP_VBN_IN_N1_p_JJ'
p4556
aI0
tp4557
a((lp4558
S'ST_p_VBP_VBN_IN'
p4559
aVST_w_a
p4560
aVST_p_w_VBP_VBN_IN_a
p4561
aS'N0_p_JJ'
p4562
aVN0_w_j
p4563
aVN0_p_w_JJ_j
p4564
aS'N0_t_a'
p4565
aS'N0_t_p_a_JJ'
p4566
aVN0_t_w_a_j
p4567
aVST_p_w_VBP_VBN_IN_a_N0_p_w_JJ_j
p4568
aVST_p_w_VBP_VBN_IN_a_N0_w_j
p4569
aS'ST_t_r_N0_p_JJ'
p4570
aVST_w_a_N0_t_a
p4571
aS'ST_p_VBP_VBN_IN_N0_p_JJ'
p4572
aS'ST_t_r_N0_t_a'
p4573
aI2
tp4574
a((lp4575
S'ST_p_VBP_VBN_IN'
p4576
aVST_w_a
p4577
aVST_p_w_VBP_VBN_IN_a
p4578
aS'N0_p_JJ'
p4579
aVN0_w_j
p4580
aVN0_p_w_JJ_j
p4581
aS'N0_t_a'
p4582
aS'N0_t_p_a_JJ'
p4583
aVN0_t_w_a_j
p4584
aVST_p_w_VBP_VBN_IN_a_N0_p_w_JJ_j
p4585
aVST_p_w_VBP_VBN_IN_a_N0_w_j
p4586
aS'ST_t_r_N0_p_JJ'
p4587
aVST_w_a_N0_t_a
p4588
aS'ST_p_VBP_VBN_IN_N0_p_JJ'
p4589
aS'ST_t_r_N0_t_a'
p4590
aVAL_j_a
p4591
aI1
tp4592
a((lp4593
S'ST_p_WRB_JJ'
p4594
aVST_w_h
p4595
aVST_p_w_WRB_JJ_h
p4596
aS'N0_p_JJ'
p4597
aVN0_w_j
p4598
aVN0_p_w_JJ_j
p4599
aS'N0_t_a'
p4600
aS'N0_t_p_a_JJ'
p4601
aVN0_t_w_a_j
p4602
aVST_p_w_WRB_JJ_h_N0_p_w_JJ_j
p4603
aVST_p_w_WRB_JJ_h_N0_w_j
p4604
aS'ST_t_o_N0_p_JJ'
p4605
aVST_w_h_N0_t_a
p4606
aS'ST_p_WRB_JJ_N0_p_JJ'
p4607
aS'ST_t_o_N0_t_a'
p4608
aI3
tp4609
a((lp4610
S'ST_p_WRB_JJ'
p4611
aVST_w_h
p4612
aVST_p_w_WRB_JJ_h
p4613
aS'N0_p_JJ'
p4614
aVN0_w_j
p4615
aVN0_p_w_JJ_j
p4616
aS'N0_t_a'
p4617
aS'N0_t_p_a_JJ'
p4618
aVN0_t_w_a_j
p4619
aVST_p_w_WRB_JJ_h_N0_p_w_JJ_j
p4620
aVST_p_w_WRB_JJ_h_N0_w_j
p4621
aS'ST_t_o_N0_p_JJ'
p4622
aVST_w_h_N0_t_a
p4623
aS'ST_p_WRB_JJ_N0_p_JJ'
p4624
aS'ST_t_o_N0_t_a'
p4625
aVAR_h_j
p4626
aI1
tp4627
a((lp4628
S'N0_p_JJ'
p4629
aVN0_w_j
p4630
aVN0_p_w_JJ_j
p4631
aS'N0_t_a'
p4632
aS'N0_t_p_a_JJ'
p4633
aVN0_t_w_a_j
p4634
aI0
tp4635
a((lp4636
S'N0_p_WP'
p4637
aVN0_w_w
p4638
aVN0_p_w_WP_w
p4639
aS'N0_t_h'
p4640
aS'N0_t_p_h_WP'
p4641
aVN0_t_w_h_w
p4642
aS'N1_p_VBZ'
p4643
aVN1_w_i
p4644
aVN1_p_w_VBZ_i
p4645
aS'N1_t_s'
p4646
aS'N1_t_p_s_VBZ'
p4647
aVN1_t_w_s_i
p4648
aS'N0_p_WP_N1_p_VBZ'
p4649
aS'N0_p_WP_N1_p_VBZ_N2_p_NN_IN'
p4650
aS'N0_w_hN1_p_VBZ_N2_p_NN_IN'
p4651
aI0
tp4652
a((lp4653
S'ST_p_WP'
p4654
aVST_w_w
p4655
aVST_p_w_WP_w
p4656
aS'N0_p_VBZ'
p4657
aVN0_w_i
p4658
aVN0_p_w_VBZ_i
p4659
aS'N0_t_s'
p4660
aS'N0_t_p_s_VBZ'
p4661
aVN0_t_w_s_i
p4662
aVST_p_w_WP_w_N0_p_w_VBZ_i
p4663
aVST_p_w_WP_w_N0_w_i
p4664
aS'ST_t_h_N0_p_VBZ'
p4665
aVST_w_w_N0_t_s
p4666
aS'ST_p_WP_N0_p_VBZ'
p4667
aS'ST_t_h_N0_t_s'
p4668
aS'N1_p_NN_IN'
p4669
aVN1_w_c
p4670
aVN1_p_w_NN_IN_c
p4671
aS'N1_t_e'
p4672
aS'N1_t_p_e_NN_IN'
p4673
aVN1_t_w_e_c
p4674
aS'N0_p_VBZ_N1_p_NN_IN'
p4675
aS'N0_p_VBZ_N1_p_NN_IN_N2_p_NNP'
p4676
aS'N0_w_sN1_p_NN_IN_N2_p_NNP'
p4677
aI3
tp4678
a((lp4679
S'ST_p_WP'
p4680
aVST_w_w
p4681
aVST_p_w_WP_w
p4682
aS'N0_p_VBZ'
p4683
aVN0_w_i
p4684
aVN0_p_w_VBZ_i
p4685
aS'N0_t_s'
p4686
aS'N0_t_p_s_VBZ'
p4687
aVN0_t_w_s_i
p4688
aVST_p_w_WP_w_N0_p_w_VBZ_i
p4689
aVST_p_w_WP_w_N0_w_i
p4690
aS'ST_t_h_N0_p_VBZ'
p4691
aVST_w_w_N0_t_s
p4692
aS'ST_p_WP_N0_p_VBZ'
p4693
aS'ST_t_h_N0_t_s'
p4694
aVAR_w_i
p4695
aS'N1_p_NN_IN'
p4696
aVN1_w_c
p4697
aVN1_p_w_NN_IN_c
p4698
aS'N1_t_e'
p4699
aS'N1_t_p_e_NN_IN'
p4700
aVN1_t_w_e_c
p4701
aS'N0_p_VBZ_N1_p_NN_IN'
p4702
aS'N0_p_VBZ_N1_p_NN_IN_N2_p_NNP'
p4703
aS'N0_w_sN1_p_NN_IN_N2_p_NNP'
p4704
aI0
tp4705
a((lp4706
S'ST_p_VBZ'
p4707
aVST_w_i
p4708
aVST_p_w_VBZ_i
p4709
aS'N0_p_NN_IN'
p4710
aVN0_w_c
p4711
aVN0_p_w_NN_IN_c
p4712
aS'N0_t_e'
p4713
aS'N0_t_p_e_NN_IN'
p4714
aVN0_t_w_e_c
p4715
aVST_p_w_VBZ_i_N0_p_w_NN_IN_c
p4716
aVST_p_w_VBZ_i_N0_w_c
p4717
aS'ST_t_s_N0_p_NN_IN'
p4718
aVST_w_i_N0_t_e
p4719
aS'ST_p_VBZ_N0_p_NN_IN'
p4720
aS'ST_t_s_N0_t_e'
p4721
aS'N1_p_NNP'
p4722
aVN1_w_S
p4723
aVN1_p_w_NNP_S
p4724
aS'N1_t_a'
p4725
aS'N1_t_p_a_NNP'
p4726
aVN1_t_w_a_S
p4727
aS'N0_p_NN_IN_N1_p_NNP'
p4728
aI1
tp4729
a((lp4730
S'ST_p_WP'
p4731
aVST_w_w
p4732
aVST_p_w_WP_w
p4733
aS'N0_p_NN_IN'
p4734
aVN0_w_c
p4735
aVN0_p_w_NN_IN_c
p4736
aS'N0_t_e'
p4737
aS'N0_t_p_e_NN_IN'
p4738
aVN0_t_w_e_c
p4739
aVST_p_w_WP_w_N0_p_w_NN_IN_c
p4740
aVST_p_w_WP_w_N0_w_c
p4741
aS'ST_t_h_N0_p_NN_IN'
p4742
aVST_w_w_N0_t_e
p4743
aS'ST_p_WP_N0_p_NN_IN'
p4744
aS'ST_t_h_N0_t_e'
p4745
aS'N1_p_NNP'
p4746
aVN1_w_S
p4747
aVN1_p_w_NNP_S
p4748
aS'N1_t_a'
p4749
aS'N1_t_p_a_NNP'
p4750
aVN1_t_w_a_S
p4751
aS'N0_p_NN_IN_N1_p_NNP'
p4752
aI0
tp4753
a((lp4754
S'ST_p_NN_IN'
p4755
aVST_w_c
p4756
aVST_p_w_NN_IN_c
p4757
aS'N0_p_NNP'
p4758
aVN0_w_S
p4759
aVN0_p_w_NNP_S
p4760
aS'N0_t_a'
p4761
aS'N0_t_p_a_NNP'
p4762
aVN0_t_w_a_S
p4763
aVST_p_w_NN_IN_c_N0_p_w_NNP_S
p4764
aVST_p_w_NN_IN_c_N0_w_S
p4765
aS'ST_t_e_N0_p_NNP'
p4766
aVST_w_c_N0_t_a
p4767
aS'ST_p_NN_IN_N0_p_NNP'
p4768
aS'ST_t_e_N0_t_a'
p4769
aI2
tp4770
a((lp4771
S'ST_p_NN_IN'
p4772
aVST_w_c
p4773
aVST_p_w_NN_IN_c
p4774
aS'N0_p_NNP'
p4775
aVN0_w_S
p4776
aVN0_p_w_NNP_S
p4777
aS'N0_t_a'
p4778
aS'N0_t_p_a_NNP'
p4779
aVN0_t_w_a_S
p4780
aVST_p_w_NN_IN_c_N0_p_w_NNP_S
p4781
aVST_p_w_NN_IN_c_N0_w_S
p4782
aS'ST_t_e_N0_p_NNP'
p4783
aVST_w_c_N0_t_a
p4784
aS'ST_p_NN_IN_N0_p_NNP'
p4785
aS'ST_t_e_N0_t_a'
p4786
aVAL_S_c
p4787
aI1
tp4788
a((lp4789
S'ST_p_WP'
p4790
aVST_w_w
p4791
aVST_p_w_WP_w
p4792
aS'N0_p_NNP'
p4793
aVN0_w_S
p4794
aVN0_p_w_NNP_S
p4795
aS'N0_t_a'
p4796
aS'N0_t_p_a_NNP'
p4797
aVN0_t_w_a_S
p4798
aVST_p_w_WP_w_N0_p_w_NNP_S
p4799
aVST_p_w_WP_w_N0_w_S
p4800
aS'ST_t_h_N0_p_NNP'
p4801
aVST_w_w_N0_t_a
p4802
aS'ST_p_WP_N0_p_NNP'
p4803
aS'ST_t_h_N0_t_a'
p4804
aI3
tp4805
a((lp4806
S'ST_p_WP'
p4807
aVST_w_w
p4808
aVST_p_w_WP_w
p4809
aS'N0_p_NNP'
p4810
aVN0_w_S
p4811
aVN0_p_w_NNP_S
p4812
aS'N0_t_a'
p4813
aS'N0_t_p_a_NNP'
p4814
aVN0_t_w_a_S
p4815
aVST_p_w_WP_w_N0_p_w_NNP_S
p4816
aVST_p_w_WP_w_N0_w_S
p4817
aS'ST_t_h_N0_p_NNP'
p4818
aVST_w_w_N0_t_a
p4819
aS'ST_p_WP_N0_p_NNP'
p4820
aS'ST_t_h_N0_t_a'
p4821
aVAR_w_S
p4822
aI1
tp4823
a((lp4824
S'N0_p_NNP'
p4825
aVN0_w_S
p4826
aVN0_p_w_NNP_S
p4827
aS'N0_t_a'
p4828
aS'N0_t_p_a_NNP'
p4829
aVN0_t_w_a_S
p4830
aI0
tp4831
a((lp4832
S'N0_p_WRB_JJ'
p4833
aVN0_w_h
p4834
aVN0_p_w_WRB_JJ_h
p4835
aS'N0_t_o'
p4836
aS'N0_t_p_o_WRB_JJ'
p4837
aVN0_t_w_o_h
p4838
aS'N1_p_NNS'
p4839
aVN1_w_c
p4840
aVN1_p_w_NNS_c
p4841
aS'N1_t_o'
p4842
aS'N1_t_p_o_NNS'
p4843
aVN1_t_w_o_c
p4844
aS'N0_p_WRB_JJ_N1_p_NNS'
p4845
aS'N0_p_WRB_JJ_N1_p_NNS_N2_p_VBP_VBN_VBN_IN'
p4846
aS'N0_w_oN1_p_NNS_N2_p_VBP_VBN_VBN_IN'
p4847
aI0
tp4848
a((lp4849
S'ST_p_WRB_JJ'
p4850
aVST_w_h
p4851
aVST_p_w_WRB_JJ_h
p4852
aS'N0_p_NNS'
p4853
aVN0_w_c
p4854
aVN0_p_w_NNS_c
p4855
aS'N0_t_o'
p4856
aS'N0_t_p_o_NNS'
p4857
aVN0_t_w_o_c
p4858
aVST_p_w_WRB_JJ_h_N0_p_w_NNS_c
p4859
aVST_p_w_WRB_JJ_h_N0_w_c
p4860
aS'ST_t_o_N0_p_NNS'
p4861
aVST_w_h_N0_t_o
p4862
aS'ST_p_WRB_JJ_N0_p_NNS'
p4863
aS'ST_t_o_N0_t_o'
p4864
aS'N1_p_VBP_VBN_VBN_IN'
p4865
aVN1_w_h
p4866
aVN1_p_w_VBP_VBN_VBN_IN_h
p4867
aS'N1_t_a'
p4868
aS'N1_t_p_a_VBP_VBN_VBN_IN'
p4869
aVN1_t_w_a_h
p4870
aS'N0_p_NNS_N1_p_VBP_VBN_VBN_IN'
p4871
aS'N0_p_NNS_N1_p_VBP_VBN_VBN_IN_N2_p_NNP_NNP_NN_NN'
p4872
aS'N0_w_oN1_p_VBP_VBN_VBN_IN_N2_p_NNP_NNP_NN_NN'
p4873
aI0
tp4874
a((lp4875
S'ST_p_NNS'
p4876
aVST_w_c
p4877
aVST_p_w_NNS_c
p4878
aS'N0_p_VBP_VBN_VBN_IN'
p4879
aVN0_w_h
p4880
aVN0_p_w_VBP_VBN_VBN_IN_h
p4881
aS'N0_t_a'
p4882
aS'N0_t_p_a_VBP_VBN_VBN_IN'
p4883
aVN0_t_w_a_h
p4884
aVST_p_w_NNS_c_N0_p_w_VBP_VBN_VBN_IN_h
p4885
aVST_p_w_NNS_c_N0_w_h
p4886
aS'ST_t_o_N0_p_VBP_VBN_VBN_IN'
p4887
aVST_w_c_N0_t_a
p4888
aS'ST_p_NNS_N0_p_VBP_VBN_VBN_IN'
p4889
aS'ST_t_o_N0_t_a'
p4890
aS'N1_p_NNP_NNP_NN_NN'
p4891
aVN1_w_L
p4892
aVN1_p_w_NNP_NNP_NN_NN_L
p4893
aS'N1_t_o'
p4894
aS'N1_t_p_o_NNP_NNP_NN_NN'
p4895
aVN1_t_w_o_L
p4896
aS'N0_p_VBP_VBN_VBN_IN_N1_p_NNP_NNP_NN_NN'
p4897
aI2
tp4898
a((lp4899
S'ST_p_NNS'
p4900
aVST_w_c
p4901
aVST_p_w_NNS_c
p4902
aS'N0_p_VBP_VBN_VBN_IN'
p4903
aVN0_w_h
p4904
aVN0_p_w_VBP_VBN_VBN_IN_h
p4905
aS'N0_t_a'
p4906
aS'N0_t_p_a_VBP_VBN_VBN_IN'
p4907
aVN0_t_w_a_h
p4908
aVST_p_w_NNS_c_N0_p_w_VBP_VBN_VBN_IN_h
p4909
aVST_p_w_NNS_c_N0_w_h
p4910
aS'ST_t_o_N0_p_VBP_VBN_VBN_IN'
p4911
aVST_w_c_N0_t_a
p4912
aS'ST_p_NNS_N0_p_VBP_VBN_VBN_IN'
p4913
aS'ST_t_o_N0_t_a'
p4914
aVAL_h_c
p4915
aS'N1_p_NNP_NNP_NN_NN'
p4916
aVN1_w_L
p4917
aVN1_p_w_NNP_NNP_NN_NN_L
p4918
aS'N1_t_o'
p4919
aS'N1_t_p_o_NNP_NNP_NN_NN'
p4920
aVN1_t_w_o_L
p4921
aS'N0_p_VBP_VBN_VBN_IN_N1_p_NNP_NNP_NN_NN'
p4922
aI1
tp4923
a((lp4924
S'ST_p_WRB_JJ'
p4925
aVST_w_h
p4926
aVST_p_w_WRB_JJ_h
p4927
aS'N0_p_VBP_VBN_VBN_IN'
p4928
aVN0_w_h
p4929
aVN0_p_w_VBP_VBN_VBN_IN_h
p4930
aS'N0_t_a'
p4931
aS'N0_t_p_a_VBP_VBN_VBN_IN'
p4932
aVN0_t_w_a_h
p4933
aVST_p_w_WRB_JJ_h_N0_p_w_VBP_VBN_VBN_IN_h
p4934
aVST_p_w_WRB_JJ_h_N0_w_h
p4935
aS'ST_t_o_N0_p_VBP_VBN_VBN_IN'
p4936
aVST_w_h_N0_t_a
p4937
aS'ST_p_WRB_JJ_N0_p_VBP_VBN_VBN_IN'
p4938
aS'ST_t_o_N0_t_a'
p4939
aS'N1_p_NNP_NNP_NN_NN'
p4940
aVN1_w_L
p4941
aVN1_p_w_NNP_NNP_NN_NN_L
p4942
aS'N1_t_o'
p4943
aS'N1_t_p_o_NNP_NNP_NN_NN'
p4944
aVN1_t_w_o_L
p4945
aS'N0_p_VBP_VBN_VBN_IN_N1_p_NNP_NNP_NN_NN'
p4946
aI3
tp4947
a((lp4948
S'ST_p_WRB_JJ'
p4949
aVST_w_h
p4950
aVST_p_w_WRB_JJ_h
p4951
aS'N0_p_VBP_VBN_VBN_IN'
p4952
aVN0_w_h
p4953
aVN0_p_w_VBP_VBN_VBN_IN_h
p4954
aS'N0_t_a'
p4955
aS'N0_t_p_a_VBP_VBN_VBN_IN'
p4956
aVN0_t_w_a_h
p4957
aVST_p_w_WRB_JJ_h_N0_p_w_VBP_VBN_VBN_IN_h
p4958
aVST_p_w_WRB_JJ_h_N0_w_h
p4959
aS'ST_t_o_N0_p_VBP_VBN_VBN_IN'
p4960
aVST_w_h_N0_t_a
p4961
aS'ST_p_WRB_JJ_N0_p_VBP_VBN_VBN_IN'
p4962
aS'ST_t_o_N0_t_a'
p4963
aVAR_h_h
p4964
aS'N1_p_NNP_NNP_NN_NN'
p4965
aVN1_w_L
p4966
aVN1_p_w_NNP_NNP_NN_NN_L
p4967
aS'N1_t_o'
p4968
aS'N1_t_p_o_NNP_NNP_NN_NN'
p4969
aVN1_t_w_o_L
p4970
aS'N0_p_VBP_VBN_VBN_IN_N1_p_NNP_NNP_NN_NN'
p4971
aI0
tp4972
a((lp4973
S'ST_p_VBP_VBN_VBN_IN'
p4974
aVST_w_h
p4975
aVST_p_w_VBP_VBN_VBN_IN_h
p4976
aS'N0_p_NNP_NNP_NN_NN'
p4977
aVN0_w_L
p4978
aVN0_p_w_NNP_NNP_NN_NN_L
p4979
aS'N0_t_o'
p4980
aS'N0_t_p_o_NNP_NNP_NN_NN'
p4981
aVN0_t_w_o_L
p4982
aVST_p_w_VBP_VBN_VBN_IN_h_N0_p_w_NNP_NNP_NN_NN_L
p4983
aVST_p_w_VBP_VBN_VBN_IN_h_N0_w_L
p4984
aS'ST_t_a_N0_p_NNP_NNP_NN_NN'
p4985
aVST_w_h_N0_t_o
p4986
aS'ST_p_VBP_VBN_VBN_IN_N0_p_NNP_NNP_NN_NN'
p4987
aS'ST_t_a_N0_t_o'
p4988
aI1
tp4989
a((lp4990
S'ST_p_WRB_JJ'
p4991
aVST_w_h
p4992
aVST_p_w_WRB_JJ_h
p4993
aS'N0_p_NNP_NNP_NN_NN'
p4994
aVN0_w_L
p4995
aVN0_p_w_NNP_NNP_NN_NN_L
p4996
aS'N0_t_o'
p4997
aS'N0_t_p_o_NNP_NNP_NN_NN'
p4998
aVN0_t_w_o_L
p4999
aVST_p_w_WRB_JJ_h_N0_p_w_NNP_NNP_NN_NN_L
p5000
aVST_p_w_WRB_JJ_h_N0_w_L
p5001
aS'ST_t_o_N0_p_NNP_NNP_NN_NN'
p5002
aVST_w_h_N0_t_o
p5003
aS'ST_p_WRB_JJ_N0_p_NNP_NNP_NN_NN'
p5004
aS'ST_t_o_N0_t_o'
p5005
aI3
tp5006
a((lp5007
S'ST_p_WRB_JJ'
p5008
aVST_w_h
p5009
aVST_p_w_WRB_JJ_h
p5010
aS'N0_p_NNP_NNP_NN_NN'
p5011
aVN0_w_L
p5012
aVN0_p_w_NNP_NNP_NN_NN_L
p5013
aS'N0_t_o'
p5014
aS'N0_t_p_o_NNP_NNP_NN_NN'
p5015
aVN0_t_w_o_L
p5016
aVST_p_w_WRB_JJ_h_N0_p_w_NNP_NNP_NN_NN_L
p5017
aVST_p_w_WRB_JJ_h_N0_w_L
p5018
aS'ST_t_o_N0_p_NNP_NNP_NN_NN'
p5019
aVST_w_h_N0_t_o
p5020
aS'ST_p_WRB_JJ_N0_p_NNP_NNP_NN_NN'
p5021
aS'ST_t_o_N0_t_o'
p5022
aVAR_h_L
p5023
aI1
tp5024
a((lp5025
S'N0_p_NNP_NNP_NN_NN'
p5026
aVN0_w_L
p5027
aVN0_p_w_NNP_NNP_NN_NN_L
p5028
aS'N0_t_o'
p5029
aS'N0_t_p_o_NNP_NNP_NN_NN'
p5030
aVN0_t_w_o_L
p5031
aI0
tp5032
a((lp5033
S'N0_p_WP'
p5034
aVN0_w_w
p5035
aVN0_p_w_WP_w
p5036
aS'N0_t_h'
p5037
aS'N0_t_p_h_WP'
p5038
aVN0_t_w_h_w
p5039
aS'N1_p_NN_NN'
p5040
aVN1_w_m
p5041
aVN1_p_w_NN_NN_m
p5042
aS'N1_t_o'
p5043
aS'N1_t_p_o_NN_NN'
p5044
aVN1_t_w_o_m
p5045
aS'N0_p_WP_N1_p_NN_NN'
p5046
aS'N0_p_WP_N1_p_NN_NN_N2_p_VBZ_IN'
p5047
aS'N0_w_hN1_p_NN_NN_N2_p_VBZ_IN'
p5048
aI0
tp5049
a((lp5050
S'ST_p_WP'
p5051
aVST_w_w
p5052
aVST_p_w_WP_w
p5053
aS'N0_p_NN_NN'
p5054
aVN0_w_m
p5055
aVN0_p_w_NN_NN_m
p5056
aS'N0_t_o'
p5057
aS'N0_t_p_o_NN_NN'
p5058
aVN0_t_w_o_m
p5059
aVST_p_w_WP_w_N0_p_w_NN_NN_m
p5060
aVST_p_w_WP_w_N0_w_m
p5061
aS'ST_t_h_N0_p_NN_NN'
p5062
aVST_w_w_N0_t_o
p5063
aS'ST_p_WP_N0_p_NN_NN'
p5064
aS'ST_t_h_N0_t_o'
p5065
aS'N1_p_VBZ_IN'
p5066
aVN1_w_i
p5067
aVN1_p_w_VBZ_IN_i
p5068
aS'N1_t_s'
p5069
aS'N1_t_p_s_VBZ_IN'
p5070
aVN1_t_w_s_i
p5071
aS'N0_p_NN_NN_N1_p_VBZ_IN'
p5072
aS'N0_p_NN_NN_N1_p_VBZ_IN_N2_p_VBG_NNP_NNP'
p5073
aS'N0_w_oN1_p_VBZ_IN_N2_p_VBG_NNP_NNP'
p5074
aI3
tp5075
a((lp5076
S'ST_p_WP'
p5077
aVST_w_w
p5078
aVST_p_w_WP_w
p5079
aS'N0_p_NN_NN'
p5080
aVN0_w_m
p5081
aVN0_p_w_NN_NN_m
p5082
aS'N0_t_o'
p5083
aS'N0_t_p_o_NN_NN'
p5084
aVN0_t_w_o_m
p5085
aVST_p_w_WP_w_N0_p_w_NN_NN_m
p5086
aVST_p_w_WP_w_N0_w_m
p5087
aS'ST_t_h_N0_p_NN_NN'
p5088
aVST_w_w_N0_t_o
p5089
aS'ST_p_WP_N0_p_NN_NN'
p5090
aS'ST_t_h_N0_t_o'
p5091
aVAR_w_m
p5092
aS'N1_p_VBZ_IN'
p5093
aVN1_w_i
p5094
aVN1_p_w_VBZ_IN_i
p5095
aS'N1_t_s'
p5096
aS'N1_t_p_s_VBZ_IN'
p5097
aVN1_t_w_s_i
p5098
aS'N0_p_NN_NN_N1_p_VBZ_IN'
p5099
aS'N0_p_NN_NN_N1_p_VBZ_IN_N2_p_VBG_NNP_NNP'
p5100
aS'N0_w_oN1_p_VBZ_IN_N2_p_VBG_NNP_NNP'
p5101
aI0
tp5102
a((lp5103
S'ST_p_NN_NN'
p5104
aVST_w_m
p5105
aVST_p_w_NN_NN_m
p5106
aS'N0_p_VBZ_IN'
p5107
aVN0_w_i
p5108
aVN0_p_w_VBZ_IN_i
p5109
aS'N0_t_s'
p5110
aS'N0_t_p_s_VBZ_IN'
p5111
aVN0_t_w_s_i
p5112
aVST_p_w_NN_NN_m_N0_p_w_VBZ_IN_i
p5113
aVST_p_w_NN_NN_m_N0_w_i
p5114
aS'ST_t_o_N0_p_VBZ_IN'
p5115
aVST_w_m_N0_t_s
p5116
aS'ST_p_NN_NN_N0_p_VBZ_IN'
p5117
aS'ST_t_o_N0_t_s'
p5118
aS'N1_p_VBG_NNP_NNP'
p5119
aVN1_w_K
p5120
aVN1_p_w_VBG_NNP_NNP_K
p5121
aS'N1_t_i'
p5122
aS'N1_t_p_i_VBG_NNP_NNP'
p5123
aVN1_t_w_i_K
p5124
aS'N0_p_VBZ_IN_N1_p_VBG_NNP_NNP'
p5125
aI1
tp5126
a((lp5127
S'ST_p_WP'
p5128
aVST_w_w
p5129
aVST_p_w_WP_w
p5130
aS'N0_p_VBZ_IN'
p5131
aVN0_w_i
p5132
aVN0_p_w_VBZ_IN_i
p5133
aS'N0_t_s'
p5134
aS'N0_t_p_s_VBZ_IN'
p5135
aVN0_t_w_s_i
p5136
aVST_p_w_WP_w_N0_p_w_VBZ_IN_i
p5137
aVST_p_w_WP_w_N0_w_i
p5138
aS'ST_t_h_N0_p_VBZ_IN'
p5139
aVST_w_w_N0_t_s
p5140
aS'ST_p_WP_N0_p_VBZ_IN'
p5141
aS'ST_t_h_N0_t_s'
p5142
aS'N1_p_VBG_NNP_NNP'
p5143
aVN1_w_K
p5144
aVN1_p_w_VBG_NNP_NNP_K
p5145
aS'N1_t_i'
p5146
aS'N1_t_p_i_VBG_NNP_NNP'
p5147
aVN1_t_w_i_K
p5148
aS'N0_p_VBZ_IN_N1_p_VBG_NNP_NNP'
p5149
aI0
tp5150
a((lp5151
S'ST_p_VBZ_IN'
p5152
aVST_w_i
p5153
aVST_p_w_VBZ_IN_i
p5154
aS'N0_p_VBG_NNP_NNP'
p5155
aVN0_w_K
p5156
aVN0_p_w_VBG_NNP_NNP_K
p5157
aS'N0_t_i'
p5158
aS'N0_t_p_i_VBG_NNP_NNP'
p5159
aVN0_t_w_i_K
p5160
aVST_p_w_VBZ_IN_i_N0_p_w_VBG_NNP_NNP_K
p5161
aVST_p_w_VBZ_IN_i_N0_w_K
p5162
aS'ST_t_s_N0_p_VBG_NNP_NNP'
p5163
aVST_w_i_N0_t_i
p5164
aS'ST_p_VBZ_IN_N0_p_VBG_NNP_NNP'
p5165
aS'ST_t_s_N0_t_i'
p5166
aI2
tp5167
a((lp5168
S'ST_p_VBZ_IN'
p5169
aVST_w_i
p5170
aVST_p_w_VBZ_IN_i
p5171
aS'N0_p_VBG_NNP_NNP'
p5172
aVN0_w_K
p5173
aVN0_p_w_VBG_NNP_NNP_K
p5174
aS'N0_t_i'
p5175
aS'N0_t_p_i_VBG_NNP_NNP'
p5176
aVN0_t_w_i_K
p5177
aVST_p_w_VBZ_IN_i_N0_p_w_VBG_NNP_NNP_K
p5178
aVST_p_w_VBZ_IN_i_N0_w_K
p5179
aS'ST_t_s_N0_p_VBG_NNP_NNP'
p5180
aVST_w_i_N0_t_i
p5181
aS'ST_p_VBZ_IN_N0_p_VBG_NNP_NNP'
p5182
aS'ST_t_s_N0_t_i'
p5183
aVAL_K_i
p5184
aI1
tp5185
a((lp5186
S'ST_p_WP'
p5187
aVST_w_w
p5188
aVST_p_w_WP_w
p5189
aS'N0_p_VBG_NNP_NNP'
p5190
aVN0_w_K
p5191
aVN0_p_w_VBG_NNP_NNP_K
p5192
aS'N0_t_i'
p5193
aS'N0_t_p_i_VBG_NNP_NNP'
p5194
aVN0_t_w_i_K
p5195
aVST_p_w_WP_w_N0_p_w_VBG_NNP_NNP_K
p5196
aVST_p_w_WP_w_N0_w_K
p5197
aS'ST_t_h_N0_p_VBG_NNP_NNP'
p5198
aVST_w_w_N0_t_i
p5199
aS'ST_p_WP_N0_p_VBG_NNP_NNP'
p5200
aS'ST_t_h_N0_t_i'
p5201
aI3
tp5202
a((lp5203
S'ST_p_WP'
p5204
aVST_w_w
p5205
aVST_p_w_WP_w
p5206
aS'N0_p_VBG_NNP_NNP'
p5207
aVN0_w_K
p5208
aVN0_p_w_VBG_NNP_NNP_K
p5209
aS'N0_t_i'
p5210
aS'N0_t_p_i_VBG_NNP_NNP'
p5211
aVN0_t_w_i_K
p5212
aVST_p_w_WP_w_N0_p_w_VBG_NNP_NNP_K
p5213
aVST_p_w_WP_w_N0_w_K
p5214
aS'ST_t_h_N0_p_VBG_NNP_NNP'
p5215
aVST_w_w_N0_t_i
p5216
aS'ST_p_WP_N0_p_VBG_NNP_NNP'
p5217
aS'ST_t_h_N0_t_i'
p5218
aVAR_w_K
p5219
aI1
tp5220
a((lp5221
S'N0_p_VBG_NNP_NNP'
p5222
aVN0_w_K
p5223
aVN0_p_w_VBG_NNP_NNP_K
p5224
aS'N0_t_i'
p5225
aS'N0_t_p_i_VBG_NNP_NNP'
p5226
aVN0_t_w_i_K
p5227
aI0
tp5228
a((lp5229
S'N0_p_WDT'
p5230
aVN0_w_w
p5231
aVN0_p_w_WDT_w
p5232
aS'N0_t_h'
p5233
aS'N0_t_p_h_WDT'
p5234
aVN0_t_w_h_w
p5235
aS'N1_p_VBP_DT_IN'
p5236
aVN1_w_a
p5237
aVN1_p_w_VBP_DT_IN_a
p5238
aS'N1_t_r'
p5239
aS'N1_t_p_r_VBP_DT_IN'
p5240
aVN1_t_w_r_a
p5241
aS'N0_p_WDT_N1_p_VBP_DT_IN'
p5242
aS'N0_p_WDT_N1_p_VBP_DT_IN_N2_p_NNS'
p5243
aS'N0_w_hN1_p_VBP_DT_IN_N2_p_NNS'
p5244
aI0
tp5245
a((lp5246
S'ST_p_WDT'
p5247
aVST_w_w
p5248
aVST_p_w_WDT_w
p5249
aS'N0_p_VBP_DT_IN'
p5250
aVN0_w_a
p5251
aVN0_p_w_VBP_DT_IN_a
p5252
aS'N0_t_r'
p5253
aS'N0_t_p_r_VBP_DT_IN'
p5254
aVN0_t_w_r_a
p5255
aVST_p_w_WDT_w_N0_p_w_VBP_DT_IN_a
p5256
aVST_p_w_WDT_w_N0_w_a
p5257
aS'ST_t_h_N0_p_VBP_DT_IN'
p5258
aVST_w_w_N0_t_r
p5259
aS'ST_p_WDT_N0_p_VBP_DT_IN'
p5260
aS'ST_t_h_N0_t_r'
p5261
aS'N1_p_NNS'
p5262
aVN1_w_h
p5263
aVN1_p_w_NNS_h
p5264
aS'N1_t_o'
p5265
aS'N1_t_p_o_NNS'
p5266
aVN1_t_w_o_h
p5267
aS'N0_p_VBP_DT_IN_N1_p_NNS'
p5268
aS'N0_p_VBP_DT_IN_N1_p_NNS_N2_p_NNP'
p5269
aS'N0_w_rN1_p_NNS_N2_p_NNP'
p5270
aI3
tp5271
a((lp5272
S'ST_p_WDT'
p5273
aVST_w_w
p5274
aVST_p_w_WDT_w
p5275
aS'N0_p_VBP_DT_IN'
p5276
aVN0_w_a
p5277
aVN0_p_w_VBP_DT_IN_a
p5278
aS'N0_t_r'
p5279
aS'N0_t_p_r_VBP_DT_IN'
p5280
aVN0_t_w_r_a
p5281
aVST_p_w_WDT_w_N0_p_w_VBP_DT_IN_a
p5282
aVST_p_w_WDT_w_N0_w_a
p5283
aS'ST_t_h_N0_p_VBP_DT_IN'
p5284
aVST_w_w_N0_t_r
p5285
aS'ST_p_WDT_N0_p_VBP_DT_IN'
p5286
aS'ST_t_h_N0_t_r'
p5287
aVAR_w_a
p5288
aS'N1_p_NNS'
p5289
aVN1_w_h
p5290
aVN1_p_w_NNS_h
p5291
aS'N1_t_o'
p5292
aS'N1_t_p_o_NNS'
p5293
aVN1_t_w_o_h
p5294
aS'N0_p_VBP_DT_IN_N1_p_NNS'
p5295
aS'N0_p_VBP_DT_IN_N1_p_NNS_N2_p_NNP'
p5296
aS'N0_w_rN1_p_NNS_N2_p_NNP'
p5297
aI0
tp5298
a((lp5299
S'ST_p_VBP_DT_IN'
p5300
aVST_w_a
p5301
aVST_p_w_VBP_DT_IN_a
p5302
aS'N0_p_NNS'
p5303
aVN0_w_h
p5304
aVN0_p_w_NNS_h
p5305
aS'N0_t_o'
p5306
aS'N0_t_p_o_NNS'
p5307
aVN0_t_w_o_h
p5308
aVST_p_w_VBP_DT_IN_a_N0_p_w_NNS_h
p5309
aVST_p_w_VBP_DT_IN_a_N0_w_h
p5310
aS'ST_t_r_N0_p_NNS'
p5311
aVST_w_a_N0_t_o
p5312
aS'ST_p_VBP_DT_IN_N0_p_NNS'
p5313
aS'ST_t_r_N0_t_o'
p5314
aS'N1_p_NNP'
p5315
aVN1_w_V
p5316
aVN1_p_w_NNP_V
p5317
aS'N1_t_a'
p5318
aS'N1_t_p_a_NNP'
p5319
aVN1_t_w_a_V
p5320
aS'N0_p_NNS_N1_p_NNP'
p5321
aI1
tp5322
a((lp5323
S'ST_p_WDT'
p5324
aVST_w_w
p5325
aVST_p_w_WDT_w
p5326
aS'N0_p_NNS'
p5327
aVN0_w_h
p5328
aVN0_p_w_NNS_h
p5329
aS'N0_t_o'
p5330
aS'N0_t_p_o_NNS'
p5331
aVN0_t_w_o_h
p5332
aVST_p_w_WDT_w_N0_p_w_NNS_h
p5333
aVST_p_w_WDT_w_N0_w_h
p5334
aS'ST_t_h_N0_p_NNS'
p5335
aVST_w_w_N0_t_o
p5336
aS'ST_p_WDT_N0_p_NNS'
p5337
aS'ST_t_h_N0_t_o'
p5338
aS'N1_p_NNP'
p5339
aVN1_w_V
p5340
aVN1_p_w_NNP_V
p5341
aS'N1_t_a'
p5342
aS'N1_t_p_a_NNP'
p5343
aVN1_t_w_a_V
p5344
aS'N0_p_NNS_N1_p_NNP'
p5345
aI0
tp5346
a((lp5347
S'ST_p_NNS'
p5348
aVST_w_h
p5349
aVST_p_w_NNS_h
p5350
aS'N0_p_NNP'
p5351
aVN0_w_V
p5352
aVN0_p_w_NNP_V
p5353
aS'N0_t_a'
p5354
aS'N0_t_p_a_NNP'
p5355
aVN0_t_w_a_V
p5356
aVST_p_w_NNS_h_N0_p_w_NNP_V
p5357
aVST_p_w_NNS_h_N0_w_V
p5358
aS'ST_t_o_N0_p_NNP'
p5359
aVST_w_h_N0_t_a
p5360
aS'ST_p_NNS_N0_p_NNP'
p5361
aS'ST_t_o_N0_t_a'
p5362
aI2
tp5363
a((lp5364
S'ST_p_NNS'
p5365
aVST_w_h
p5366
aVST_p_w_NNS_h
p5367
aS'N0_p_NNP'
p5368
aVN0_w_V
p5369
aVN0_p_w_NNP_V
p5370
aS'N0_t_a'
p5371
aS'N0_t_p_a_NNP'
p5372
aVN0_t_w_a_V
p5373
aVST_p_w_NNS_h_N0_p_w_NNP_V
p5374
aVST_p_w_NNS_h_N0_w_V
p5375
aS'ST_t_o_N0_p_NNP'
p5376
aVST_w_h_N0_t_a
p5377
aS'ST_p_NNS_N0_p_NNP'
p5378
aS'ST_t_o_N0_t_a'
p5379
aVAL_V_h
p5380
aI1
tp5381
a((lp5382
S'ST_p_WDT'
p5383
aVST_w_w
p5384
aVST_p_w_WDT_w
p5385
aS'N0_p_NNP'
p5386
aVN0_w_V
p5387
aVN0_p_w_NNP_V
p5388
aS'N0_t_a'
p5389
aS'N0_t_p_a_NNP'
p5390
aVN0_t_w_a_V
p5391
aVST_p_w_WDT_w_N0_p_w_NNP_V
p5392
aVST_p_w_WDT_w_N0_w_V
p5393
aS'ST_t_h_N0_p_NNP'
p5394
aVST_w_w_N0_t_a
p5395
aS'ST_p_WDT_N0_p_NNP'
p5396
aS'ST_t_h_N0_t_a'
p5397
aI3
tp5398
a((lp5399
S'ST_p_WDT'
p5400
aVST_w_w
p5401
aVST_p_w_WDT_w
p5402
aS'N0_p_NNP'
p5403
aVN0_w_V
p5404
aVN0_p_w_NNP_V
p5405
aS'N0_t_a'
p5406
aS'N0_t_p_a_NNP'
p5407
aVN0_t_w_a_V
p5408
aVST_p_w_WDT_w_N0_p_w_NNP_V
p5409
aVST_p_w_WDT_w_N0_w_V
p5410
aS'ST_t_h_N0_p_NNP'
p5411
aVST_w_w_N0_t_a
p5412
aS'ST_p_WDT_N0_p_NNP'
p5413
aS'ST_t_h_N0_t_a'
p5414
aVAR_w_V
p5415
aI1
tp5416
a((lp5417
S'N0_p_NNP'
p5418
aVN0_w_V
p5419
aVN0_p_w_NNP_V
p5420
aS'N0_t_a'
p5421
aS'N0_t_p_a_NNP'
p5422
aVN0_t_w_a_V
p5423
aI0
tp5424
a((lp5425
S'N0_p_WP'
p5426
aVN0_w_w
p5427
aVN0_p_w_WP_w
p5428
aS'N0_t_h'
p5429
aS'N0_t_p_h_WP'
p5430
aVN0_t_w_h_w
p5431
aS'N1_p_NN'
p5432
aVN1_w_y
p5433
aVN1_p_w_NN_y
p5434
aS'N1_t_e'
p5435
aS'N1_t_p_e_NN'
p5436
aVN1_t_w_e_y
p5437
aS'N0_p_WP_N1_p_NN'
p5438
aS'N0_p_WP_N1_p_NN_N2_p_VBD_VBD'
p5439
aS'N0_w_hN1_p_NN_N2_p_VBD_VBD'
p5440
aI0
tp5441
a((lp5442
S'ST_p_WP'
p5443
aVST_w_w
p5444
aVST_p_w_WP_w
p5445
aS'N0_p_NN'
p5446
aVN0_w_y
p5447
aVN0_p_w_NN_y
p5448
aS'N0_t_e'
p5449
aS'N0_t_p_e_NN'
p5450
aVN0_t_w_e_y
p5451
aVST_p_w_WP_w_N0_p_w_NN_y
p5452
aVST_p_w_WP_w_N0_w_y
p5453
aS'ST_t_h_N0_p_NN'
p5454
aVST_w_w_N0_t_e
p5455
aS'ST_p_WP_N0_p_NN'
p5456
aS'ST_t_h_N0_t_e'
p5457
aS'N1_p_VBD_VBD'
p5458
aVN1_w_w
p5459
aVN1_p_w_VBD_VBD_w
p5460
aS'N1_t_e'
p5461
aS'N1_t_p_e_VBD_VBD'
p5462
aVN1_t_w_e_w
p5463
aS'N0_p_NN_N1_p_VBD_VBD'
p5464
aS'N0_p_NN_N1_p_VBD_VBD_N2_p_NNP_NNP'
p5465
aS'N0_w_eN1_p_VBD_VBD_N2_p_NNP_NNP'
p5466
aI3
tp5467
a((lp5468
S'ST_p_WP'
p5469
aVST_w_w
p5470
aVST_p_w_WP_w
p5471
aS'N0_p_NN'
p5472
aVN0_w_y
p5473
aVN0_p_w_NN_y
p5474
aS'N0_t_e'
p5475
aS'N0_t_p_e_NN'
p5476
aVN0_t_w_e_y
p5477
aVST_p_w_WP_w_N0_p_w_NN_y
p5478
aVST_p_w_WP_w_N0_w_y
p5479
aS'ST_t_h_N0_p_NN'
p5480
aVST_w_w_N0_t_e
p5481
aS'ST_p_WP_N0_p_NN'
p5482
aS'ST_t_h_N0_t_e'
p5483
aVAR_w_y
p5484
aS'N1_p_VBD_VBD'
p5485
aVN1_w_w
p5486
aVN1_p_w_VBD_VBD_w
p5487
aS'N1_t_e'
p5488
aS'N1_t_p_e_VBD_VBD'
p5489
aVN1_t_w_e_w
p5490
aS'N0_p_NN_N1_p_VBD_VBD'
p5491
aS'N0_p_NN_N1_p_VBD_VBD_N2_p_NNP_NNP'
p5492
aS'N0_w_eN1_p_VBD_VBD_N2_p_NNP_NNP'
p5493
aI0
tp5494
a((lp5495
S'ST_p_NN'
p5496
aVST_w_y
p5497
aVST_p_w_NN_y
p5498
aS'N0_p_VBD_VBD'
p5499
aVN0_w_w
p5500
aVN0_p_w_VBD_VBD_w
p5501
aS'N0_t_e'
p5502
aS'N0_t_p_e_VBD_VBD'
p5503
aVN0_t_w_e_w
p5504
aVST_p_w_NN_y_N0_p_w_VBD_VBD_w
p5505
aVST_p_w_NN_y_N0_w_w
p5506
aS'ST_t_e_N0_p_VBD_VBD'
p5507
aVST_w_y_N0_t_e
p5508
aS'ST_p_NN_N0_p_VBD_VBD'
p5509
aS'ST_t_e_N0_t_e'
p5510
aS'N1_p_NNP_NNP'
p5511
aVN1_w_N
p5512
aVN1_p_w_NNP_NNP_N
p5513
aS'N1_t_Y'
p5514
aS'N1_t_p_Y_NNP_NNP'
p5515
aVN1_t_w_Y_N
p5516
aS'N0_p_VBD_VBD_N1_p_NNP_NNP'
p5517
aI1
tp5518
a((lp5519
S'ST_p_WP'
p5520
aVST_w_w
p5521
aVST_p_w_WP_w
p5522
aS'N0_p_VBD_VBD'
p5523
aVN0_w_w
p5524
aVN0_p_w_VBD_VBD_w
p5525
aS'N0_t_e'
p5526
aS'N0_t_p_e_VBD_VBD'
p5527
aVN0_t_w_e_w
p5528
aVST_p_w_WP_w_N0_p_w_VBD_VBD_w
p5529
aVST_p_w_WP_w_N0_w_w
p5530
aS'ST_t_h_N0_p_VBD_VBD'
p5531
aVST_w_w_N0_t_e
p5532
aS'ST_p_WP_N0_p_VBD_VBD'
p5533
aS'ST_t_h_N0_t_e'
p5534
aS'N1_p_NNP_NNP'
p5535
aVN1_w_N
p5536
aVN1_p_w_NNP_NNP_N
p5537
aS'N1_t_Y'
p5538
aS'N1_t_p_Y_NNP_NNP'
p5539
aVN1_t_w_Y_N
p5540
aS'N0_p_VBD_VBD_N1_p_NNP_NNP'
p5541
aI0
tp5542
a((lp5543
S'ST_p_VBD_VBD'
p5544
aVST_w_w
p5545
aVST_p_w_VBD_VBD_w
p5546
aS'N0_p_NNP_NNP'
p5547
aVN0_w_N
p5548
aVN0_p_w_NNP_NNP_N
p5549
aS'N0_t_Y'
p5550
aS'N0_t_p_Y_NNP_NNP'
p5551
aVN0_t_w_Y_N
p5552
aVST_p_w_VBD_VBD_w_N0_p_w_NNP_NNP_N
p5553
aVST_p_w_VBD_VBD_w_N0_w_N
p5554
aS'ST_t_e_N0_p_NNP_NNP'
p5555
aVST_w_w_N0_t_Y
p5556
aS'ST_p_VBD_VBD_N0_p_NNP_NNP'
p5557
aS'ST_t_e_N0_t_Y'
p5558
aI2
tp5559
a((lp5560
S'ST_p_VBD_VBD'
p5561
aVST_w_w
p5562
aVST_p_w_VBD_VBD_w
p5563
aS'N0_p_NNP_NNP'
p5564
aVN0_w_N
p5565
aVN0_p_w_NNP_NNP_N
p5566
aS'N0_t_Y'
p5567
aS'N0_t_p_Y_NNP_NNP'
p5568
aVN0_t_w_Y_N
p5569
aVST_p_w_VBD_VBD_w_N0_p_w_NNP_NNP_N
p5570
aVST_p_w_VBD_VBD_w_N0_w_N
p5571
aS'ST_t_e_N0_p_NNP_NNP'
p5572
aVST_w_w_N0_t_Y
p5573
aS'ST_p_VBD_VBD_N0_p_NNP_NNP'
p5574
aS'ST_t_e_N0_t_Y'
p5575
aVAL_N_w
p5576
aI1
tp5577
a((lp5578
S'ST_p_WP'
p5579
aVST_w_w
p5580
aVST_p_w_WP_w
p5581
aS'N0_p_NNP_NNP'
p5582
aVN0_w_N
p5583
aVN0_p_w_NNP_NNP_N
p5584
aS'N0_t_Y'
p5585
aS'N0_t_p_Y_NNP_NNP'
p5586
aVN0_t_w_Y_N
p5587
aVST_p_w_WP_w_N0_p_w_NNP_NNP_N
p5588
aVST_p_w_WP_w_N0_w_N
p5589
aS'ST_t_h_N0_p_NNP_NNP'
p5590
aVST_w_w_N0_t_Y
p5591
aS'ST_p_WP_N0_p_NNP_NNP'
p5592
aS'ST_t_h_N0_t_Y'
p5593
aI3
tp5594
a((lp5595
S'ST_p_WP'
p5596
aVST_w_w
p5597
aVST_p_w_WP_w
p5598
aS'N0_p_NNP_NNP'
p5599
aVN0_w_N
p5600
aVN0_p_w_NNP_NNP_N
p5601
aS'N0_t_Y'
p5602
aS'N0_t_p_Y_NNP_NNP'
p5603
aVN0_t_w_Y_N
p5604
aVST_p_w_WP_w_N0_p_w_NNP_NNP_N
p5605
aVST_p_w_WP_w_N0_w_N
p5606
aS'ST_t_h_N0_p_NNP_NNP'
p5607
aVST_w_w_N0_t_Y
p5608
aS'ST_p_WP_N0_p_NNP_NNP'
p5609
aS'ST_t_h_N0_t_Y'
p5610
aVAR_w_N
p5611
aI1
tp5612
a((lp5613
S'N0_p_NNP_NNP'
p5614
aVN0_w_N
p5615
aVN0_p_w_NNP_NNP_N
p5616
aS'N0_t_Y'
p5617
aS'N0_t_p_Y_NNP_NNP'
p5618
aVN0_t_w_Y_N
p5619
aI0
tp5620
a((lp5621
S'N0_p_WRB_JJ'
p5622
aVN0_w_h
p5623
aVN0_p_w_WRB_JJ_h
p5624
aS'N0_t_o'
p5625
aS'N0_t_p_o_WRB_JJ'
p5626
aVN0_t_w_o_h
p5627
aS'N1_p_JJ_NN'
p5628
aVN1_w_n
p5629
aVN1_p_w_JJ_NN_n
p5630
aS'N1_t_a'
p5631
aS'N1_t_p_a_JJ_NN'
p5632
aVN1_t_w_a_n
p5633
aS'N0_p_WRB_JJ_N1_p_JJ_NN'
p5634
aS'N0_p_WRB_JJ_N1_p_JJ_NN_N2_p_VBZ_VBP'
p5635
aS'N0_w_oN1_p_JJ_NN_N2_p_VBZ_VBP'
p5636
aI0
tp5637
a((lp5638
S'ST_p_WRB_JJ'
p5639
aVST_w_h
p5640
aVST_p_w_WRB_JJ_h
p5641
aS'N0_p_JJ_NN'
p5642
aVN0_w_n
p5643
aVN0_p_w_JJ_NN_n
p5644
aS'N0_t_a'
p5645
aS'N0_t_p_a_JJ_NN'
p5646
aVN0_t_w_a_n
p5647
aVST_p_w_WRB_JJ_h_N0_p_w_JJ_NN_n
p5648
aVST_p_w_WRB_JJ_h_N0_w_n
p5649
aS'ST_t_o_N0_p_JJ_NN'
p5650
aVST_w_h_N0_t_a
p5651
aS'ST_p_WRB_JJ_N0_p_JJ_NN'
p5652
aS'ST_t_o_N0_t_a'
p5653
aS'N1_p_VBZ_VBP'
p5654
aVN1_w_d
p5655
aVN1_p_w_VBZ_VBP_d
p5656
aS'N1_t_o'
p5657
aS'N1_t_p_o_VBZ_VBP'
p5658
aVN1_t_w_o_d
p5659
aS'N0_p_JJ_NN_N1_p_VBZ_VBP'
p5660
aS'N0_p_JJ_NN_N1_p_VBZ_VBP_N2_p_JJ_NN_NN'
p5661
aS'N0_w_aN1_p_VBZ_VBP_N2_p_JJ_NN_NN'
p5662
aI3
tp5663
a((lp5664
S'ST_p_WRB_JJ'
p5665
aVST_w_h
p5666
aVST_p_w_WRB_JJ_h
p5667
aS'N0_p_JJ_NN'
p5668
aVN0_w_n
p5669
aVN0_p_w_JJ_NN_n
p5670
aS'N0_t_a'
p5671
aS'N0_t_p_a_JJ_NN'
p5672
aVN0_t_w_a_n
p5673
aVST_p_w_WRB_JJ_h_N0_p_w_JJ_NN_n
p5674
aVST_p_w_WRB_JJ_h_N0_w_n
p5675
aS'ST_t_o_N0_p_JJ_NN'
p5676
aVST_w_h_N0_t_a
p5677
aS'ST_p_WRB_JJ_N0_p_JJ_NN'
p5678
aS'ST_t_o_N0_t_a'
p5679
aVAR_h_n
p5680
aS'N1_p_VBZ_VBP'
p5681
aVN1_w_d
p5682
aVN1_p_w_VBZ_VBP_d
p5683
aS'N1_t_o'
p5684
aS'N1_t_p_o_VBZ_VBP'
p5685
aVN1_t_w_o_d
p5686
aS'N0_p_JJ_NN_N1_p_VBZ_VBP'
p5687
aS'N0_p_JJ_NN_N1_p_VBZ_VBP_N2_p_JJ_NN_NN'
p5688
aS'N0_w_aN1_p_VBZ_VBP_N2_p_JJ_NN_NN'
p5689
aI0
tp5690
a((lp5691
S'ST_p_JJ_NN'
p5692
aVST_w_n
p5693
aVST_p_w_JJ_NN_n
p5694
aS'N0_p_VBZ_VBP'
p5695
aVN0_w_d
p5696
aVN0_p_w_VBZ_VBP_d
p5697
aS'N0_t_o'
p5698
aS'N0_t_p_o_VBZ_VBP'
p5699
aVN0_t_w_o_d
p5700
aVST_p_w_JJ_NN_n_N0_p_w_VBZ_VBP_d
p5701
aVST_p_w_JJ_NN_n_N0_w_d
p5702
aS'ST_t_a_N0_p_VBZ_VBP'
p5703
aVST_w_n_N0_t_o
p5704
aS'ST_p_JJ_NN_N0_p_VBZ_VBP'
p5705
aS'ST_t_a_N0_t_o'
p5706
aS'N1_p_JJ_NN_NN'
p5707
aVN1_w_n
p5708
aVN1_p_w_JJ_NN_NN_n
p5709
aS'N1_t_a'
p5710
aS'N1_t_p_a_JJ_NN_NN'
p5711
aVN1_t_w_a_n
p5712
aS'N0_p_VBZ_VBP_N1_p_JJ_NN_NN'
p5713
aI1
tp5714
a((lp5715
S'ST_p_WRB_JJ'
p5716
aVST_w_h
p5717
aVST_p_w_WRB_JJ_h
p5718
aS'N0_p_VBZ_VBP'
p5719
aVN0_w_d
p5720
aVN0_p_w_VBZ_VBP_d
p5721
aS'N0_t_o'
p5722
aS'N0_t_p_o_VBZ_VBP'
p5723
aVN0_t_w_o_d
p5724
aVST_p_w_WRB_JJ_h_N0_p_w_VBZ_VBP_d
p5725
aVST_p_w_WRB_JJ_h_N0_w_d
p5726
aS'ST_t_o_N0_p_VBZ_VBP'
p5727
aVST_w_h_N0_t_o
p5728
aS'ST_p_WRB_JJ_N0_p_VBZ_VBP'
p5729
aS'ST_t_o_N0_t_o'
p5730
aS'N1_p_JJ_NN_NN'
p5731
aVN1_w_n
p5732
aVN1_p_w_JJ_NN_NN_n
p5733
aS'N1_t_a'
p5734
aS'N1_t_p_a_JJ_NN_NN'
p5735
aVN1_t_w_a_n
p5736
aS'N0_p_VBZ_VBP_N1_p_JJ_NN_NN'
p5737
aI0
tp5738
a((lp5739
S'ST_p_VBZ_VBP'
p5740
aVST_w_d
p5741
aVST_p_w_VBZ_VBP_d
p5742
aS'N0_p_JJ_NN_NN'
p5743
aVN0_w_n
p5744
aVN0_p_w_JJ_NN_NN_n
p5745
aS'N0_t_a'
p5746
aS'N0_t_p_a_JJ_NN_NN'
p5747
aVN0_t_w_a_n
p5748
aVST_p_w_VBZ_VBP_d_N0_p_w_JJ_NN_NN_n
p5749
aVST_p_w_VBZ_VBP_d_N0_w_n
p5750
aS'ST_t_o_N0_p_JJ_NN_NN'
p5751
aVST_w_d_N0_t_a
p5752
aS'ST_p_VBZ_VBP_N0_p_JJ_NN_NN'
p5753
aS'ST_t_o_N0_t_a'
p5754
aI2
tp5755
a((lp5756
S'ST_p_VBZ_VBP'
p5757
aVST_w_d
p5758
aVST_p_w_VBZ_VBP_d
p5759
aS'N0_p_JJ_NN_NN'
p5760
aVN0_w_n
p5761
aVN0_p_w_JJ_NN_NN_n
p5762
aS'N0_t_a'
p5763
aS'N0_t_p_a_JJ_NN_NN'
p5764
aVN0_t_w_a_n
p5765
aVST_p_w_VBZ_VBP_d_N0_p_w_JJ_NN_NN_n
p5766
aVST_p_w_VBZ_VBP_d_N0_w_n
p5767
aS'ST_t_o_N0_p_JJ_NN_NN'
p5768
aVST_w_d_N0_t_a
p5769
aS'ST_p_VBZ_VBP_N0_p_JJ_NN_NN'
p5770
aS'ST_t_o_N0_t_a'
p5771
aVAL_n_d
p5772
aI1
tp5773
a((lp5774
S'ST_p_WRB_JJ'
p5775
aVST_w_h
p5776
aVST_p_w_WRB_JJ_h
p5777
aS'N0_p_JJ_NN_NN'
p5778
aVN0_w_n
p5779
aVN0_p_w_JJ_NN_NN_n
p5780
aS'N0_t_a'
p5781
aS'N0_t_p_a_JJ_NN_NN'
p5782
aVN0_t_w_a_n
p5783
aVST_p_w_WRB_JJ_h_N0_p_w_JJ_NN_NN_n
p5784
aVST_p_w_WRB_JJ_h_N0_w_n
p5785
aS'ST_t_o_N0_p_JJ_NN_NN'
p5786
aVST_w_h_N0_t_a
p5787
aS'ST_p_WRB_JJ_N0_p_JJ_NN_NN'
p5788
aS'ST_t_o_N0_t_a'
p5789
aI3
tp5790
a((lp5791
S'ST_p_WRB_JJ'
p5792
aVST_w_h
p5793
aVST_p_w_WRB_JJ_h
p5794
aS'N0_p_JJ_NN_NN'
p5795
aVN0_w_n
p5796
aVN0_p_w_JJ_NN_NN_n
p5797
aS'N0_t_a'
p5798
aS'N0_t_p_a_JJ_NN_NN'
p5799
aVN0_t_w_a_n
p5800
aVST_p_w_WRB_JJ_h_N0_p_w_JJ_NN_NN_n
p5801
aVST_p_w_WRB_JJ_h_N0_w_n
p5802
aS'ST_t_o_N0_p_JJ_NN_NN'
p5803
aVST_w_h_N0_t_a
p5804
aS'ST_p_WRB_JJ_N0_p_JJ_NN_NN'
p5805
aS'ST_t_o_N0_t_a'
p5806
aVAR_h_n
p5807
aI1
tp5808
a((lp5809
S'N0_p_JJ_NN_NN'
p5810
aVN0_w_n
p5811
aVN0_p_w_JJ_NN_NN_n
p5812
aS'N0_t_a'
p5813
aS'N0_t_p_a_JJ_NN_NN'
p5814
aVN0_t_w_a_n
p5815
aI0
tp5816
a((lp5817
S'N0_p_WP'
p5818
aVN0_w_w
p5819
aVN0_p_w_WP_w
p5820
aS'N0_t_h'
p5821
aS'N0_t_p_h_WP'
p5822
aVN0_t_w_h_w
p5823
aS'N1_p_VBZ_IN'
p5824
aVN1_w_i
p5825
aVN1_p_w_VBZ_IN_i
p5826
aS'N1_t_s'
p5827
aS'N1_t_p_s_VBZ_IN'
p5828
aVN1_t_w_s_i
p5829
aS'N0_p_WP_N1_p_VBZ_IN'
p5830
aS'N0_p_WP_N1_p_VBZ_IN_N2_p_NN'
p5831
aS'N0_w_hN1_p_VBZ_IN_N2_p_NN'
p5832
aI0
tp5833
a((lp5834
S'ST_p_WP'
p5835
aVST_w_w
p5836
aVST_p_w_WP_w
p5837
aS'N0_p_VBZ_IN'
p5838
aVN0_w_i
p5839
aVN0_p_w_VBZ_IN_i
p5840
aS'N0_t_s'
p5841
aS'N0_t_p_s_VBZ_IN'
p5842
aVN0_t_w_s_i
p5843
aVST_p_w_WP_w_N0_p_w_VBZ_IN_i
p5844
aVST_p_w_WP_w_N0_w_i
p5845
aS'ST_t_h_N0_p_VBZ_IN'
p5846
aVST_w_w_N0_t_s
p5847
aS'ST_p_WP_N0_p_VBZ_IN'
p5848
aS'ST_t_h_N0_t_s'
p5849
aS'N1_p_NN'
p5850
aVN1_w_p
p5851
aVN1_p_w_NN_p
p5852
aS'N1_t_y'
p5853
aS'N1_t_p_y_NN'
p5854
aVN1_t_w_y_p
p5855
aS'N0_p_VBZ_IN_N1_p_NN'
p5856
aI0
tp5857
a((lp5858
S'ST_p_VBZ_IN'
p5859
aVST_w_i
p5860
aVST_p_w_VBZ_IN_i
p5861
aS'N0_p_NN'
p5862
aVN0_w_p
p5863
aVN0_p_w_NN_p
p5864
aS'N0_t_y'
p5865
aS'N0_t_p_y_NN'
p5866
aVN0_t_w_y_p
p5867
aVST_p_w_VBZ_IN_i_N0_p_w_NN_p
p5868
aVST_p_w_VBZ_IN_i_N0_w_p
p5869
aS'ST_t_s_N0_p_NN'
p5870
aVST_w_i_N0_t_y
p5871
aS'ST_p_VBZ_IN_N0_p_NN'
p5872
aS'ST_t_s_N0_t_y'
p5873
aI2
tp5874
a((lp5875
S'ST_p_VBZ_IN'
p5876
aVST_w_i
p5877
aVST_p_w_VBZ_IN_i
p5878
aS'N0_p_NN'
p5879
aVN0_w_p
p5880
aVN0_p_w_NN_p
p5881
aS'N0_t_y'
p5882
aS'N0_t_p_y_NN'
p5883
aVN0_t_w_y_p
p5884
aVST_p_w_VBZ_IN_i_N0_p_w_NN_p
p5885
aVST_p_w_VBZ_IN_i_N0_w_p
p5886
aS'ST_t_s_N0_p_NN'
p5887
aVST_w_i_N0_t_y
p5888
aS'ST_p_VBZ_IN_N0_p_NN'
p5889
aS'ST_t_s_N0_t_y'
p5890
aVAL_p_i
p5891
aI1
tp5892
a((lp5893
S'ST_p_WP'
p5894
aVST_w_w
p5895
aVST_p_w_WP_w
p5896
aS'N0_p_NN'
p5897
aVN0_w_p
p5898
aVN0_p_w_NN_p
p5899
aS'N0_t_y'
p5900
aS'N0_t_p_y_NN'
p5901
aVN0_t_w_y_p
p5902
aVST_p_w_WP_w_N0_p_w_NN_p
p5903
aVST_p_w_WP_w_N0_w_p
p5904
aS'ST_t_h_N0_p_NN'
p5905
aVST_w_w_N0_t_y
p5906
aS'ST_p_WP_N0_p_NN'
p5907
aS'ST_t_h_N0_t_y'
p5908
aI3
tp5909
a((lp5910
S'ST_p_WP'
p5911
aVST_w_w
p5912
aVST_p_w_WP_w
p5913
aS'N0_p_NN'
p5914
aVN0_w_p
p5915
aVN0_p_w_NN_p
p5916
aS'N0_t_y'
p5917
aS'N0_t_p_y_NN'
p5918
aVN0_t_w_y_p
p5919
aVST_p_w_WP_w_N0_p_w_NN_p
p5920
aVST_p_w_WP_w_N0_w_p
p5921
aS'ST_t_h_N0_p_NN'
p5922
aVST_w_w_N0_t_y
p5923
aS'ST_p_WP_N0_p_NN'
p5924
aS'ST_t_h_N0_t_y'
p5925
aVAR_w_p
p5926
aI1
tp5927
a((lp5928
S'N0_p_NN'
p5929
aVN0_w_p
p5930
aVN0_p_w_NN_p
p5931
aS'N0_t_y'
p5932
aS'N0_t_p_y_NN'
p5933
aVN0_t_w_y_p
p5934
aI0
tp5935
a((lp5936
S'N0_p_WP'
p5937
aVN0_w_w
p5938
aVN0_p_w_WP_w
p5939
aS'N0_t_h'
p5940
aS'N0_t_p_h_WP'
p5941
aVN0_t_w_h_w
p5942
aS'N1_p_JJ_NNS'
p5943
aVN1_w_m
p5944
aVN1_p_w_JJ_NNS_m
p5945
aS'N1_t_a'
p5946
aS'N1_t_p_a_JJ_NNS'
p5947
aVN1_t_w_a_m
p5948
aS'N0_p_WP_N1_p_JJ_NNS'
p5949
aS'N0_p_WP_N1_p_JJ_NNS_N2_p_VBZ_NN'
p5950
aS'N0_w_hN1_p_JJ_NNS_N2_p_VBZ_NN'
p5951
aI0
tp5952
a((lp5953
S'ST_p_WP'
p5954
aVST_w_w
p5955
aVST_p_w_WP_w
p5956
aS'N0_p_JJ_NNS'
p5957
aVN0_w_m
p5958
aVN0_p_w_JJ_NNS_m
p5959
aS'N0_t_a'
p5960
aS'N0_t_p_a_JJ_NNS'
p5961
aVN0_t_w_a_m
p5962
aVST_p_w_WP_w_N0_p_w_JJ_NNS_m
p5963
aVST_p_w_WP_w_N0_w_m
p5964
aS'ST_t_h_N0_p_JJ_NNS'
p5965
aVST_w_w_N0_t_a
p5966
aS'ST_p_WP_N0_p_JJ_NNS'
p5967
aS'ST_t_h_N0_t_a'
p5968
aS'N1_p_VBZ_NN'
p5969
aVN1_w_d
p5970
aVN1_p_w_VBZ_NN_d
p5971
aS'N1_t_o'
p5972
aS'N1_t_p_o_VBZ_NN'
p5973
aVN1_t_w_o_d
p5974
aS'N0_p_JJ_NNS_N1_p_VBZ_NN'
p5975
aS'N0_p_JJ_NNS_N1_p_VBZ_NN_N2_p_NNP_NNP'
p5976
aS'N0_w_aN1_p_VBZ_NN_N2_p_NNP_NNP'
p5977
aI1
tp5978
a((lp5979
S'N0_p_JJ_NNS'
p5980
aVN0_w_m
p5981
aVN0_p_w_JJ_NNS_m
p5982
aS'N0_t_a'
p5983
aS'N0_t_p_a_JJ_NNS'
p5984
aVN0_t_w_a_m
p5985
aS'N1_p_VBZ_NN'
p5986
aVN1_w_d
p5987
aVN1_p_w_VBZ_NN_d
p5988
aS'N1_t_o'
p5989
aS'N1_t_p_o_VBZ_NN'
p5990
aVN1_t_w_o_d
p5991
aS'N0_p_JJ_NNS_N1_p_VBZ_NN'
p5992
aS'N0_p_JJ_NNS_N1_p_VBZ_NN_N2_p_NNP_NNP'
p5993
aS'N0_w_aN1_p_VBZ_NN_N2_p_NNP_NNP'
p5994
aI0
tp5995
a((lp5996
S'ST_p_JJ_NNS'
p5997
aVST_w_m
p5998
aVST_p_w_JJ_NNS_m
p5999
aS'N0_p_VBZ_NN'
p6000
aVN0_w_d
p6001
aVN0_p_w_VBZ_NN_d
p6002
aS'N0_t_o'
p6003
aS'N0_t_p_o_VBZ_NN'
p6004
aVN0_t_w_o_d
p6005
aVST_p_w_JJ_NNS_m_N0_p_w_VBZ_NN_d
p6006
aVST_p_w_JJ_NNS_m_N0_w_d
p6007
aS'ST_t_a_N0_p_VBZ_NN'
p6008
aVST_w_m_N0_t_o
p6009
aS'ST_p_JJ_NNS_N0_p_VBZ_NN'
p6010
aS'ST_t_a_N0_t_o'
p6011
aS'N1_p_NNP_NNP'
p6012
aVN1_w_C
p6013
aVN1_p_w_NNP_NNP_C
p6014
aS'N1_t_h'
p6015
aS'N1_t_p_h_NNP_NNP'
p6016
aVN1_t_w_h_C
p6017
aS'N0_p_VBZ_NN_N1_p_NNP_NNP'
p6018
aI2
tp6019
a((lp6020
S'ST_p_JJ_NNS'
p6021
aVST_w_m
p6022
aVST_p_w_JJ_NNS_m
p6023
aS'N0_p_VBZ_NN'
p6024
aVN0_w_d
p6025
aVN0_p_w_VBZ_NN_d
p6026
aS'N0_t_o'
p6027
aS'N0_t_p_o_VBZ_NN'
p6028
aVN0_t_w_o_d
p6029
aVST_p_w_JJ_NNS_m_N0_p_w_VBZ_NN_d
p6030
aVST_p_w_JJ_NNS_m_N0_w_d
p6031
aS'ST_t_a_N0_p_VBZ_NN'
p6032
aVST_w_m_N0_t_o
p6033
aS'ST_p_JJ_NNS_N0_p_VBZ_NN'
p6034
aS'ST_t_a_N0_t_o'
p6035
aVAL_d_m
p6036
aS'N1_p_NNP_NNP'
p6037
aVN1_w_C
p6038
aVN1_p_w_NNP_NNP_C
p6039
aS'N1_t_h'
p6040
aS'N1_t_p_h_NNP_NNP'
p6041
aVN1_t_w_h_C
p6042
aS'N0_p_VBZ_NN_N1_p_NNP_NNP'
p6043
aI1
tp6044
a((lp6045
S'N0_p_VBZ_NN'
p6046
aVN0_w_d
p6047
aVN0_p_w_VBZ_NN_d
p6048
aS'N0_t_o'
p6049
aS'N0_t_p_o_VBZ_NN'
p6050
aVN0_t_w_o_d
p6051
aS'N1_p_NNP_NNP'
p6052
aVN1_w_C
p6053
aVN1_p_w_NNP_NNP_C
p6054
aS'N1_t_h'
p6055
aS'N1_t_p_h_NNP_NNP'
p6056
aVN1_t_w_h_C
p6057
aS'N0_p_VBZ_NN_N1_p_NNP_NNP'
p6058
aI0
tp6059
a((lp6060
S'ST_p_VBZ_NN'
p6061
aVST_w_d
p6062
aVST_p_w_VBZ_NN_d
p6063
aS'N0_p_NNP_NNP'
p6064
aVN0_w_C
p6065
aVN0_p_w_NNP_NNP_C
p6066
aS'N0_t_h'
p6067
aS'N0_t_p_h_NNP_NNP'
p6068
aVN0_t_w_h_C
p6069
aVST_p_w_VBZ_NN_d_N0_p_w_NNP_NNP_C
p6070
aVST_p_w_VBZ_NN_d_N0_w_C
p6071
aS'ST_t_o_N0_p_NNP_NNP'
p6072
aVST_w_d_N0_t_h
p6073
aS'ST_p_VBZ_NN_N0_p_NNP_NNP'
p6074
aS'ST_t_o_N0_t_h'
p6075
aI1
tp6076
a((lp6077
S'N0_p_NNP_NNP'
p6078
aVN0_w_C
p6079
aVN0_p_w_NNP_NNP_C
p6080
aS'N0_t_h'
p6081
aS'N0_t_p_h_NNP_NNP'
p6082
aVN0_t_w_h_C
p6083
aI0
tp6084
a((lp6085
S'N0_p_WRB'
p6086
aVN0_w_w
p6087
aVN0_p_w_WRB_w
p6088
aS'N0_t_h'
p6089
aS'N0_t_p_h_WRB'
p6090
aVN0_t_w_h_w
p6091
aS'N1_p_VBD_VBD_IN'
p6092
aVN1_w_w
p6093
aVN1_p_w_VBD_VBD_IN_w
p6094
aS'N1_t_a'
p6095
aS'N1_t_p_a_VBD_VBD_IN'
p6096
aVN1_t_w_a_w
p6097
aS'N0_p_WRB_N1_p_VBD_VBD_IN'
p6098
aS'N0_p_WRB_N1_p_VBD_VBD_IN_N2_p_NNP_NNP_NNP'
p6099
aS'N0_w_hN1_p_VBD_VBD_IN_N2_p_NNP_NNP_NNP'
p6100
aI0
tp6101
a((lp6102
S'ST_p_WRB'
p6103
aVST_w_w
p6104
aVST_p_w_WRB_w
p6105
aS'N0_p_VBD_VBD_IN'
p6106
aVN0_w_w
p6107
aVN0_p_w_VBD_VBD_IN_w
p6108
aS'N0_t_a'
p6109
aS'N0_t_p_a_VBD_VBD_IN'
p6110
aVN0_t_w_a_w
p6111
aVST_p_w_WRB_w_N0_p_w_VBD_VBD_IN_w
p6112
aVST_p_w_WRB_w_N0_w_w
p6113
aS'ST_t_h_N0_p_VBD_VBD_IN'
p6114
aVST_w_w_N0_t_a
p6115
aS'ST_p_WRB_N0_p_VBD_VBD_IN'
p6116
aS'ST_t_h_N0_t_a'
p6117
aS'N1_p_NNP_NNP_NNP'
p6118
aVN1_w_S
p6119
aVN1_p_w_NNP_NNP_NNP_S
p6120
aS'N1_t_S'
p6121
aS'N1_t_p_S_NNP_NNP_NNP'
p6122
aVN1_t_w_S_S
p6123
aS'N0_p_VBD_VBD_IN_N1_p_NNP_NNP_NNP'
p6124
aS'N0_p_VBD_VBD_IN_N1_p_NNP_NNP_NNP_N2_p_NN'
p6125
aS'N0_w_aN1_p_NNP_NNP_NNP_N2_p_NN'
p6126
aI3
tp6127
a((lp6128
S'ST_p_WRB'
p6129
aVST_w_w
p6130
aVST_p_w_WRB_w
p6131
aS'N0_p_VBD_VBD_IN'
p6132
aVN0_w_w
p6133
aVN0_p_w_VBD_VBD_IN_w
p6134
aS'N0_t_a'
p6135
aS'N0_t_p_a_VBD_VBD_IN'
p6136
aVN0_t_w_a_w
p6137
aVST_p_w_WRB_w_N0_p_w_VBD_VBD_IN_w
p6138
aVST_p_w_WRB_w_N0_w_w
p6139
aS'ST_t_h_N0_p_VBD_VBD_IN'
p6140
aVST_w_w_N0_t_a
p6141
aS'ST_p_WRB_N0_p_VBD_VBD_IN'
p6142
aS'ST_t_h_N0_t_a'
p6143
aVAR_w_w
p6144
aS'N1_p_NNP_NNP_NNP'
p6145
aVN1_w_S
p6146
aVN1_p_w_NNP_NNP_NNP_S
p6147
aS'N1_t_S'
p6148
aS'N1_t_p_S_NNP_NNP_NNP'
p6149
aVN1_t_w_S_S
p6150
aS'N0_p_VBD_VBD_IN_N1_p_NNP_NNP_NNP'
p6151
aS'N0_p_VBD_VBD_IN_N1_p_NNP_NNP_NNP_N2_p_NN'
p6152
aS'N0_w_aN1_p_NNP_NNP_NNP_N2_p_NN'
p6153
aI0
tp6154
a((lp6155
S'ST_p_VBD_VBD_IN'
p6156
aVST_w_w
p6157
aVST_p_w_VBD_VBD_IN_w
p6158
aS'N0_p_NNP_NNP_NNP'
p6159
aVN0_w_S
p6160
aVN0_p_w_NNP_NNP_NNP_S
p6161
aS'N0_t_S'
p6162
aS'N0_t_p_S_NNP_NNP_NNP'
p6163
aVN0_t_w_S_S
p6164
aVST_p_w_VBD_VBD_IN_w_N0_p_w_NNP_NNP_NNP_S
p6165
aVST_p_w_VBD_VBD_IN_w_N0_w_S
p6166
aS'ST_t_a_N0_p_NNP_NNP_NNP'
p6167
aVST_w_w_N0_t_S
p6168
aS'ST_p_VBD_VBD_IN_N0_p_NNP_NNP_NNP'
p6169
aS'ST_t_a_N0_t_S'
p6170
aS'N1_p_NN'
p6171
aVN1_w_m
p6172
aVN1_p_w_NN_m
p6173
aS'N1_t_u'
p6174
aS'N1_t_p_u_NN'
p6175
aVN1_t_w_u_m
p6176
aS'N0_p_NNP_NNP_NNP_N1_p_NN'
p6177
aI1
tp6178
a((lp6179
S'ST_p_WRB'
p6180
aVST_w_w
p6181
aVST_p_w_WRB_w
p6182
aS'N0_p_NNP_NNP_NNP'
p6183
aVN0_w_S
p6184
aVN0_p_w_NNP_NNP_NNP_S
p6185
aS'N0_t_S'
p6186
aS'N0_t_p_S_NNP_NNP_NNP'
p6187
aVN0_t_w_S_S
p6188
aVST_p_w_WRB_w_N0_p_w_NNP_NNP_NNP_S
p6189
aVST_p_w_WRB_w_N0_w_S
p6190
aS'ST_t_h_N0_p_NNP_NNP_NNP'
p6191
aVST_w_w_N0_t_S
p6192
aS'ST_p_WRB_N0_p_NNP_NNP_NNP'
p6193
aS'ST_t_h_N0_t_S'
p6194
aS'N1_p_NN'
p6195
aVN1_w_m
p6196
aVN1_p_w_NN_m
p6197
aS'N1_t_u'
p6198
aS'N1_t_p_u_NN'
p6199
aVN1_t_w_u_m
p6200
aS'N0_p_NNP_NNP_NNP_N1_p_NN'
p6201
aI0
tp6202
a((lp6203
S'ST_p_NNP_NNP_NNP'
p6204
aVST_w_S
p6205
aVST_p_w_NNP_NNP_NNP_S
p6206
aS'N0_p_NN'
p6207
aVN0_w_m
p6208
aVN0_p_w_NN_m
p6209
aS'N0_t_u'
p6210
aS'N0_t_p_u_NN'
p6211
aVN0_t_w_u_m
p6212
aVST_p_w_NNP_NNP_NNP_S_N0_p_w_NN_m
p6213
aVST_p_w_NNP_NNP_NNP_S_N0_w_m
p6214
aS'ST_t_S_N0_p_NN'
p6215
aVST_w_S_N0_t_u
p6216
aS'ST_p_NNP_NNP_NNP_N0_p_NN'
p6217
aS'ST_t_S_N0_t_u'
p6218
aI2
tp6219
a((lp6220
S'ST_p_NNP_NNP_NNP'
p6221
aVST_w_S
p6222
aVST_p_w_NNP_NNP_NNP_S
p6223
aS'N0_p_NN'
p6224
aVN0_w_m
p6225
aVN0_p_w_NN_m
p6226
aS'N0_t_u'
p6227
aS'N0_t_p_u_NN'
p6228
aVN0_t_w_u_m
p6229
aVST_p_w_NNP_NNP_NNP_S_N0_p_w_NN_m
p6230
aVST_p_w_NNP_NNP_NNP_S_N0_w_m
p6231
aS'ST_t_S_N0_p_NN'
p6232
aVST_w_S_N0_t_u
p6233
aS'ST_p_NNP_NNP_NNP_N0_p_NN'
p6234
aS'ST_t_S_N0_t_u'
p6235
aVAL_m_S
p6236
aI1
tp6237
a((lp6238
S'ST_p_WRB'
p6239
aVST_w_w
p6240
aVST_p_w_WRB_w
p6241
aS'N0_p_NN'
p6242
aVN0_w_m
p6243
aVN0_p_w_NN_m
p6244
aS'N0_t_u'
p6245
aS'N0_t_p_u_NN'
p6246
aVN0_t_w_u_m
p6247
aVST_p_w_WRB_w_N0_p_w_NN_m
p6248
aVST_p_w_WRB_w_N0_w_m
p6249
aS'ST_t_h_N0_p_NN'
p6250
aVST_w_w_N0_t_u
p6251
aS'ST_p_WRB_N0_p_NN'
p6252
aS'ST_t_h_N0_t_u'
p6253
aI3
tp6254
a((lp6255
S'ST_p_WRB'
p6256
aVST_w_w
p6257
aVST_p_w_WRB_w
p6258
aS'N0_p_NN'
p6259
aVN0_w_m
p6260
aVN0_p_w_NN_m
p6261
aS'N0_t_u'
p6262
aS'N0_t_p_u_NN'
p6263
aVN0_t_w_u_m
p6264
aVST_p_w_WRB_w_N0_p_w_NN_m
p6265
aVST_p_w_WRB_w_N0_w_m
p6266
aS'ST_t_h_N0_p_NN'
p6267
aVST_w_w_N0_t_u
p6268
aS'ST_p_WRB_N0_p_NN'
p6269
aS'ST_t_h_N0_t_u'
p6270
aVAR_w_m
p6271
aI1
tp6272
a((lp6273
S'N0_p_NN'
p6274
aVN0_w_m
p6275
aVN0_p_w_NN_m
p6276
aS'N0_t_u'
p6277
aS'N0_t_p_u_NN'
p6278
aVN0_t_w_u_m
p6279
aI0
tp6280
a((lp6281
S'N0_p_WP'
p6282
aVN0_w_w
p6283
aVN0_p_w_WP_w
p6284
aS'N0_t_h'
p6285
aS'N0_t_p_h_WP'
p6286
aVN0_t_w_h_w
p6287
aS'N1_p_NN_IN_NN'
p6288
aVN1_w_t
p6289
aVN1_p_w_NN_IN_NN_t
p6290
aS'N1_t_y'
p6291
aS'N1_t_p_y_NN_IN_NN'
p6292
aVN1_t_w_y_t
p6293
aS'N0_p_WP_N1_p_NN_IN_NN'
p6294
aS'N0_p_WP_N1_p_NN_IN_NN_N2_p_VBZ'
p6295
aS'N0_w_hN1_p_NN_IN_NN_N2_p_VBZ'
p6296
aI0
tp6297
a((lp6298
S'ST_p_WP'
p6299
aVST_w_w
p6300
aVST_p_w_WP_w
p6301
aS'N0_p_NN_IN_NN'
p6302
aVN0_w_t
p6303
aVN0_p_w_NN_IN_NN_t
p6304
aS'N0_t_y'
p6305
aS'N0_t_p_y_NN_IN_NN'
p6306
aVN0_t_w_y_t
p6307
aVST_p_w_WP_w_N0_p_w_NN_IN_NN_t
p6308
aVST_p_w_WP_w_N0_w_t
p6309
aS'ST_t_h_N0_p_NN_IN_NN'
p6310
aVST_w_w_N0_t_y
p6311
aS'ST_p_WP_N0_p_NN_IN_NN'
p6312
aS'ST_t_h_N0_t_y'
p6313
aS'N1_p_VBZ'
p6314
aVN1_w_i
p6315
aVN1_p_w_VBZ_i
p6316
aS'N1_t_s'
p6317
aS'N1_t_p_s_VBZ'
p6318
aVN1_t_w_s_i
p6319
aS'N0_p_NN_IN_NN_N1_p_VBZ'
p6320
aS'N0_p_NN_IN_NN_N1_p_VBZ_N2_p_NNP_NN'
p6321
aS'N0_w_yN1_p_VBZ_N2_p_NNP_NN'
p6322
aI0
tp6323
a((lp6324
S'ST_p_NN_IN_NN'
p6325
aVST_w_t
p6326
aVST_p_w_NN_IN_NN_t
p6327
aS'N0_p_VBZ'
p6328
aVN0_w_i
p6329
aVN0_p_w_VBZ_i
p6330
aS'N0_t_s'
p6331
aS'N0_t_p_s_VBZ'
p6332
aVN0_t_w_s_i
p6333
aVST_p_w_NN_IN_NN_t_N0_p_w_VBZ_i
p6334
aVST_p_w_NN_IN_NN_t_N0_w_i
p6335
aS'ST_t_y_N0_p_VBZ'
p6336
aVST_w_t_N0_t_s
p6337
aS'ST_p_NN_IN_NN_N0_p_VBZ'
p6338
aS'ST_t_y_N0_t_s'
p6339
aS'N1_p_NNP_NN'
p6340
aVN1_w_M
p6341
aVN1_p_w_NNP_NN_M
p6342
aS'N1_t_a'
p6343
aS'N1_t_p_a_NNP_NN'
p6344
aVN1_t_w_a_M
p6345
aS'N0_p_VBZ_N1_p_NNP_NN'
p6346
aI2
tp6347
a((lp6348
S'ST_p_NN_IN_NN'
p6349
aVST_w_t
p6350
aVST_p_w_NN_IN_NN_t
p6351
aS'N0_p_VBZ'
p6352
aVN0_w_i
p6353
aVN0_p_w_VBZ_i
p6354
aS'N0_t_s'
p6355
aS'N0_t_p_s_VBZ'
p6356
aVN0_t_w_s_i
p6357
aVST_p_w_NN_IN_NN_t_N0_p_w_VBZ_i
p6358
aVST_p_w_NN_IN_NN_t_N0_w_i
p6359
aS'ST_t_y_N0_p_VBZ'
p6360
aVST_w_t_N0_t_s
p6361
aS'ST_p_NN_IN_NN_N0_p_VBZ'
p6362
aS'ST_t_y_N0_t_s'
p6363
aVAL_i_t
p6364
aS'N1_p_NNP_NN'
p6365
aVN1_w_M
p6366
aVN1_p_w_NNP_NN_M
p6367
aS'N1_t_a'
p6368
aS'N1_t_p_a_NNP_NN'
p6369
aVN1_t_w_a_M
p6370
aS'N0_p_VBZ_N1_p_NNP_NN'
p6371
aI1
tp6372
a((lp6373
S'ST_p_WP'
p6374
aVST_w_w
p6375
aVST_p_w_WP_w
p6376
aS'N0_p_VBZ'
p6377
aVN0_w_i
p6378
aVN0_p_w_VBZ_i
p6379
aS'N0_t_s'
p6380
aS'N0_t_p_s_VBZ'
p6381
aVN0_t_w_s_i
p6382
aVST_p_w_WP_w_N0_p_w_VBZ_i
p6383
aVST_p_w_WP_w_N0_w_i
p6384
aS'ST_t_h_N0_p_VBZ'
p6385
aVST_w_w_N0_t_s
p6386
aS'ST_p_WP_N0_p_VBZ'
p6387
aS'ST_t_h_N0_t_s'
p6388
aS'N1_p_NNP_NN'
p6389
aVN1_w_M
p6390
aVN1_p_w_NNP_NN_M
p6391
aS'N1_t_a'
p6392
aS'N1_t_p_a_NNP_NN'
p6393
aVN1_t_w_a_M
p6394
aS'N0_p_VBZ_N1_p_NNP_NN'
p6395
aI3
tp6396
a((lp6397
S'ST_p_WP'
p6398
aVST_w_w
p6399
aVST_p_w_WP_w
p6400
aS'N0_p_VBZ'
p6401
aVN0_w_i
p6402
aVN0_p_w_VBZ_i
p6403
aS'N0_t_s'
p6404
aS'N0_t_p_s_VBZ'
p6405
aVN0_t_w_s_i
p6406
aVST_p_w_WP_w_N0_p_w_VBZ_i
p6407
aVST_p_w_WP_w_N0_w_i
p6408
aS'ST_t_h_N0_p_VBZ'
p6409
aVST_w_w_N0_t_s
p6410
aS'ST_p_WP_N0_p_VBZ'
p6411
aS'ST_t_h_N0_t_s'
p6412
aVAR_w_i
p6413
aS'N1_p_NNP_NN'
p6414
aVN1_w_M
p6415
aVN1_p_w_NNP_NN_M
p6416
aS'N1_t_a'
p6417
aS'N1_t_p_a_NNP_NN'
p6418
aVN1_t_w_a_M
p6419
aS'N0_p_VBZ_N1_p_NNP_NN'
p6420
aI0
tp6421
a((lp6422
S'ST_p_VBZ'
p6423
aVST_w_i
p6424
aVST_p_w_VBZ_i
p6425
aS'N0_p_NNP_NN'
p6426
aVN0_w_M
p6427
aVN0_p_w_NNP_NN_M
p6428
aS'N0_t_a'
p6429
aS'N0_t_p_a_NNP_NN'
p6430
aVN0_t_w_a_M
p6431
aVST_p_w_VBZ_i_N0_p_w_NNP_NN_M
p6432
aVST_p_w_VBZ_i_N0_w_M
p6433
aS'ST_t_s_N0_p_NNP_NN'
p6434
aVST_w_i_N0_t_a
p6435
aS'ST_p_VBZ_N0_p_NNP_NN'
p6436
aS'ST_t_s_N0_t_a'
p6437
aI1
tp6438
a((lp6439
S'ST_p_WP'
p6440
aVST_w_w
p6441
aVST_p_w_WP_w
p6442
aS'N0_p_NNP_NN'
p6443
aVN0_w_M
p6444
aVN0_p_w_NNP_NN_M
p6445
aS'N0_t_a'
p6446
aS'N0_t_p_a_NNP_NN'
p6447
aVN0_t_w_a_M
p6448
aVST_p_w_WP_w_N0_p_w_NNP_NN_M
p6449
aVST_p_w_WP_w_N0_w_M
p6450
aS'ST_t_h_N0_p_NNP_NN'
p6451
aVST_w_w_N0_t_a
p6452
aS'ST_p_WP_N0_p_NNP_NN'
p6453
aS'ST_t_h_N0_t_a'
p6454
aI3
tp6455
a((lp6456
S'ST_p_WP'
p6457
aVST_w_w
p6458
aVST_p_w_WP_w
p6459
aS'N0_p_NNP_NN'
p6460
aVN0_w_M
p6461
aVN0_p_w_NNP_NN_M
p6462
aS'N0_t_a'
p6463
aS'N0_t_p_a_NNP_NN'
p6464
aVN0_t_w_a_M
p6465
aVST_p_w_WP_w_N0_p_w_NNP_NN_M
p6466
aVST_p_w_WP_w_N0_w_M
p6467
aS'ST_t_h_N0_p_NNP_NN'
p6468
aVST_w_w_N0_t_a
p6469
aS'ST_p_WP_N0_p_NNP_NN'
p6470
aS'ST_t_h_N0_t_a'
p6471
aVAR_w_M
p6472
aI1
tp6473
a((lp6474
S'N0_p_NNP_NN'
p6475
aVN0_w_M
p6476
aVN0_p_w_NNP_NN_M
p6477
aS'N0_t_a'
p6478
aS'N0_t_p_a_NNP_NN'
p6479
aVN0_t_w_a_M
p6480
aI0
tp6481
a((lp6482
S'N0_p_WRB'
p6483
aVN0_w_w
p6484
aVN0_p_w_WRB_w
p6485
aS'N0_t_h'
p6486
aS'N0_t_p_h_WRB'
p6487
aVN0_t_w_h_w
p6488
aS'N1_p_VBD_VBD'
p6489
aVN1_w_w
p6490
aVN1_p_w_VBD_VBD_w
p6491
aS'N1_t_a'
p6492
aS'N1_t_p_a_VBD_VBD'
p6493
aVN1_t_w_a_w
p6494
aS'N0_p_WRB_N1_p_VBD_VBD'
p6495
aS'N0_p_WRB_N1_p_VBD_VBD_N2_p_VBN_NN'
p6496
aS'N0_w_hN1_p_VBD_VBD_N2_p_VBN_NN'
p6497
aI0
tp6498
a((lp6499
S'ST_p_WRB'
p6500
aVST_w_w
p6501
aVST_p_w_WRB_w
p6502
aS'N0_p_VBD_VBD'
p6503
aVN0_w_w
p6504
aVN0_p_w_VBD_VBD_w
p6505
aS'N0_t_a'
p6506
aS'N0_t_p_a_VBD_VBD'
p6507
aVN0_t_w_a_w
p6508
aVST_p_w_WRB_w_N0_p_w_VBD_VBD_w
p6509
aVST_p_w_WRB_w_N0_w_w
p6510
aS'ST_t_h_N0_p_VBD_VBD'
p6511
aVST_w_w_N0_t_a
p6512
aS'ST_p_WRB_N0_p_VBD_VBD'
p6513
aS'ST_t_h_N0_t_a'
p6514
aS'N1_p_VBN_NN'
p6515
aVN1_w_c
p6516
aVN1_p_w_VBN_NN_c
p6517
aS'N1_t_a'
p6518
aS'N1_t_p_a_VBN_NN'
p6519
aVN1_t_w_a_c
p6520
aS'N0_p_VBD_VBD_N1_p_VBN_NN'
p6521
aI0
tp6522
a((lp6523
S'ST_p_VBD_VBD'
p6524
aVST_w_w
p6525
aVST_p_w_VBD_VBD_w
p6526
aS'N0_p_VBN_NN'
p6527
aVN0_w_c
p6528
aVN0_p_w_VBN_NN_c
p6529
aS'N0_t_a'
p6530
aS'N0_t_p_a_VBN_NN'
p6531
aVN0_t_w_a_c
p6532
aVST_p_w_VBD_VBD_w_N0_p_w_VBN_NN_c
p6533
aVST_p_w_VBD_VBD_w_N0_w_c
p6534
aS'ST_t_a_N0_p_VBN_NN'
p6535
aVST_w_w_N0_t_a
p6536
aS'ST_p_VBD_VBD_N0_p_VBN_NN'
p6537
aS'ST_t_a_N0_t_a'
p6538
aI2
tp6539
a((lp6540
S'ST_p_VBD_VBD'
p6541
aVST_w_w
p6542
aVST_p_w_VBD_VBD_w
p6543
aS'N0_p_VBN_NN'
p6544
aVN0_w_c
p6545
aVN0_p_w_VBN_NN_c
p6546
aS'N0_t_a'
p6547
aS'N0_t_p_a_VBN_NN'
p6548
aVN0_t_w_a_c
p6549
aVST_p_w_VBD_VBD_w_N0_p_w_VBN_NN_c
p6550
aVST_p_w_VBD_VBD_w_N0_w_c
p6551
aS'ST_t_a_N0_p_VBN_NN'
p6552
aVST_w_w_N0_t_a
p6553
aS'ST_p_VBD_VBD_N0_p_VBN_NN'
p6554
aS'ST_t_a_N0_t_a'
p6555
aVAL_c_w
p6556
aI1
tp6557
a((lp6558
S'ST_p_WRB'
p6559
aVST_w_w
p6560
aVST_p_w_WRB_w
p6561
aS'N0_p_VBN_NN'
p6562
aVN0_w_c
p6563
aVN0_p_w_VBN_NN_c
p6564
aS'N0_t_a'
p6565
aS'N0_t_p_a_VBN_NN'
p6566
aVN0_t_w_a_c
p6567
aVST_p_w_WRB_w_N0_p_w_VBN_NN_c
p6568
aVST_p_w_WRB_w_N0_w_c
p6569
aS'ST_t_h_N0_p_VBN_NN'
p6570
aVST_w_w_N0_t_a
p6571
aS'ST_p_WRB_N0_p_VBN_NN'
p6572
aS'ST_t_h_N0_t_a'
p6573
aI3
tp6574
a((lp6575
S'ST_p_WRB'
p6576
aVST_w_w
p6577
aVST_p_w_WRB_w
p6578
aS'N0_p_VBN_NN'
p6579
aVN0_w_c
p6580
aVN0_p_w_VBN_NN_c
p6581
aS'N0_t_a'
p6582
aS'N0_t_p_a_VBN_NN'
p6583
aVN0_t_w_a_c
p6584
aVST_p_w_WRB_w_N0_p_w_VBN_NN_c
p6585
aVST_p_w_WRB_w_N0_w_c
p6586
aS'ST_t_h_N0_p_VBN_NN'
p6587
aVST_w_w_N0_t_a
p6588
aS'ST_p_WRB_N0_p_VBN_NN'
p6589
aS'ST_t_h_N0_t_a'
p6590
aVAR_w_c
p6591
aI1
tp6592
a((lp6593
S'N0_p_VBN_NN'
p6594
aVN0_w_c
p6595
aVN0_p_w_VBN_NN_c
p6596
aS'N0_t_a'
p6597
aS'N0_t_p_a_VBN_NN'
p6598
aVN0_t_w_a_c
p6599
aI0
tp6600
a((lp6601
S'N0_p_WRB'
p6602
aVN0_w_w
p6603
aVN0_p_w_WRB_w
p6604
aS'N0_t_h'
p6605
aS'N0_t_p_h_WRB'
p6606
aVN0_t_w_h_w
p6607
aS'N1_p_VBD_VBN'
p6608
aVN1_w_w
p6609
aVN1_p_w_VBD_VBN_w
p6610
aS'N1_t_a'
p6611
aS'N1_t_p_a_VBD_VBN'
p6612
aVN1_t_w_a_w
p6613
aS'N0_p_WRB_N1_p_VBD_VBN'
p6614
aS'N0_p_WRB_N1_p_VBD_VBN_N2_p_RB'
p6615
aS'N0_w_hN1_p_VBD_VBN_N2_p_RB'
p6616
aI0
tp6617
a((lp6618
S'ST_p_WRB'
p6619
aVST_w_w
p6620
aVST_p_w_WRB_w
p6621
aS'N0_p_VBD_VBN'
p6622
aVN0_w_w
p6623
aVN0_p_w_VBD_VBN_w
p6624
aS'N0_t_a'
p6625
aS'N0_t_p_a_VBD_VBN'
p6626
aVN0_t_w_a_w
p6627
aVST_p_w_WRB_w_N0_p_w_VBD_VBN_w
p6628
aVST_p_w_WRB_w_N0_w_w
p6629
aS'ST_t_h_N0_p_VBD_VBN'
p6630
aVST_w_w_N0_t_a
p6631
aS'ST_p_WRB_N0_p_VBD_VBN'
p6632
aS'ST_t_h_N0_t_a'
p6633
aS'N1_p_RB'
p6634
aVN1_w_b
p6635
aVN1_p_w_RB_b
p6636
aS'N1_t_a'
p6637
aS'N1_t_p_a_RB'
p6638
aVN1_t_w_a_b
p6639
aS'N0_p_VBD_VBN_N1_p_RB'
p6640
aI0
tp6641
a((lp6642
S'ST_p_VBD_VBN'
p6643
aVST_w_w
p6644
aVST_p_w_VBD_VBN_w
p6645
aS'N0_p_RB'
p6646
aVN0_w_b
p6647
aVN0_p_w_RB_b
p6648
aS'N0_t_a'
p6649
aS'N0_t_p_a_RB'
p6650
aVN0_t_w_a_b
p6651
aVST_p_w_VBD_VBN_w_N0_p_w_RB_b
p6652
aVST_p_w_VBD_VBN_w_N0_w_b
p6653
aS'ST_t_a_N0_p_RB'
p6654
aVST_w_w_N0_t_a
p6655
aS'ST_p_VBD_VBN_N0_p_RB'
p6656
aS'ST_t_a_N0_t_a'
p6657
aI2
tp6658
a((lp6659
S'ST_p_VBD_VBN'
p6660
aVST_w_w
p6661
aVST_p_w_VBD_VBN_w
p6662
aS'N0_p_RB'
p6663
aVN0_w_b
p6664
aVN0_p_w_RB_b
p6665
aS'N0_t_a'
p6666
aS'N0_t_p_a_RB'
p6667
aVN0_t_w_a_b
p6668
aVST_p_w_VBD_VBN_w_N0_p_w_RB_b
p6669
aVST_p_w_VBD_VBN_w_N0_w_b
p6670
aS'ST_t_a_N0_p_RB'
p6671
aVST_w_w_N0_t_a
p6672
aS'ST_p_VBD_VBN_N0_p_RB'
p6673
aS'ST_t_a_N0_t_a'
p6674
aVAL_b_w
p6675
aI1
tp6676
a((lp6677
S'ST_p_WRB'
p6678
aVST_w_w
p6679
aVST_p_w_WRB_w
p6680
aS'N0_p_RB'
p6681
aVN0_w_b
p6682
aVN0_p_w_RB_b
p6683
aS'N0_t_a'
p6684
aS'N0_t_p_a_RB'
p6685
aVN0_t_w_a_b
p6686
aVST_p_w_WRB_w_N0_p_w_RB_b
p6687
aVST_p_w_WRB_w_N0_w_b
p6688
aS'ST_t_h_N0_p_RB'
p6689
aVST_w_w_N0_t_a
p6690
aS'ST_p_WRB_N0_p_RB'
p6691
aS'ST_t_h_N0_t_a'
p6692
aI3
tp6693
a((lp6694
S'ST_p_WRB'
p6695
aVST_w_w
p6696
aVST_p_w_WRB_w
p6697
aS'N0_p_RB'
p6698
aVN0_w_b
p6699
aVN0_p_w_RB_b
p6700
aS'N0_t_a'
p6701
aS'N0_t_p_a_RB'
p6702
aVN0_t_w_a_b
p6703
aVST_p_w_WRB_w_N0_p_w_RB_b
p6704
aVST_p_w_WRB_w_N0_w_b
p6705
aS'ST_t_h_N0_p_RB'
p6706
aVST_w_w_N0_t_a
p6707
aS'ST_p_WRB_N0_p_RB'
p6708
aS'ST_t_h_N0_t_a'
p6709
aVAR_w_b
p6710
aI1
tp6711
a((lp6712
S'N0_p_RB'
p6713
aVN0_w_b
p6714
aVN0_p_w_RB_b
p6715
aS'N0_t_a'
p6716
aS'N0_t_p_a_RB'
p6717
aVN0_t_w_a_b
p6718
aI0
tp6719
a((lp6720
S'N0_p_WRB_JJ'
p6721
aVN0_w_h
p6722
aVN0_p_w_WRB_JJ_h
p6723
aS'N0_t_o'
p6724
aS'N0_t_p_o_WRB_JJ'
p6725
aVN0_t_w_o_h
p6726
aS'N1_p_VBP'
p6727
aVN1_w_l
p6728
aVN1_p_w_VBP_l
p6729
aS'N1_t_i'
p6730
aS'N1_t_p_i_VBP'
p6731
aVN1_t_w_i_l
p6732
aS'N0_p_WRB_JJ_N1_p_VBP'
p6733
aS'N0_p_WRB_JJ_N1_p_VBP_N2_p_VBD_VB'
p6734
aS'N0_w_oN1_p_VBP_N2_p_VBD_VB'
p6735
aI0
tp6736
a((lp6737
S'ST_p_WRB_JJ'
p6738
aVST_w_h
p6739
aVST_p_w_WRB_JJ_h
p6740
aS'N0_p_VBP'
p6741
aVN0_w_l
p6742
aVN0_p_w_VBP_l
p6743
aS'N0_t_i'
p6744
aS'N0_t_p_i_VBP'
p6745
aVN0_t_w_i_l
p6746
aVST_p_w_WRB_JJ_h_N0_p_w_VBP_l
p6747
aVST_p_w_WRB_JJ_h_N0_w_l
p6748
aS'ST_t_o_N0_p_VBP'
p6749
aVST_w_h_N0_t_i
p6750
aS'ST_p_WRB_JJ_N0_p_VBP'
p6751
aS'ST_t_o_N0_t_i'
p6752
aS'N1_p_VBD_VB'
p6753
aVN1_w_d
p6754
aVN1_p_w_VBD_VB_d
p6755
aS'N1_t_i'
p6756
aS'N1_t_p_i_VBD_VB'
p6757
aVN1_t_w_i_d
p6758
aS'N0_p_VBP_N1_p_VBD_VB'
p6759
aS'N0_p_VBP_N1_p_VBD_VB_N2_p_NNP'
p6760
aS'N0_w_iN1_p_VBD_VB_N2_p_NNP'
p6761
aI3
tp6762
a((lp6763
S'ST_p_WRB_JJ'
p6764
aVST_w_h
p6765
aVST_p_w_WRB_JJ_h
p6766
aS'N0_p_VBP'
p6767
aVN0_w_l
p6768
aVN0_p_w_VBP_l
p6769
aS'N0_t_i'
p6770
aS'N0_t_p_i_VBP'
p6771
aVN0_t_w_i_l
p6772
aVST_p_w_WRB_JJ_h_N0_p_w_VBP_l
p6773
aVST_p_w_WRB_JJ_h_N0_w_l
p6774
aS'ST_t_o_N0_p_VBP'
p6775
aVST_w_h_N0_t_i
p6776
aS'ST_p_WRB_JJ_N0_p_VBP'
p6777
aS'ST_t_o_N0_t_i'
p6778
aVAR_h_l
p6779
aS'N1_p_VBD_VB'
p6780
aVN1_w_d
p6781
aVN1_p_w_VBD_VB_d
p6782
aS'N1_t_i'
p6783
aS'N1_t_p_i_VBD_VB'
p6784
aVN1_t_w_i_d
p6785
aS'N0_p_VBP_N1_p_VBD_VB'
p6786
aS'N0_p_VBP_N1_p_VBD_VB_N2_p_NNP'
p6787
aS'N0_w_iN1_p_VBD_VB_N2_p_NNP'
p6788
aI0
tp6789
a((lp6790
S'ST_p_VBP'
p6791
aVST_w_l
p6792
aVST_p_w_VBP_l
p6793
aS'N0_p_VBD_VB'
p6794
aVN0_w_d
p6795
aVN0_p_w_VBD_VB_d
p6796
aS'N0_t_i'
p6797
aS'N0_t_p_i_VBD_VB'
p6798
aVN0_t_w_i_d
p6799
aVST_p_w_VBP_l_N0_p_w_VBD_VB_d
p6800
aVST_p_w_VBP_l_N0_w_d
p6801
aS'ST_t_i_N0_p_VBD_VB'
p6802
aVST_w_l_N0_t_i
p6803
aS'ST_p_VBP_N0_p_VBD_VB'
p6804
aS'ST_t_i_N0_t_i'
p6805
aS'N1_p_NNP'
p6806
aVN1_w_W
p6807
aVN1_p_w_NNP_W
p6808
aS'N1_t_a'
p6809
aS'N1_t_p_a_NNP'
p6810
aVN1_t_w_a_W
p6811
aS'N0_p_VBD_VB_N1_p_NNP'
p6812
aI1
tp6813
a((lp6814
S'ST_p_WRB_JJ'
p6815
aVST_w_h
p6816
aVST_p_w_WRB_JJ_h
p6817
aS'N0_p_VBD_VB'
p6818
aVN0_w_d
p6819
aVN0_p_w_VBD_VB_d
p6820
aS'N0_t_i'
p6821
aS'N0_t_p_i_VBD_VB'
p6822
aVN0_t_w_i_d
p6823
aVST_p_w_WRB_JJ_h_N0_p_w_VBD_VB_d
p6824
aVST_p_w_WRB_JJ_h_N0_w_d
p6825
aS'ST_t_o_N0_p_VBD_VB'
p6826
aVST_w_h_N0_t_i
p6827
aS'ST_p_WRB_JJ_N0_p_VBD_VB'
p6828
aS'ST_t_o_N0_t_i'
p6829
aS'N1_p_NNP'
p6830
aVN1_w_W
p6831
aVN1_p_w_NNP_W
p6832
aS'N1_t_a'
p6833
aS'N1_t_p_a_NNP'
p6834
aVN1_t_w_a_W
p6835
aS'N0_p_VBD_VB_N1_p_NNP'
p6836
aI0
tp6837
a((lp6838
S'ST_p_VBD_VB'
p6839
aVST_w_d
p6840
aVST_p_w_VBD_VB_d
p6841
aS'N0_p_NNP'
p6842
aVN0_w_W
p6843
aVN0_p_w_NNP_W
p6844
aS'N0_t_a'
p6845
aS'N0_t_p_a_NNP'
p6846
aVN0_t_w_a_W
p6847
aVST_p_w_VBD_VB_d_N0_p_w_NNP_W
p6848
aVST_p_w_VBD_VB_d_N0_w_W
p6849
aS'ST_t_i_N0_p_NNP'
p6850
aVST_w_d_N0_t_a
p6851
aS'ST_p_VBD_VB_N0_p_NNP'
p6852
aS'ST_t_i_N0_t_a'
p6853
aI2
tp6854
a((lp6855
S'ST_p_VBD_VB'
p6856
aVST_w_d
p6857
aVST_p_w_VBD_VB_d
p6858
aS'N0_p_NNP'
p6859
aVN0_w_W
p6860
aVN0_p_w_NNP_W
p6861
aS'N0_t_a'
p6862
aS'N0_t_p_a_NNP'
p6863
aVN0_t_w_a_W
p6864
aVST_p_w_VBD_VB_d_N0_p_w_NNP_W
p6865
aVST_p_w_VBD_VB_d_N0_w_W
p6866
aS'ST_t_i_N0_p_NNP'
p6867
aVST_w_d_N0_t_a
p6868
aS'ST_p_VBD_VB_N0_p_NNP'
p6869
aS'ST_t_i_N0_t_a'
p6870
aVAL_W_d
p6871
aI1
tp6872
a((lp6873
S'ST_p_WRB_JJ'
p6874
aVST_w_h
p6875
aVST_p_w_WRB_JJ_h
p6876
aS'N0_p_NNP'
p6877
aVN0_w_W
p6878
aVN0_p_w_NNP_W
p6879
aS'N0_t_a'
p6880
aS'N0_t_p_a_NNP'
p6881
aVN0_t_w_a_W
p6882
aVST_p_w_WRB_JJ_h_N0_p_w_NNP_W
p6883
aVST_p_w_WRB_JJ_h_N0_w_W
p6884
aS'ST_t_o_N0_p_NNP'
p6885
aVST_w_h_N0_t_a
p6886
aS'ST_p_WRB_JJ_N0_p_NNP'
p6887
aS'ST_t_o_N0_t_a'
p6888
aI3
tp6889
a((lp6890
S'ST_p_WRB_JJ'
p6891
aVST_w_h
p6892
aVST_p_w_WRB_JJ_h
p6893
aS'N0_p_NNP'
p6894
aVN0_w_W
p6895
aVN0_p_w_NNP_W
p6896
aS'N0_t_a'
p6897
aS'N0_t_p_a_NNP'
p6898
aVN0_t_w_a_W
p6899
aVST_p_w_WRB_JJ_h_N0_p_w_NNP_W
p6900
aVST_p_w_WRB_JJ_h_N0_w_W
p6901
aS'ST_t_o_N0_p_NNP'
p6902
aVST_w_h_N0_t_a
p6903
aS'ST_p_WRB_JJ_N0_p_NNP'
p6904
aS'ST_t_o_N0_t_a'
p6905
aVAR_h_W
p6906
aI1
tp6907
a((lp6908
S'N0_p_NNP'
p6909
aVN0_w_W
p6910
aVN0_p_w_NNP_W
p6911
aS'N0_t_a'
p6912
aS'N0_t_p_a_NNP'
p6913
aVN0_t_w_a_W
p6914
aI0
tp6915
a((lp6916
S'N0_p_WRB_JJ'
p6917
aVN0_w_h
p6918
aVN0_p_w_WRB_JJ_h
p6919
aS'N0_t_o'
p6920
aS'N0_t_p_o_WRB_JJ'
p6921
aVN0_t_w_o_h
p6922
aS'N1_p_NNS'
p6923
aVN1_w_d
p6924
aVN1_p_w_NNS_d
p6925
aS'N1_t_o'
p6926
aS'N1_t_p_o_NNS'
p6927
aVN1_t_w_o_d
p6928
aS'N0_p_WRB_JJ_N1_p_NNS'
p6929
aS'N0_p_WRB_JJ_N1_p_NNS_N2_p_VBP_IN'
p6930
aS'N0_w_oN1_p_NNS_N2_p_VBP_IN'
p6931
aI0
tp6932
a((lp6933
S'ST_p_WRB_JJ'
p6934
aVST_w_h
p6935
aVST_p_w_WRB_JJ_h
p6936
aS'N0_p_NNS'
p6937
aVN0_w_d
p6938
aVN0_p_w_NNS_d
p6939
aS'N0_t_o'
p6940
aS'N0_t_p_o_NNS'
p6941
aVN0_t_w_o_d
p6942
aVST_p_w_WRB_JJ_h_N0_p_w_NNS_d
p6943
aVST_p_w_WRB_JJ_h_N0_w_d
p6944
aS'ST_t_o_N0_p_NNS'
p6945
aVST_w_h_N0_t_o
p6946
aS'ST_p_WRB_JJ_N0_p_NNS'
p6947
aS'ST_t_o_N0_t_o'
p6948
aS'N1_p_VBP_IN'
p6949
aVN1_w_a
p6950
aVN1_p_w_VBP_IN_a
p6951
aS'N1_t_r'
p6952
aS'N1_t_p_r_VBP_IN'
p6953
aVN1_t_w_r_a
p6954
aS'N0_p_NNS_N1_p_VBP_IN'
p6955
aS'N0_p_NNS_N1_p_VBP_IN_N2_p_NN_CC_NN_NN'
p6956
aS'N0_w_oN1_p_VBP_IN_N2_p_NN_CC_NN_NN'
p6957
aI3
tp6958
a((lp6959
S'ST_p_WRB_JJ'
p6960
aVST_w_h
p6961
aVST_p_w_WRB_JJ_h
p6962
aS'N0_p_NNS'
p6963
aVN0_w_d
p6964
aVN0_p_w_NNS_d
p6965
aS'N0_t_o'
p6966
aS'N0_t_p_o_NNS'
p6967
aVN0_t_w_o_d
p6968
aVST_p_w_WRB_JJ_h_N0_p_w_NNS_d
p6969
aVST_p_w_WRB_JJ_h_N0_w_d
p6970
aS'ST_t_o_N0_p_NNS'
p6971
aVST_w_h_N0_t_o
p6972
aS'ST_p_WRB_JJ_N0_p_NNS'
p6973
aS'ST_t_o_N0_t_o'
p6974
aVAR_h_d
p6975
aS'N1_p_VBP_IN'
p6976
aVN1_w_a
p6977
aVN1_p_w_VBP_IN_a
p6978
aS'N1_t_r'
p6979
aS'N1_t_p_r_VBP_IN'
p6980
aVN1_t_w_r_a
p6981
aS'N0_p_NNS_N1_p_VBP_IN'
p6982
aS'N0_p_NNS_N1_p_VBP_IN_N2_p_NN_CC_NN_NN'
p6983
aS'N0_w_oN1_p_VBP_IN_N2_p_NN_CC_NN_NN'
p6984
aI0
tp6985
a((lp6986
S'ST_p_NNS'
p6987
aVST_w_d
p6988
aVST_p_w_NNS_d
p6989
aS'N0_p_VBP_IN'
p6990
aVN0_w_a
p6991
aVN0_p_w_VBP_IN_a
p6992
aS'N0_t_r'
p6993
aS'N0_t_p_r_VBP_IN'
p6994
aVN0_t_w_r_a
p6995
aVST_p_w_NNS_d_N0_p_w_VBP_IN_a
p6996
aVST_p_w_NNS_d_N0_w_a
p6997
aS'ST_t_o_N0_p_VBP_IN'
p6998
aVST_w_d_N0_t_r
p6999
aS'ST_p_NNS_N0_p_VBP_IN'
p7000
aS'ST_t_o_N0_t_r'
p7001
aS'N1_p_NN_CC_NN_NN'
p7002
aVN1_w_s
p7003
aVN1_p_w_NN_CC_NN_NN_s
p7004
aS'N1_t_c'
p7005
aS'N1_t_p_c_NN_CC_NN_NN'
p7006
aVN1_t_w_c_s
p7007
aS'N0_p_VBP_IN_N1_p_NN_CC_NN_NN'
p7008
aI1
tp7009
a((lp7010
S'ST_p_WRB_JJ'
p7011
aVST_w_h
p7012
aVST_p_w_WRB_JJ_h
p7013
aS'N0_p_VBP_IN'
p7014
aVN0_w_a
p7015
aVN0_p_w_VBP_IN_a
p7016
aS'N0_t_r'
p7017
aS'N0_t_p_r_VBP_IN'
p7018
aVN0_t_w_r_a
p7019
aVST_p_w_WRB_JJ_h_N0_p_w_VBP_IN_a
p7020
aVST_p_w_WRB_JJ_h_N0_w_a
p7021
aS'ST_t_o_N0_p_VBP_IN'
p7022
aVST_w_h_N0_t_r
p7023
aS'ST_p_WRB_JJ_N0_p_VBP_IN'
p7024
aS'ST_t_o_N0_t_r'
p7025
aS'N1_p_NN_CC_NN_NN'
p7026
aVN1_w_s
p7027
aVN1_p_w_NN_CC_NN_NN_s
p7028
aS'N1_t_c'
p7029
aS'N1_t_p_c_NN_CC_NN_NN'
p7030
aVN1_t_w_c_s
p7031
aS'N0_p_VBP_IN_N1_p_NN_CC_NN_NN'
p7032
aI0
tp7033
a((lp7034
S'ST_p_VBP_IN'
p7035
aVST_w_a
p7036
aVST_p_w_VBP_IN_a
p7037
aS'N0_p_NN_CC_NN_NN'
p7038
aVN0_w_s
p7039
aVN0_p_w_NN_CC_NN_NN_s
p7040
aS'N0_t_c'
p7041
aS'N0_t_p_c_NN_CC_NN_NN'
p7042
aVN0_t_w_c_s
p7043
aVST_p_w_VBP_IN_a_N0_p_w_NN_CC_NN_NN_s
p7044
aVST_p_w_VBP_IN_a_N0_w_s
p7045
aS'ST_t_r_N0_p_NN_CC_NN_NN'
p7046
aVST_w_a_N0_t_c
p7047
aS'ST_p_VBP_IN_N0_p_NN_CC_NN_NN'
p7048
aS'ST_t_r_N0_t_c'
p7049
aI2
tp7050
a((lp7051
S'ST_p_VBP_IN'
p7052
aVST_w_a
p7053
aVST_p_w_VBP_IN_a
p7054
aS'N0_p_NN_CC_NN_NN'
p7055
aVN0_w_s
p7056
aVN0_p_w_NN_CC_NN_NN_s
p7057
aS'N0_t_c'
p7058
aS'N0_t_p_c_NN_CC_NN_NN'
p7059
aVN0_t_w_c_s
p7060
aVST_p_w_VBP_IN_a_N0_p_w_NN_CC_NN_NN_s
p7061
aVST_p_w_VBP_IN_a_N0_w_s
p7062
aS'ST_t_r_N0_p_NN_CC_NN_NN'
p7063
aVST_w_a_N0_t_c
p7064
aS'ST_p_VBP_IN_N0_p_NN_CC_NN_NN'
p7065
aS'ST_t_r_N0_t_c'
p7066
aVAL_s_a
p7067
aI1
tp7068
a((lp7069
S'ST_p_WRB_JJ'
p7070
aVST_w_h
p7071
aVST_p_w_WRB_JJ_h
p7072
aS'N0_p_NN_CC_NN_NN'
p7073
aVN0_w_s
p7074
aVN0_p_w_NN_CC_NN_NN_s
p7075
aS'N0_t_c'
p7076
aS'N0_t_p_c_NN_CC_NN_NN'
p7077
aVN0_t_w_c_s
p7078
aVST_p_w_WRB_JJ_h_N0_p_w_NN_CC_NN_NN_s
p7079
aVST_p_w_WRB_JJ_h_N0_w_s
p7080
aS'ST_t_o_N0_p_NN_CC_NN_NN'
p7081
aVST_w_h_N0_t_c
p7082
aS'ST_p_WRB_JJ_N0_p_NN_CC_NN_NN'
p7083
aS'ST_t_o_N0_t_c'
p7084
aI3
tp7085
a((lp7086
S'ST_p_WRB_JJ'
p7087
aVST_w_h
p7088
aVST_p_w_WRB_JJ_h
p7089
aS'N0_p_NN_CC_NN_NN'
p7090
aVN0_w_s
p7091
aVN0_p_w_NN_CC_NN_NN_s
p7092
aS'N0_t_c'
p7093
aS'N0_t_p_c_NN_CC_NN_NN'
p7094
aVN0_t_w_c_s
p7095
aVST_p_w_WRB_JJ_h_N0_p_w_NN_CC_NN_NN_s
p7096
aVST_p_w_WRB_JJ_h_N0_w_s
p7097
aS'ST_t_o_N0_p_NN_CC_NN_NN'
p7098
aVST_w_h_N0_t_c
p7099
aS'ST_p_WRB_JJ_N0_p_NN_CC_NN_NN'
p7100
aS'ST_t_o_N0_t_c'
p7101
aVAR_h_s
p7102
aI1
tp7103
a((lp7104
S'N0_p_NN_CC_NN_NN'
p7105
aVN0_w_s
p7106
aVN0_p_w_NN_CC_NN_NN_s
p7107
aS'N0_t_c'
p7108
aS'N0_t_p_c_NN_CC_NN_NN'
p7109
aVN0_t_w_c_s
p7110
aI0
tp7111
a((lp7112
S'N0_p_WP'
p7113
aVN0_w_w
p7114
aVN0_p_w_WP_w
p7115
aS'N0_t_h'
p7116
aS'N0_t_p_h_WP'
p7117
aVN0_t_w_h_w
p7118
aS'N1_p_VBZ'
p7119
aVN1_w_i
p7120
aVN1_p_w_VBZ_i
p7121
aS'N1_t_s'
p7122
aS'N1_t_p_s_VBZ'
p7123
aVN1_t_w_s_i
p7124
aS'N0_p_WP_N1_p_VBZ'
p7125
aS'N0_p_WP_N1_p_VBZ_N2_p_NN_NN'
p7126
aS'N0_w_hN1_p_VBZ_N2_p_NN_NN'
p7127
aI0
tp7128
a((lp7129
S'ST_p_WP'
p7130
aVST_w_w
p7131
aVST_p_w_WP_w
p7132
aS'N0_p_VBZ'
p7133
aVN0_w_i
p7134
aVN0_p_w_VBZ_i
p7135
aS'N0_t_s'
p7136
aS'N0_t_p_s_VBZ'
p7137
aVN0_t_w_s_i
p7138
aVST_p_w_WP_w_N0_p_w_VBZ_i
p7139
aVST_p_w_WP_w_N0_w_i
p7140
aS'ST_t_h_N0_p_VBZ'
p7141
aVST_w_w_N0_t_s
p7142
aS'ST_p_WP_N0_p_VBZ'
p7143
aS'ST_t_h_N0_t_s'
p7144
aS'N1_p_NN_NN'
p7145
aVN1_w_b
p7146
aVN1_p_w_NN_NN_b
p7147
aS'N1_t_u'
p7148
aS'N1_t_p_u_NN_NN'
p7149
aVN1_t_w_u_b
p7150
aS'N0_p_VBZ_N1_p_NN_NN'
p7151
aS'N0_p_VBZ_N1_p_NN_NN_N2_p_NNP_NN'
p7152
aS'N0_w_sN1_p_NN_NN_N2_p_NNP_NN'
p7153
aI3
tp7154
a((lp7155
S'ST_p_WP'
p7156
aVST_w_w
p7157
aVST_p_w_WP_w
p7158
aS'N0_p_VBZ'
p7159
aVN0_w_i
p7160
aVN0_p_w_VBZ_i
p7161
aS'N0_t_s'
p7162
aS'N0_t_p_s_VBZ'
p7163
aVN0_t_w_s_i
p7164
aVST_p_w_WP_w_N0_p_w_VBZ_i
p7165
aVST_p_w_WP_w_N0_w_i
p7166
aS'ST_t_h_N0_p_VBZ'
p7167
aVST_w_w_N0_t_s
p7168
aS'ST_p_WP_N0_p_VBZ'
p7169
aS'ST_t_h_N0_t_s'
p7170
aVAR_w_i
p7171
aS'N1_p_NN_NN'
p7172
aVN1_w_b
p7173
aVN1_p_w_NN_NN_b
p7174
aS'N1_t_u'
p7175
aS'N1_t_p_u_NN_NN'
p7176
aVN1_t_w_u_b
p7177
aS'N0_p_VBZ_N1_p_NN_NN'
p7178
aS'N0_p_VBZ_N1_p_NN_NN_N2_p_NNP_NN'
p7179
aS'N0_w_sN1_p_NN_NN_N2_p_NNP_NN'
p7180
aI0
tp7181
a((lp7182
S'ST_p_VBZ'
p7183
aVST_w_i
p7184
aVST_p_w_VBZ_i
p7185
aS'N0_p_NN_NN'
p7186
aVN0_w_b
p7187
aVN0_p_w_NN_NN_b
p7188
aS'N0_t_u'
p7189
aS'N0_t_p_u_NN_NN'
p7190
aVN0_t_w_u_b
p7191
aVST_p_w_VBZ_i_N0_p_w_NN_NN_b
p7192
aVST_p_w_VBZ_i_N0_w_b
p7193
aS'ST_t_s_N0_p_NN_NN'
p7194
aVST_w_i_N0_t_u
p7195
aS'ST_p_VBZ_N0_p_NN_NN'
p7196
aS'ST_t_s_N0_t_u'
p7197
aS'N1_p_NNP_NN'
p7198
aVN1_w_E
p7199
aVN1_p_w_NNP_NN_E
p7200
aS'N1_t_i'
p7201
aS'N1_t_p_i_NNP_NN'
p7202
aVN1_t_w_i_E
p7203
aS'N0_p_NN_NN_N1_p_NNP_NN'
p7204
aI1
tp7205
a((lp7206
S'ST_p_WP'
p7207
aVST_w_w
p7208
aVST_p_w_WP_w
p7209
aS'N0_p_NN_NN'
p7210
aVN0_w_b
p7211
aVN0_p_w_NN_NN_b
p7212
aS'N0_t_u'
p7213
aS'N0_t_p_u_NN_NN'
p7214
aVN0_t_w_u_b
p7215
aVST_p_w_WP_w_N0_p_w_NN_NN_b
p7216
aVST_p_w_WP_w_N0_w_b
p7217
aS'ST_t_h_N0_p_NN_NN'
p7218
aVST_w_w_N0_t_u
p7219
aS'ST_p_WP_N0_p_NN_NN'
p7220
aS'ST_t_h_N0_t_u'
p7221
aS'N1_p_NNP_NN'
p7222
aVN1_w_E
p7223
aVN1_p_w_NNP_NN_E
p7224
aS'N1_t_i'
p7225
aS'N1_t_p_i_NNP_NN'
p7226
aVN1_t_w_i_E
p7227
aS'N0_p_NN_NN_N1_p_NNP_NN'
p7228
aI0
tp7229
a((lp7230
S'ST_p_NN_NN'
p7231
aVST_w_b
p7232
aVST_p_w_NN_NN_b
p7233
aS'N0_p_NNP_NN'
p7234
aVN0_w_E
p7235
aVN0_p_w_NNP_NN_E
p7236
aS'N0_t_i'
p7237
aS'N0_t_p_i_NNP_NN'
p7238
aVN0_t_w_i_E
p7239
aVST_p_w_NN_NN_b_N0_p_w_NNP_NN_E
p7240
aVST_p_w_NN_NN_b_N0_w_E
p7241
aS'ST_t_u_N0_p_NNP_NN'
p7242
aVST_w_b_N0_t_i
p7243
aS'ST_p_NN_NN_N0_p_NNP_NN'
p7244
aS'ST_t_u_N0_t_i'
p7245
aI2
tp7246
a((lp7247
S'ST_p_NN_NN'
p7248
aVST_w_b
p7249
aVST_p_w_NN_NN_b
p7250
aS'N0_p_NNP_NN'
p7251
aVN0_w_E
p7252
aVN0_p_w_NNP_NN_E
p7253
aS'N0_t_i'
p7254
aS'N0_t_p_i_NNP_NN'
p7255
aVN0_t_w_i_E
p7256
aVST_p_w_NN_NN_b_N0_p_w_NNP_NN_E
p7257
aVST_p_w_NN_NN_b_N0_w_E
p7258
aS'ST_t_u_N0_p_NNP_NN'
p7259
aVST_w_b_N0_t_i
p7260
aS'ST_p_NN_NN_N0_p_NNP_NN'
p7261
aS'ST_t_u_N0_t_i'
p7262
aVAL_E_b
p7263
aI1
tp7264
a((lp7265
S'ST_p_WP'
p7266
aVST_w_w
p7267
aVST_p_w_WP_w
p7268
aS'N0_p_NNP_NN'
p7269
aVN0_w_E
p7270
aVN0_p_w_NNP_NN_E
p7271
aS'N0_t_i'
p7272
aS'N0_t_p_i_NNP_NN'
p7273
aVN0_t_w_i_E
p7274
aVST_p_w_WP_w_N0_p_w_NNP_NN_E
p7275
aVST_p_w_WP_w_N0_w_E
p7276
aS'ST_t_h_N0_p_NNP_NN'
p7277
aVST_w_w_N0_t_i
p7278
aS'ST_p_WP_N0_p_NNP_NN'
p7279
aS'ST_t_h_N0_t_i'
p7280
aI3
tp7281
a((lp7282
S'ST_p_WP'
p7283
aVST_w_w
p7284
aVST_p_w_WP_w
p7285
aS'N0_p_NNP_NN'
p7286
aVN0_w_E
p7287
aVN0_p_w_NNP_NN_E
p7288
aS'N0_t_i'
p7289
aS'N0_t_p_i_NNP_NN'
p7290
aVN0_t_w_i_E
p7291
aVST_p_w_WP_w_N0_p_w_NNP_NN_E
p7292
aVST_p_w_WP_w_N0_w_E
p7293
aS'ST_t_h_N0_p_NNP_NN'
p7294
aVST_w_w_N0_t_i
p7295
aS'ST_p_WP_N0_p_NNP_NN'
p7296
aS'ST_t_h_N0_t_i'
p7297
aVAR_w_E
p7298
aI1
tp7299
a((lp7300
S'N0_p_NNP_NN'
p7301
aVN0_w_E
p7302
aVN0_p_w_NNP_NN_E
p7303
aS'N0_t_i'
p7304
aS'N0_t_p_i_NNP_NN'
p7305
aVN0_t_w_i_E
p7306
aI0
tp7307
a((lp7308
S'N0_p_WRB_JJ'
p7309
aVN0_w_h
p7310
aVN0_p_w_WRB_JJ_h
p7311
aS'N0_t_o'
p7312
aS'N0_t_p_o_WRB_JJ'
p7313
aVN0_t_w_o_h
p7314
aS'N1_p_NNS'
p7315
aVN1_w_c
p7316
aVN1_p_w_NNS_c
p7317
aS'N1_t_h'
p7318
aS'N1_t_p_h_NNS'
p7319
aVN1_t_w_h_c
p7320
aS'N0_p_WRB_JJ_N1_p_NNS'
p7321
aS'N0_p_WRB_JJ_N1_p_NNS_N2_p_VBZ_VBP'
p7322
aS'N0_w_oN1_p_NNS_N2_p_VBZ_VBP'
p7323
aI0
tp7324
a((lp7325
S'ST_p_WRB_JJ'
p7326
aVST_w_h
p7327
aVST_p_w_WRB_JJ_h
p7328
aS'N0_p_NNS'
p7329
aVN0_w_c
p7330
aVN0_p_w_NNS_c
p7331
aS'N0_t_h'
p7332
aS'N0_t_p_h_NNS'
p7333
aVN0_t_w_h_c
p7334
aVST_p_w_WRB_JJ_h_N0_p_w_NNS_c
p7335
aVST_p_w_WRB_JJ_h_N0_w_c
p7336
aS'ST_t_o_N0_p_NNS'
p7337
aVST_w_h_N0_t_h
p7338
aS'ST_p_WRB_JJ_N0_p_NNS'
p7339
aS'ST_t_o_N0_t_h'
p7340
aS'N1_p_VBZ_VBP'
p7341
aVN1_w_d
p7342
aVN1_p_w_VBZ_VBP_d
p7343
aS'N1_t_o'
p7344
aS'N1_t_p_o_VBZ_VBP'
p7345
aVN1_t_w_o_d
p7346
aS'N0_p_NNS_N1_p_VBZ_VBP'
p7347
aS'N0_p_NNS_N1_p_VBZ_VBP_N2_p_NNP_NNS'
p7348
aS'N0_w_hN1_p_VBZ_VBP_N2_p_NNP_NNS'
p7349
aI0
tp7350
a((lp7351
S'ST_p_NNS'
p7352
aVST_w_c
p7353
aVST_p_w_NNS_c
p7354
aS'N0_p_VBZ_VBP'
p7355
aVN0_w_d
p7356
aVN0_p_w_VBZ_VBP_d
p7357
aS'N0_t_o'
p7358
aS'N0_t_p_o_VBZ_VBP'
p7359
aVN0_t_w_o_d
p7360
aVST_p_w_NNS_c_N0_p_w_VBZ_VBP_d
p7361
aVST_p_w_NNS_c_N0_w_d
p7362
aS'ST_t_h_N0_p_VBZ_VBP'
p7363
aVST_w_c_N0_t_o
p7364
aS'ST_p_NNS_N0_p_VBZ_VBP'
p7365
aS'ST_t_h_N0_t_o'
p7366
aS'N1_p_NNP_NNS'
p7367
aVN1_w_D
p7368
aVN1_p_w_NNP_NNS_D
p7369
aS'N1_t_a'
p7370
aS'N1_t_p_a_NNP_NNS'
p7371
aVN1_t_w_a_D
p7372
aS'N0_p_VBZ_VBP_N1_p_NNP_NNS'
p7373
aI2
tp7374
a((lp7375
S'ST_p_NNS'
p7376
aVST_w_c
p7377
aVST_p_w_NNS_c
p7378
aS'N0_p_VBZ_VBP'
p7379
aVN0_w_d
p7380
aVN0_p_w_VBZ_VBP_d
p7381
aS'N0_t_o'
p7382
aS'N0_t_p_o_VBZ_VBP'
p7383
aVN0_t_w_o_d
p7384
aVST_p_w_NNS_c_N0_p_w_VBZ_VBP_d
p7385
aVST_p_w_NNS_c_N0_w_d
p7386
aS'ST_t_h_N0_p_VBZ_VBP'
p7387
aVST_w_c_N0_t_o
p7388
aS'ST_p_NNS_N0_p_VBZ_VBP'
p7389
aS'ST_t_h_N0_t_o'
p7390
aVAL_d_c
p7391
aS'N1_p_NNP_NNS'
p7392
aVN1_w_D
p7393
aVN1_p_w_NNP_NNS_D
p7394
aS'N1_t_a'
p7395
aS'N1_t_p_a_NNP_NNS'
p7396
aVN1_t_w_a_D
p7397
aS'N0_p_VBZ_VBP_N1_p_NNP_NNS'
p7398
aI1
tp7399
a((lp7400
S'ST_p_WRB_JJ'
p7401
aVST_w_h
p7402
aVST_p_w_WRB_JJ_h
p7403
aS'N0_p_VBZ_VBP'
p7404
aVN0_w_d
p7405
aVN0_p_w_VBZ_VBP_d
p7406
aS'N0_t_o'
p7407
aS'N0_t_p_o_VBZ_VBP'
p7408
aVN0_t_w_o_d
p7409
aVST_p_w_WRB_JJ_h_N0_p_w_VBZ_VBP_d
p7410
aVST_p_w_WRB_JJ_h_N0_w_d
p7411
aS'ST_t_o_N0_p_VBZ_VBP'
p7412
aVST_w_h_N0_t_o
p7413
aS'ST_p_WRB_JJ_N0_p_VBZ_VBP'
p7414
aS'ST_t_o_N0_t_o'
p7415
aS'N1_p_NNP_NNS'
p7416
aVN1_w_D
p7417
aVN1_p_w_NNP_NNS_D
p7418
aS'N1_t_a'
p7419
aS'N1_t_p_a_NNP_NNS'
p7420
aVN1_t_w_a_D
p7421
aS'N0_p_VBZ_VBP_N1_p_NNP_NNS'
p7422
aI3
tp7423
a((lp7424
S'ST_p_WRB_JJ'
p7425
aVST_w_h
p7426
aVST_p_w_WRB_JJ_h
p7427
aS'N0_p_VBZ_VBP'
p7428
aVN0_w_d
p7429
aVN0_p_w_VBZ_VBP_d
p7430
aS'N0_t_o'
p7431
aS'N0_t_p_o_VBZ_VBP'
p7432
aVN0_t_w_o_d
p7433
aVST_p_w_WRB_JJ_h_N0_p_w_VBZ_VBP_d
p7434
aVST_p_w_WRB_JJ_h_N0_w_d
p7435
aS'ST_t_o_N0_p_VBZ_VBP'
p7436
aVST_w_h_N0_t_o
p7437
aS'ST_p_WRB_JJ_N0_p_VBZ_VBP'
p7438
aS'ST_t_o_N0_t_o'
p7439
aVAR_h_d
p7440
aS'N1_p_NNP_NNS'
p7441
aVN1_w_D
p7442
aVN1_p_w_NNP_NNS_D
p7443
aS'N1_t_a'
p7444
aS'N1_t_p_a_NNP_NNS'
p7445
aVN1_t_w_a_D
p7446
aS'N0_p_VBZ_VBP_N1_p_NNP_NNS'
p7447
aI0
tp7448
a((lp7449
S'ST_p_VBZ_VBP'
p7450
aVST_w_d
p7451
aVST_p_w_VBZ_VBP_d
p7452
aS'N0_p_NNP_NNS'
p7453
aVN0_w_D
p7454
aVN0_p_w_NNP_NNS_D
p7455
aS'N0_t_a'
p7456
aS'N0_t_p_a_NNP_NNS'
p7457
aVN0_t_w_a_D
p7458
aVST_p_w_VBZ_VBP_d_N0_p_w_NNP_NNS_D
p7459
aVST_p_w_VBZ_VBP_d_N0_w_D
p7460
aS'ST_t_o_N0_p_NNP_NNS'
p7461
aVST_w_d_N0_t_a
p7462
aS'ST_p_VBZ_VBP_N0_p_NNP_NNS'
p7463
aS'ST_t_o_N0_t_a'
p7464
aI1
tp7465
a((lp7466
S'ST_p_WRB_JJ'
p7467
aVST_w_h
p7468
aVST_p_w_WRB_JJ_h
p7469
aS'N0_p_NNP_NNS'
p7470
aVN0_w_D
p7471
aVN0_p_w_NNP_NNS_D
p7472
aS'N0_t_a'
p7473
aS'N0_t_p_a_NNP_NNS'
p7474
aVN0_t_w_a_D
p7475
aVST_p_w_WRB_JJ_h_N0_p_w_NNP_NNS_D
p7476
aVST_p_w_WRB_JJ_h_N0_w_D
p7477
aS'ST_t_o_N0_p_NNP_NNS'
p7478
aVST_w_h_N0_t_a
p7479
aS'ST_p_WRB_JJ_N0_p_NNP_NNS'
p7480
aS'ST_t_o_N0_t_a'
p7481
aI3
tp7482
a((lp7483
S'ST_p_WRB_JJ'
p7484
aVST_w_h
p7485
aVST_p_w_WRB_JJ_h
p7486
aS'N0_p_NNP_NNS'
p7487
aVN0_w_D
p7488
aVN0_p_w_NNP_NNS_D
p7489
aS'N0_t_a'
p7490
aS'N0_t_p_a_NNP_NNS'
p7491
aVN0_t_w_a_D
p7492
aVST_p_w_WRB_JJ_h_N0_p_w_NNP_NNS_D
p7493
aVST_p_w_WRB_JJ_h_N0_w_D
p7494
aS'ST_t_o_N0_p_NNP_NNS'
p7495
aVST_w_h_N0_t_a
p7496
aS'ST_p_WRB_JJ_N0_p_NNP_NNS'
p7497
aS'ST_t_o_N0_t_a'
p7498
aVAR_h_D
p7499
aI1
tp7500
a((lp7501
S'N0_p_NNP_NNS'
p7502
aVN0_w_D
p7503
aVN0_p_w_NNP_NNS_D
p7504
aS'N0_t_a'
p7505
aS'N0_t_p_a_NNP_NNS'
p7506
aVN0_t_w_a_D
p7507
aI0
tp7508
a((lp7509
S'N0_p_WP'
p7510
aVN0_w_w
p7511
aVN0_p_w_WP_w
p7512
aS'N0_t_h'
p7513
aS'N0_t_p_h_WP'
p7514
aVN0_t_w_h_w
p7515
aS'N1_p_VBD'
p7516
aVN1_w_s
p7517
aVN1_p_w_VBD_s
p7518
aS'N1_t_t'
p7519
aS'N1_t_p_t_VBD'
p7520
aVN1_t_w_t_s
p7521
aS'N0_p_WP_N1_p_VBD'
p7522
aS'N0_p_WP_N1_p_VBD_N2_p_NNP'
p7523
aS'N0_w_hN1_p_VBD_N2_p_NNP'
p7524
aI0
tp7525
a((lp7526
S'ST_p_WP'
p7527
aVST_w_w
p7528
aVST_p_w_WP_w
p7529
aS'N0_p_VBD'
p7530
aVN0_w_s
p7531
aVN0_p_w_VBD_s
p7532
aS'N0_t_t'
p7533
aS'N0_t_p_t_VBD'
p7534
aVN0_t_w_t_s
p7535
aVST_p_w_WP_w_N0_p_w_VBD_s
p7536
aVST_p_w_WP_w_N0_w_s
p7537
aS'ST_t_h_N0_p_VBD'
p7538
aVST_w_w_N0_t_t
p7539
aS'ST_p_WP_N0_p_VBD'
p7540
aS'ST_t_h_N0_t_t'
p7541
aS'N1_p_NNP'
p7542
aVN1_w_S
p7543
aVN1_p_w_NNP_S
p7544
aS'N1_t_t'
p7545
aS'N1_t_p_t_NNP'
p7546
aVN1_t_w_t_S
p7547
aS'N0_p_VBD_N1_p_NNP'
p7548
aI0
tp7549
a((lp7550
S'ST_p_VBD'
p7551
aVST_w_s
p7552
aVST_p_w_VBD_s
p7553
aS'N0_p_NNP'
p7554
aVN0_w_S
p7555
aVN0_p_w_NNP_S
p7556
aS'N0_t_t'
p7557
aS'N0_t_p_t_NNP'
p7558
aVN0_t_w_t_S
p7559
aVST_p_w_VBD_s_N0_p_w_NNP_S
p7560
aVST_p_w_VBD_s_N0_w_S
p7561
aS'ST_t_t_N0_p_NNP'
p7562
aVST_w_s_N0_t_t
p7563
aS'ST_p_VBD_N0_p_NNP'
p7564
aS'ST_t_t_N0_t_t'
p7565
aI2
tp7566
a((lp7567
S'ST_p_VBD'
p7568
aVST_w_s
p7569
aVST_p_w_VBD_s
p7570
aS'N0_p_NNP'
p7571
aVN0_w_S
p7572
aVN0_p_w_NNP_S
p7573
aS'N0_t_t'
p7574
aS'N0_t_p_t_NNP'
p7575
aVN0_t_w_t_S
p7576
aVST_p_w_VBD_s_N0_p_w_NNP_S
p7577
aVST_p_w_VBD_s_N0_w_S
p7578
aS'ST_t_t_N0_p_NNP'
p7579
aVST_w_s_N0_t_t
p7580
aS'ST_p_VBD_N0_p_NNP'
p7581
aS'ST_t_t_N0_t_t'
p7582
aVAL_S_s
p7583
aI1
tp7584
a((lp7585
S'ST_p_WP'
p7586
aVST_w_w
p7587
aVST_p_w_WP_w
p7588
aS'N0_p_NNP'
p7589
aVN0_w_S
p7590
aVN0_p_w_NNP_S
p7591
aS'N0_t_t'
p7592
aS'N0_t_p_t_NNP'
p7593
aVN0_t_w_t_S
p7594
aVST_p_w_WP_w_N0_p_w_NNP_S
p7595
aVST_p_w_WP_w_N0_w_S
p7596
aS'ST_t_h_N0_p_NNP'
p7597
aVST_w_w_N0_t_t
p7598
aS'ST_p_WP_N0_p_NNP'
p7599
aS'ST_t_h_N0_t_t'
p7600
aI3
tp7601
a((lp7602
S'ST_p_WP'
p7603
aVST_w_w
p7604
aVST_p_w_WP_w
p7605
aS'N0_p_NNP'
p7606
aVN0_w_S
p7607
aVN0_p_w_NNP_S
p7608
aS'N0_t_t'
p7609
aS'N0_t_p_t_NNP'
p7610
aVN0_t_w_t_S
p7611
aVST_p_w_WP_w_N0_p_w_NNP_S
p7612
aVST_p_w_WP_w_N0_w_S
p7613
aS'ST_t_h_N0_p_NNP'
p7614
aVST_w_w_N0_t_t
p7615
aS'ST_p_WP_N0_p_NNP'
p7616
aS'ST_t_h_N0_t_t'
p7617
aVAR_w_S
p7618
aI1
tp7619
a((lp7620
S'N0_p_NNP'
p7621
aVN0_w_S
p7622
aVN0_p_w_NNP_S
p7623
aS'N0_t_t'
p7624
aS'N0_t_p_t_NNP'
p7625
aVN0_t_w_t_S
p7626
aI0
tp7627
a((lp7628
S'N0_p_WP'
p7629
aVN0_w_w
p7630
aVN0_p_w_WP_w
p7631
aS'N0_t_h'
p7632
aS'N0_t_p_h_WP'
p7633
aVN0_t_w_h_w
p7634
aS'N1_p_VBZ'
p7635
aVN1_w_i
p7636
aVN1_p_w_VBZ_i
p7637
aS'N1_t_s'
p7638
aS'N1_t_p_s_VBZ'
p7639
aVN1_t_w_s_i
p7640
aS'N0_p_WP_N1_p_VBZ'
p7641
aS'N0_p_WP_N1_p_VBZ_N2_p_NN'
p7642
aS'N0_w_hN1_p_VBZ_N2_p_NN'
p7643
aI0
tp7644
a((lp7645
S'ST_p_WP'
p7646
aVST_w_w
p7647
aVST_p_w_WP_w
p7648
aS'N0_p_VBZ'
p7649
aVN0_w_i
p7650
aVN0_p_w_VBZ_i
p7651
aS'N0_t_s'
p7652
aS'N0_t_p_s_VBZ'
p7653
aVN0_t_w_s_i
p7654
aVST_p_w_WP_w_N0_p_w_VBZ_i
p7655
aVST_p_w_WP_w_N0_w_i
p7656
aS'ST_t_h_N0_p_VBZ'
p7657
aVST_w_w_N0_t_s
p7658
aS'ST_p_WP_N0_p_VBZ'
p7659
aS'ST_t_h_N0_t_s'
p7660
aS'N1_p_NN'
p7661
aVN1_w_c
p7662
aVN1_p_w_NN_c
p7663
aS'N1_t_a'
p7664
aS'N1_t_p_a_NN'
p7665
aVN1_t_w_a_c
p7666
aS'N0_p_VBZ_N1_p_NN'
p7667
aS'N0_p_VBZ_N1_p_NN_N2_p_NNP_NNP'
p7668
aS'N0_w_sN1_p_NN_N2_p_NNP_NNP'
p7669
aI3
tp7670
a((lp7671
S'ST_p_WP'
p7672
aVST_w_w
p7673
aVST_p_w_WP_w
p7674
aS'N0_p_VBZ'
p7675
aVN0_w_i
p7676
aVN0_p_w_VBZ_i
p7677
aS'N0_t_s'
p7678
aS'N0_t_p_s_VBZ'
p7679
aVN0_t_w_s_i
p7680
aVST_p_w_WP_w_N0_p_w_VBZ_i
p7681
aVST_p_w_WP_w_N0_w_i
p7682
aS'ST_t_h_N0_p_VBZ'
p7683
aVST_w_w_N0_t_s
p7684
aS'ST_p_WP_N0_p_VBZ'
p7685
aS'ST_t_h_N0_t_s'
p7686
aVAR_w_i
p7687
aS'N1_p_NN'
p7688
aVN1_w_c
p7689
aVN1_p_w_NN_c
p7690
aS'N1_t_a'
p7691
aS'N1_t_p_a_NN'
p7692
aVN1_t_w_a_c
p7693
aS'N0_p_VBZ_N1_p_NN'
p7694
aS'N0_p_VBZ_N1_p_NN_N2_p_NNP_NNP'
p7695
aS'N0_w_sN1_p_NN_N2_p_NNP_NNP'
p7696
aI0
tp7697
a((lp7698
S'ST_p_VBZ'
p7699
aVST_w_i
p7700
aVST_p_w_VBZ_i
p7701
aS'N0_p_NN'
p7702
aVN0_w_c
p7703
aVN0_p_w_NN_c
p7704
aS'N0_t_a'
p7705
aS'N0_t_p_a_NN'
p7706
aVN0_t_w_a_c
p7707
aVST_p_w_VBZ_i_N0_p_w_NN_c
p7708
aVST_p_w_VBZ_i_N0_w_c
p7709
aS'ST_t_s_N0_p_NN'
p7710
aVST_w_i_N0_t_a
p7711
aS'ST_p_VBZ_N0_p_NN'
p7712
aS'ST_t_s_N0_t_a'
p7713
aS'N1_p_NNP_NNP'
p7714
aVN1_w_E
p7715
aVN1_p_w_NNP_NNP_E
p7716
aS'N1_t_d'
p7717
aS'N1_t_p_d_NNP_NNP'
p7718
aVN1_t_w_d_E
p7719
aS'N0_p_NN_N1_p_NNP_NNP'
p7720
aI1
tp7721
a((lp7722
S'ST_p_WP'
p7723
aVST_w_w
p7724
aVST_p_w_WP_w
p7725
aS'N0_p_NN'
p7726
aVN0_w_c
p7727
aVN0_p_w_NN_c
p7728
aS'N0_t_a'
p7729
aS'N0_t_p_a_NN'
p7730
aVN0_t_w_a_c
p7731
aVST_p_w_WP_w_N0_p_w_NN_c
p7732
aVST_p_w_WP_w_N0_w_c
p7733
aS'ST_t_h_N0_p_NN'
p7734
aVST_w_w_N0_t_a
p7735
aS'ST_p_WP_N0_p_NN'
p7736
aS'ST_t_h_N0_t_a'
p7737
aS'N1_p_NNP_NNP'
p7738
aVN1_w_E
p7739
aVN1_p_w_NNP_NNP_E
p7740
aS'N1_t_d'
p7741
aS'N1_t_p_d_NNP_NNP'
p7742
aVN1_t_w_d_E
p7743
aS'N0_p_NN_N1_p_NNP_NNP'
p7744
aI0
tp7745
a((lp7746
S'ST_p_NN'
p7747
aVST_w_c
p7748
aVST_p_w_NN_c
p7749
aS'N0_p_NNP_NNP'
p7750
aVN0_w_E
p7751
aVN0_p_w_NNP_NNP_E
p7752
aS'N0_t_d'
p7753
aS'N0_t_p_d_NNP_NNP'
p7754
aVN0_t_w_d_E
p7755
aVST_p_w_NN_c_N0_p_w_NNP_NNP_E
p7756
aVST_p_w_NN_c_N0_w_E
p7757
aS'ST_t_a_N0_p_NNP_NNP'
p7758
aVST_w_c_N0_t_d
p7759
aS'ST_p_NN_N0_p_NNP_NNP'
p7760
aS'ST_t_a_N0_t_d'
p7761
aI2
tp7762
a((lp7763
S'ST_p_NN'
p7764
aVST_w_c
p7765
aVST_p_w_NN_c
p7766
aS'N0_p_NNP_NNP'
p7767
aVN0_w_E
p7768
aVN0_p_w_NNP_NNP_E
p7769
aS'N0_t_d'
p7770
aS'N0_t_p_d_NNP_NNP'
p7771
aVN0_t_w_d_E
p7772
aVST_p_w_NN_c_N0_p_w_NNP_NNP_E
p7773
aVST_p_w_NN_c_N0_w_E
p7774
aS'ST_t_a_N0_p_NNP_NNP'
p7775
aVST_w_c_N0_t_d
p7776
aS'ST_p_NN_N0_p_NNP_NNP'
p7777
aS'ST_t_a_N0_t_d'
p7778
aVAL_E_c
p7779
aI1
tp7780
a((lp7781
S'ST_p_WP'
p7782
aVST_w_w
p7783
aVST_p_w_WP_w
p7784
aS'N0_p_NNP_NNP'
p7785
aVN0_w_E
p7786
aVN0_p_w_NNP_NNP_E
p7787
aS'N0_t_d'
p7788
aS'N0_t_p_d_NNP_NNP'
p7789
aVN0_t_w_d_E
p7790
aVST_p_w_WP_w_N0_p_w_NNP_NNP_E
p7791
aVST_p_w_WP_w_N0_w_E
p7792
aS'ST_t_h_N0_p_NNP_NNP'
p7793
aVST_w_w_N0_t_d
p7794
aS'ST_p_WP_N0_p_NNP_NNP'
p7795
aS'ST_t_h_N0_t_d'
p7796
aI3
tp7797
a((lp7798
S'ST_p_WP'
p7799
aVST_w_w
p7800
aVST_p_w_WP_w
p7801
aS'N0_p_NNP_NNP'
p7802
aVN0_w_E
p7803
aVN0_p_w_NNP_NNP_E
p7804
aS'N0_t_d'
p7805
aS'N0_t_p_d_NNP_NNP'
p7806
aVN0_t_w_d_E
p7807
aVST_p_w_WP_w_N0_p_w_NNP_NNP_E
p7808
aVST_p_w_WP_w_N0_w_E
p7809
aS'ST_t_h_N0_p_NNP_NNP'
p7810
aVST_w_w_N0_t_d
p7811
aS'ST_p_WP_N0_p_NNP_NNP'
p7812
aS'ST_t_h_N0_t_d'
p7813
aVAR_w_E
p7814
aI1
tp7815
a((lp7816
S'N0_p_NNP_NNP'
p7817
aVN0_w_E
p7818
aVN0_p_w_NNP_NNP_E
p7819
aS'N0_t_d'
p7820
aS'N0_t_p_d_NNP_NNP'
p7821
aVN0_t_w_d_E
p7822
aI0
tp7823
a((lp7824
S'N0_p_WP'
p7825
aVN0_w_w
p7826
aVN0_p_w_WP_w
p7827
aS'N0_t_h'
p7828
aS'N0_t_p_h_WP'
p7829
aVN0_t_w_h_w
p7830
aS'N1_p_VBP'
p7831
aVN1_w_a
p7832
aVN1_p_w_VBP_a
p7833
aS'N1_t_r'
p7834
aS'N1_t_p_r_VBP'
p7835
aVN1_t_w_r_a
p7836
aS'N0_p_WP_N1_p_VBP'
p7837
aS'N0_p_WP_N1_p_VBP_N2_p_NNS_IN'
p7838
aS'N0_w_hN1_p_VBP_N2_p_NNS_IN'
p7839
aI0
tp7840
a((lp7841
S'ST_p_WP'
p7842
aVST_w_w
p7843
aVST_p_w_WP_w
p7844
aS'N0_p_VBP'
p7845
aVN0_w_a
p7846
aVN0_p_w_VBP_a
p7847
aS'N0_t_r'
p7848
aS'N0_t_p_r_VBP'
p7849
aVN0_t_w_r_a
p7850
aVST_p_w_WP_w_N0_p_w_VBP_a
p7851
aVST_p_w_WP_w_N0_w_a
p7852
aS'ST_t_h_N0_p_VBP'
p7853
aVST_w_w_N0_t_r
p7854
aS'ST_p_WP_N0_p_VBP'
p7855
aS'ST_t_h_N0_t_r'
p7856
aS'N1_p_NNS_IN'
p7857
aVN1_w_f
p7858
aVN1_p_w_NNS_IN_f
p7859
aS'N1_t_o'
p7860
aS'N1_t_p_o_NNS_IN'
p7861
aVN1_t_w_o_f
p7862
aS'N0_p_VBP_N1_p_NNS_IN'
p7863
aS'N0_p_VBP_N1_p_NNS_IN_N2_p_NNP_NNP'
p7864
aS'N0_w_rN1_p_NNS_IN_N2_p_NNP_NNP'
p7865
aI3
tp7866
a((lp7867
S'ST_p_WP'
p7868
aVST_w_w
p7869
aVST_p_w_WP_w
p7870
aS'N0_p_VBP'
p7871
aVN0_w_a
p7872
aVN0_p_w_VBP_a
p7873
aS'N0_t_r'
p7874
aS'N0_t_p_r_VBP'
p7875
aVN0_t_w_r_a
p7876
aVST_p_w_WP_w_N0_p_w_VBP_a
p7877
aVST_p_w_WP_w_N0_w_a
p7878
aS'ST_t_h_N0_p_VBP'
p7879
aVST_w_w_N0_t_r
p7880
aS'ST_p_WP_N0_p_VBP'
p7881
aS'ST_t_h_N0_t_r'
p7882
aVAR_w_a
p7883
aS'N1_p_NNS_IN'
p7884
aVN1_w_f
p7885
aVN1_p_w_NNS_IN_f
p7886
aS'N1_t_o'
p7887
aS'N1_t_p_o_NNS_IN'
p7888
aVN1_t_w_o_f
p7889
aS'N0_p_VBP_N1_p_NNS_IN'
p7890
aS'N0_p_VBP_N1_p_NNS_IN_N2_p_NNP_NNP'
p7891
aS'N0_w_rN1_p_NNS_IN_N2_p_NNP_NNP'
p7892
aI0
tp7893
a((lp7894
S'ST_p_VBP'
p7895
aVST_w_a
p7896
aVST_p_w_VBP_a
p7897
aS'N0_p_NNS_IN'
p7898
aVN0_w_f
p7899
aVN0_p_w_NNS_IN_f
p7900
aS'N0_t_o'
p7901
aS'N0_t_p_o_NNS_IN'
p7902
aVN0_t_w_o_f
p7903
aVST_p_w_VBP_a_N0_p_w_NNS_IN_f
p7904
aVST_p_w_VBP_a_N0_w_f
p7905
aS'ST_t_r_N0_p_NNS_IN'
p7906
aVST_w_a_N0_t_o
p7907
aS'ST_p_VBP_N0_p_NNS_IN'
p7908
aS'ST_t_r_N0_t_o'
p7909
aS'N1_p_NNP_NNP'
p7910
aVN1_w_H
p7911
aVN1_p_w_NNP_NNP_H
p7912
aS'N1_t_o'
p7913
aS'N1_t_p_o_NNP_NNP'
p7914
aVN1_t_w_o_H
p7915
aS'N0_p_NNS_IN_N1_p_NNP_NNP'
p7916
aI1
tp7917
a((lp7918
S'ST_p_WP'
p7919
aVST_w_w
p7920
aVST_p_w_WP_w
p7921
aS'N0_p_NNS_IN'
p7922
aVN0_w_f
p7923
aVN0_p_w_NNS_IN_f
p7924
aS'N0_t_o'
p7925
aS'N0_t_p_o_NNS_IN'
p7926
aVN0_t_w_o_f
p7927
aVST_p_w_WP_w_N0_p_w_NNS_IN_f
p7928
aVST_p_w_WP_w_N0_w_f
p7929
aS'ST_t_h_N0_p_NNS_IN'
p7930
aVST_w_w_N0_t_o
p7931
aS'ST_p_WP_N0_p_NNS_IN'
p7932
aS'ST_t_h_N0_t_o'
p7933
aS'N1_p_NNP_NNP'
p7934
aVN1_w_H
p7935
aVN1_p_w_NNP_NNP_H
p7936
aS'N1_t_o'
p7937
aS'N1_t_p_o_NNP_NNP'
p7938
aVN1_t_w_o_H
p7939
aS'N0_p_NNS_IN_N1_p_NNP_NNP'
p7940
aI0
tp7941
a((lp7942
S'ST_p_NNS_IN'
p7943
aVST_w_f
p7944
aVST_p_w_NNS_IN_f
p7945
aS'N0_p_NNP_NNP'
p7946
aVN0_w_H
p7947
aVN0_p_w_NNP_NNP_H
p7948
aS'N0_t_o'
p7949
aS'N0_t_p_o_NNP_NNP'
p7950
aVN0_t_w_o_H
p7951
aVST_p_w_NNS_IN_f_N0_p_w_NNP_NNP_H
p7952
aVST_p_w_NNS_IN_f_N0_w_H
p7953
aS'ST_t_o_N0_p_NNP_NNP'
p7954
aVST_w_f_N0_t_o
p7955
aS'ST_p_NNS_IN_N0_p_NNP_NNP'
p7956
aS'ST_t_o_N0_t_o'
p7957
aI2
tp7958
a((lp7959
S'ST_p_NNS_IN'
p7960
aVST_w_f
p7961
aVST_p_w_NNS_IN_f
p7962
aS'N0_p_NNP_NNP'
p7963
aVN0_w_H
p7964
aVN0_p_w_NNP_NNP_H
p7965
aS'N0_t_o'
p7966
aS'N0_t_p_o_NNP_NNP'
p7967
aVN0_t_w_o_H
p7968
aVST_p_w_NNS_IN_f_N0_p_w_NNP_NNP_H
p7969
aVST_p_w_NNS_IN_f_N0_w_H
p7970
aS'ST_t_o_N0_p_NNP_NNP'
p7971
aVST_w_f_N0_t_o
p7972
aS'ST_p_NNS_IN_N0_p_NNP_NNP'
p7973
aS'ST_t_o_N0_t_o'
p7974
aVAL_H_f
p7975
aI1
tp7976
a((lp7977
S'ST_p_WP'
p7978
aVST_w_w
p7979
aVST_p_w_WP_w
p7980
aS'N0_p_NNP_NNP'
p7981
aVN0_w_H
p7982
aVN0_p_w_NNP_NNP_H
p7983
aS'N0_t_o'
p7984
aS'N0_t_p_o_NNP_NNP'
p7985
aVN0_t_w_o_H
p7986
aVST_p_w_WP_w_N0_p_w_NNP_NNP_H
p7987
aVST_p_w_WP_w_N0_w_H
p7988
aS'ST_t_h_N0_p_NNP_NNP'
p7989
aVST_w_w_N0_t_o
p7990
aS'ST_p_WP_N0_p_NNP_NNP'
p7991
aS'ST_t_h_N0_t_o'
p7992
aI3
tp7993
a((lp7994
S'ST_p_WP'
p7995
aVST_w_w
p7996
aVST_p_w_WP_w
p7997
aS'N0_p_NNP_NNP'
p7998
aVN0_w_H
p7999
aVN0_p_w_NNP_NNP_H
p8000
aS'N0_t_o'
p8001
aS'N0_t_p_o_NNP_NNP'
p8002
aVN0_t_w_o_H
p8003
aVST_p_w_WP_w_N0_p_w_NNP_NNP_H
p8004
aVST_p_w_WP_w_N0_w_H
p8005
aS'ST_t_h_N0_p_NNP_NNP'
p8006
aVST_w_w_N0_t_o
p8007
aS'ST_p_WP_N0_p_NNP_NNP'
p8008
aS'ST_t_h_N0_t_o'
p8009
aVAR_w_H
p8010
aI1
tp8011
a((lp8012
S'N0_p_NNP_NNP'
p8013
aVN0_w_H
p8014
aVN0_p_w_NNP_NNP_H
p8015
aS'N0_t_o'
p8016
aS'N0_t_p_o_NNP_NNP'
p8017
aVN0_t_w_o_H
p8018
aI0
tp8019
a.