(lp0
(lp1
(Vat
p2
VO
p3
tp4
a(Vwhat
p5
g3
tp6
a(Vinstitutions
p7
g3
tp8
a(Vwas
p9
g3
tp10
a(VMarshall
p11
g3
tp12
a(VHall
p13
g3
tp14
a(Va
p15
g3
tp16
a(Vprofessor
p17
g3
tp18
aa(lp19
(Vwhat
p20
g3
tp21
a(Vfuel
p22
g3
tp23
a(Vdoes
p24
g3
tp25
a(Van
p26
g3
tp27
a(Vinternal
p28
g3
tp29
a(Vcombustion
p30
g3
tp31
a(Vengine
p32
g3
tp33
a(Vuse
p34
g3
tp35
aa(lp36
(Vhow
p37
g3
tp38
a(Vmany
p39
g3
tp40
a(Vcompanies
p41
g3
tp42
a(Vare
p43
g3
tp44
a(Vtraded
p45
g3
tp46
a(Vby
p47
g3
tp48
a(Vthe
p49
g3
tp50
a(Vnyse
p51
g3
tp52
aa(lp53
(Vwhat
p54
g3
tp55
a(Vis
p56
g3
tp57
a(Vthe
p58
g3
tp59
a(Vaddress
p60
g3
tp61
a(Vof
p62
g3
tp63
a(Vthe
p64
g3
tp65
a(VApple
p66
g3
tp67
a(V,
p68
g3
tp69
a(VInc.
p70
g3
tp71
a(Vheadquarters
p72
g3
tp73
aa(lp74
(Vwhat
p75
g3
tp76
a(Vwas
p77
g3
tp78
a(Vthe
p79
g3
tp80
a(Vcover
p81
g3
tp82
a(Vprice
p83
g3
tp84
a(Vof
p85
g3
tp86
a(Vthe
p87
g3
tp88
a(VX-Men
p89
g3
tp90
a(Vissue
p91
g3
tp92
a(V1
p93
g3
tp94
aa(lp95
(Vhow
p96
g3
tp97
a(Voften
p98
g3
tp99
a(Vdoes
p100
g3
tp101
a(Vthe
p102
g3
tp103
a(VWashington
p104
VORGANIZATION
p105
tp106
a(VPost
p107
VORGANIZATION
p108
tp109
a(Vcome
p110
g3
tp111
a(Vout
p112
g3
tp113
aa(lp114
(Vwhat
p115
g3
tp116
a(Vissue
p117
g3
tp118
a(Vof
p119
g3
tp120
a(VSandman
p121
VPERSON
p122
tp123
a(Vis
p124
g3
tp125
a(VA
p126
g3
tp127
a(VDream
p128
g3
tp129
a(Vof
p130
g3
tp131
a(g15
g3
tp132
a(VThousand
p133
g3
tp134
a(VCats
p135
g3
tp136
aa(lp137
(Vhow
p138
g3
tp139
a(Vmany
p140
g3
tp141
a(Vpeople
p142
g3
tp143
a(Vsurvived
p144
g3
tp145
a(Vthe
p146
g3
tp147
a(Vsinking
p148
g3
tp149
a(Vof
p150
g3
tp151
a(Vthe
p152
g3
tp153
a(VTitanic
p154
g3
tp155
aa(lp156
(Vwhat
p157
g3
tp158
a(Volympics
p159
g3
tp160
a(Vhas
p161
g3
tp162
a(VEgypt
p163
VLOCATION
p164
tp165
a(Vparticipated
p166
g3
tp167
a(Vin
p168
g3
tp169
aa(lp170
(Vwhat
p171
g3
tp172
a(Vcelebrities
p173
g3
tp174
a(Vhave
p175
g3
tp176
a(Vgone
p177
g3
tp178
a(Vto
p179
g3
tp180
a(Vthe
p181
g3
tp182
a(VBetty
p183
VPERSON
p184
tp185
a(VFord
p186
VPERSON
p187
tp188
a(VCenter
p189
VPERSON
p190
tp191
aa(lp192
(Vhow
p193
g3
tp194
a(Vold
p195
g3
tp196
a(Vdo
p197
g3
tp198
a(Vyou
p199
g3
tp200
a(Vhave
p201
g3
tp202
a(Vto
p203
g3
tp204
a(Vbe
p205
g3
tp206
a(Vto
p207
g3
tp208
a(Vplay
p209
g3
tp210
a(VMonopoly
p211
g3
tp212
aa(lp213
(Vhow
p214
g3
tp215
a(Vmany
p216
g3
tp217
a(Vfirst
p218
g3
tp219
a(Vgeneration
p220
g3
tp221
a(Vparticles
p222
g3
tp223
a(Vare
p224
g3
tp225
a(Vthere
p226
g3
tp227
aa(lp228
(Vwhen
p229
g3
tp230
a(Vwas
p231
g3
tp232
a(Vthe
p233
g3
tp234
a(Vfirst
p235
g3
tp236
a(Vamendment
p237
g3
tp238
a(Vratified
p239
g3
tp240
aa(lp241
(Vhow
p242
g3
tp243
a(Vmany
p244
g3
tp245
a(Vteams
p246
g3
tp247
a(Vparticipate
p248
g3
tp249
a(Vin
p250
g3
tp251
a(Vthe
p252
g3
tp253
a(VUEFA
p254
VORGANIZATION
p255
tp256
aa(lp257
(Vwho
p258
g3
tp259
a(Vare
p260
g3
tp261
a(Vthe
p262
g3
tp263
a(Vlinebackers
p264
g3
tp265
a(Von
p266
g3
tp267
a(Vthe
p268
g3
tp269
a(VChicago
p270
VLOCATION
p271
tp272
a(VBears
p273
g3
tp274
aa(lp275
(Vwhat
p276
g3
tp277
a(Vdid
p278
g3
tp279
a(VBertrand
p280
VPERSON
p281
tp282
a(VRussell
p283
VPERSON
p284
tp285
a(Vdie
p286
g3
tp287
a(Vof
p288
g3
tp289
aa(lp290
(Vhow
p291
g3
tp292
a(Vlong
p293
g3
tp294
a(Vis
p295
g3
tp296
a(Vthe
p297
g3
tp298
a(Vhaunted
p299
g3
tp300
a(Vmansion
p301
g3
tp302
a(Vride
p303
g3
tp304
a(Vat
p305
g3
tp306
a(VDisneyland
p307
VLOCATION
p308
tp309
aa(lp310
(Vwhat
p311
g3
tp312
a(Vtype
p313
g3
tp314
a(Vof
p315
g3
tp316
a(Vtea
p317
g3
tp318
a(Vis
p319
g3
tp320
a(Vgunpowder
p321
g3
tp322
a(Vtea
p323
g3
tp324
aa(lp325
(Vwhat
p326
g3
tp327
a(Vhighway
p328
g3
tp329
a(Vsystem
p330
g3
tp331
a(Vdoes
p332
g3
tp333
a(VUS
p334
VLOCATION
p335
tp336
a(VRoute
p337
g3
tp338
a(V101
p339
g3
tp340
a(Vbelong
p341
g3
tp342
a(Vto
p343
g3
tp344
aa(lp345
(Vwhat
p346
g3
tp347
a(Vleague
p348
g3
tp349
a(Vis
p350
g3
tp351
a(VReal
p352
VORGANIZATION
p353
tp354
a(VMadrid
p355
VORGANIZATION
p356
tp357
a(g15
g3
tp358
a(Vmember
p359
g3
tp360
a(Vof
p361
g3
tp362
aa(lp363
(Vhow
p364
g3
tp365
a(Vmuch
p366
g3
tp367
a(Vdid
p368
g3
tp369
a(g15
g3
tp370
a(VCanon
p371
VORGANIZATION
p372
tp373
a(VPowershot
p374
g3
tp375
a(VTX1
p376
g3
tp377
a(Vcost
p378
g3
tp379
a(Vwhen
p380
g3
tp381
a(Vit
p382
g3
tp383
a(Vwas
p384
g3
tp385
a(Vreleased
p386
g3
tp387
aa(lp388
(Vwhat
p389
g3
tp390
a(Vregions
p391
g3
tp392
a(Vdoes
p393
g3
tp394
a(Vthe
p395
g3
tp396
a(VLSE
p397
VORGANIZATION
p398
tp399
a(Vcover
p400
g3
tp401
aa(lp402
(Vhow
p403
g3
tp404
a(Vmany
p405
g3
tp406
a(Vpeople
p407
g3
tp408
a(Vdoes
p409
g3
tp410
a(Vborders
p411
g3
tp412
a(Vemploy
p413
g3
tp414
aa(lp415
(Vwhere
p416
g3
tp417
a(Vdid
p418
g3
tp419
a(VMonsanto
p420
VORGANIZATION
p421
tp422
a(Vrank
p423
g3
tp424
a(Von
p425
g3
tp426
a(Vthe
p427
g3
tp428
a(VForune
p429
g3
tp430
a(V500
p431
g3
tp432
a(Vin
p433
g3
tp434
a(V2000
p435
g3
tp436
aa(lp437
(Vhow
p438
g3
tp439
a(Vmany
p440
g3
tp441
a(Vprosthetic
p442
g3
tp443
a(Vmakeup
p444
g3
tp445
a(Vartists
p446
g3
tp447
a(Vworked
p448
g3
tp449
a(Von
p450
g3
tp451
a(V28
p452
g3
tp453
a(Vdays
p454
g3
tp455
a(Vlater
p456
g3
tp457
aa(lp458
(Vhow
p459
g3
tp460
a(Vmany
p461
g3
tp462
a(Vships
p463
g3
tp464
a(Vhas
p465
g3
tp466
a(VNathanael
p467
VPERSON
p468
tp469
a(VHerreshoff
p470
VPERSON
p471
tp472
a(Vdesigned
p473
g3
tp474
aa(lp475
(Vwho
p476
g3
tp477
a(Vmanages
p478
g3
tp479
a(VFulham
p480
VORGANIZATION
p481
tp482
a(VF.
p483
VORGANIZATION
p484
tp485
a(VC
p486
VORGANIZATION
p487
tp488
a(V.
p489
g3
tp490
aa(lp491
(Vwhen
p492
g3
tp493
a(Vwas
p494
g3
tp495
a(Vthe
p496
g3
tp497
a(Vcatcher
p498
g3
tp499
a(Vin
p500
g3
tp501
a(Vthe
p502
g3
tp503
a(Vrye
p504
g3
tp505
a(Vfirst
p506
g3
tp507
a(Vpublished
p508
g3
tp509
aa(lp510
(Vhow
p511
g3
tp512
a(Vmany
p513
g3
tp514
a(Vrock
p515
g3
tp516
a(Vformations
p517
g3
tp518
a(Vwere
p519
g3
tp520
a(Vformed
p521
g3
tp522
a(Vduring
p523
g3
tp524
a(Vthe
p525
g3
tp526
a(Vcretaceous
p527
g3
tp528
a(Vperiod
p529
g3
tp530
aa(lp531
(Vwhat
p532
g3
tp533
a(Vare
p534
g3
tp535
a(VBMW
p536
VORGANIZATION
p537
tp538
a(V's
p539
g3
tp540
a(Vmanufacturing
p541
g3
tp542
a(Vplants
p543
g3
tp544
aa(lp545
(Vwho
p546
g3
tp547
a(Vare
p548
g3
tp549
a(Vsome
p550
g3
tp551
a(Vpractitioners
p552
g3
tp553
a(Vof
p554
g3
tp555
a(Vjudo
p556
g3
tp557
aa(lp558
(Vwhat
p559
g3
tp560
a(Vis
p561
g3
tp562
a(Vthe
p563
g3
tp564
a(Vaverage
p565
g3
tp566
a(Vtemperature
p567
g3
tp568
a(Vin
p569
g3
tp570
a(VSydney
p571
VLOCATION
p572
tp573
a(Vin
p574
g3
tp575
a(Vaugust
p576
g3
tp577
aa(lp578
(Vover
p579
g3
tp580
a(Vwhat
p581
g3
tp582
a(Varea
p583
g3
tp584
a(Vdoes
p585
g3
tp586
a(Vthe
p587
g3
tp588
a(Vcourt
p589
g3
tp590
a(Vof
p591
g3
tp592
a(Vchancery
p593
g3
tp594
a(Vhave
p595
g3
tp596
a(Vjurisdiction
p597
g3
tp598
aa(lp599
(Vwhen
p600
g3
tp601
a(Vdid
p602
g3
tp603
a(VMount
p604
VLOCATION
p605
tp606
a(VFuji
p607
VLOCATION
p608
tp609
a(Vlast
p610
g3
tp611
a(Verupt
p612
g3
tp613
aa(lp614
(Vhow
p615
g3
tp616
a(Vtall
p617
g3
tp618
a(Vis
p619
g3
tp620
a(VWestminster
p621
VPERSON
p622
tp623
a(VAbbey
p624
VPERSON
p625
tp626
aa(lp627
(Vwhen
p628
g3
tp629
a(Vwas
p630
g3
tp631
a(VWells
p632
VORGANIZATION
p633
tp634
a(VFargo
p635
VORGANIZATION
p636
tp637
a(Vfounded
p638
g3
tp639
aa(lp640
(Vwhen
p641
g3
tp642
a(Vdid
p643
g3
tp644
a(Vhey
p645
g3
tp646
a(Varnold
p647
g3
tp648
a(V!
p649
g3
tp650
a(Vstop
p651
g3
tp652
a(Vrunning
p653
g3
tp654
aa(lp655
(Vwhen
p656
g3
tp657
a(Vdid
p658
g3
tp659
a(VChristopher
p660
VPERSON
p661
tp662
a(VHiggins
p663
VPERSON
p664
tp665
a(Vstop
p666
g3
tp667
a(Vplaying
p668
g3
tp669
a(Vfor
p670
g3
tp671
a(Vthe
p672
g3
tp673
a(VMontreal
p674
VORGANIZATION
p675
tp676
a(VCanadiens
p677
VORGANIZATION
p678
tp679
aa(lp680
(Vwhat
p681
g3
tp682
a(Vis
p683
g3
tp684
a(Vthe
p685
g3
tp686
a(Vhull
p687
g3
tp688
a(Vmade
p689
g3
tp690
a(Vof
p691
g3
tp692
a(Von
p693
g3
tp694
a(Vthe
p695
g3
tp696
a(VJames
p697
VPERSON
p698
tp699
a(VCraig
p700
VPERSON
p701
tp702
aa(lp703
(Vhow
p704
g3
tp705
a(Vmany
p706
g3
tp707
a(Vpets
p708
g3
tp709
a(Vdid
p710
g3
tp711
a(VJohn
p712
VPERSON
p713
tp714
a(VF
p715
VPERSON
p716
tp717
a(VKennedy
p718
VPERSON
p719
tp720
a(Vown
p721
g3
tp722
aa(lp723
(Vhow
p724
g3
tp725
a(Vmany
p726
g3
tp727
a(Vfloors
p728
g3
tp729
a(Vdoes
p730
g3
tp731
a(Vthe
p732
g3
tp733
a(VWhite
p734
VLOCATION
p735
tp736
a(VHouse
p737
VLOCATION
p738
tp739
a(Vhave
p740
g3
tp741
aa(lp742
(Vin
p743
g3
tp744
a(Vwhich
p745
g3
tp746
a(Vcomic
p747
g3
tp748
a(Vbook
p749
g3
tp750
a(Vissue
p751
g3
tp752
a(Vdid
p753
g3
tp754
a(VKitty
p755
VPERSON
p756
tp757
a(VPryde
p758
VPERSON
p759
tp760
a(Vfirst
p761
g3
tp762
a(Vappear
p763
g3
tp764
aa(lp765
(Vwhat
p766
g3
tp767
a(Vare
p768
g3
tp769
a(Vthe
p770
g3
tp771
a(Vdeities
p772
g3
tp773
a(Vof
p774
g3
tp775
a(Vhinduism
p776
g3
tp777
aa(lp778
(Vwho
p779
g3
tp780
a(Vdesigned
p781
g3
tp782
a(Vthe
p783
g3
tp784
a(Viphone
p785
g3
tp786
aa(lp787
(Vhow
p788
g3
tp789
a(Vmany
p790
g3
tp791
a(Vother
p792
g3
tp793
a(Vnames
p794
g3
tp795
a(Vis
p796
g3
tp797
a(VJerry
p798
VPERSON
p799
tp800
a(VSeinfeld
p801
VPERSON
p802
tp803
a(Vknown
p804
g3
tp805
a(Vby
p806
g3
tp807
aa(lp808
(Vwhat
p809
g3
tp810
a(Vare
p811
g3
tp812
a(Vthe
p813
g3
tp814
a(Vlatitude
p815
g3
tp816
a(Vand
p817
g3
tp818
a(Vlongitude
p819
g3
tp820
a(Vof
p821
g3
tp822
a(Vthe
p823
g3
tp824
a(VEiffel
p825
g3
tp826
a(Vtower
p827
g3
tp828
aa(lp829
(Vhow
p830
g3
tp831
a(Vmany
p832
g3
tp833
a(Vvisits
p834
g3
tp835
a(Vdoes
p836
g3
tp837
a(Vthe
p838
g3
tp839
a(VMagic
p840
g3
tp841
a(VKingdom
p842
g3
tp843
a(Vget
p844
g3
tp845
a(Vper
p846
g3
tp847
a(Vyear
p848
g3
tp849
aa(lp850
(Vhow
p851
g3
tp852
a(Vmany
p853
g3
tp854
a(Vfilm
p855
g3
tp856
a(Vperformances
p857
g3
tp858
a(Vdid
p859
g3
tp860
a(VBeyonce
p861
VPERSON
p862
tp863
a(Vdo
p864
g3
tp865
aa(lp866
(Vwho
p867
g3
tp868
a(Vmanufactures
p869
g3
tp870
a(Vthe
p871
g3
tp872
a(Vspecialized
p873
g3
tp874
a(Vstumpjumper
p875
g3
tp876
aa(lp877
(Vwhat
p878
g3
tp879
a(Vtypes
p880
g3
tp881
a(Vof
p882
g3
tp883
a(Vfuel
p884
g3
tp885
a(Vdoes
p886
g3
tp887
a(g15
g3
tp888
a(V4
p889
g3
tp890
a(Vcylinder
p891
g3
tp892
a(Vengine
p893
g3
tp894
a(Vtake
p895
g3
tp896
aa(lp897
(Vwhat
p898
g3
tp899
a(Vmajor
p900
g3
tp901
a(Vevents
p902
g3
tp903
a(Vin
p904
g3
tp905
a(Vhistory
p906
g3
tp907
a(Vhappened
p908
g3
tp909
a(Vin
p910
g3
tp911
a(VAfrica
p912
VLOCATION
p913
tp914
aa(lp915
(Vwhat
p916
g3
tp917
a(Vis
p918
g3
tp919
a(Vthe
p920
g3
tp921
a(Vtransmission
p922
g3
tp923
a(Vof
p924
g3
tp925
a(g15
g3
tp926
a(V2011
p927
g3
tp928
a(Vhonda
p929
g3
tp930
a(Vfit
p931
g3
tp932
aa(lp933
(Vwhat
p934
g3
tp935
a(Vis
p936
g3
tp937
a(VAngelina
p938
VORGANIZATION
p939
tp940
a(VJolie
p941
VORGANIZATION
p942
tp943
a(V's
p944
g3
tp945
a(Vnet
p946
g3
tp947
a(Vworth
p948
g3
tp949
aa(lp950
(Vwhat
p951
g3
tp952
a(Vconferences
p953
g3
tp954
a(Vdoes
p955
g3
tp956
a(VGoogle
p957
VORGANIZATION
p958
tp959
a(Vsponsor
p960
g3
tp961
aa(lp962
(Vwhat
p963
g3
tp964
a(Vis
p965
g3
tp966
a(Vthe
p967
g3
tp968
a(Vorbital
p969
g3
tp970
a(Vperiod
p971
g3
tp972
a(Vof
p973
g3
tp974
a(Vthe
p975
g3
tp976
a(Vmoon
p977
g3
tp978
aa(lp979
(Vwhere
p980
g3
tp981
a(Vdid
p982
g3
tp983
a(Vbarosaurus
p984
g3
tp985
a(Vlive
p986
g3
tp987
aa(lp988
(Vwho
p989
g3
tp990
a(Vwrote
p991
g3
tp992
a(g15
g3
tp993
a(Vseries
p994
g3
tp995
a(Vof
p996
g3
tp997
a(Vunfortunate
p998
g3
tp999
a(Vevents
p1000
g3
tp1001
aa(lp1002
(Vwhat
p1003
g3
tp1004
a(Vgenre
p1005
g3
tp1006
a(Vis
p1007
g3
tp1008
a(Vdoonesbury
p1009
g3
tp1010
aa(lp1011
(Vwhat
p1012
g3
tp1013
a(Vreligious
p1014
g3
tp1015
a(Vorder
p1016
g3
tp1017
a(Vbelongs
p1018
g3
tp1019
a(Vto
p1020
g3
tp1021
a(Vkirkstall
p1022
g3
tp1023
a(Vabbey
p1024
g3
tp1025
aa(lp1026
(Vduring
p1027
g3
tp1028
a(Vwhat
p1029
g3
tp1030
a(Vtime
p1031
g3
tp1032
a(Vperiod
p1033
g3
tp1034
a(Vdid
p1035
g3
tp1036
a(VUluru
p1037
g3
tp1038
a(Vform
p1039
g3
tp1040
aa(lp1041
(Vwhat
p1042
g3
tp1043
a(Vblogs
p1044
g3
tp1045
a(Vare
p1046
g3
tp1047
a(Vin
p1048
g3
tp1049
a(Vgerman
p1050
g3
tp1051
aa(lp1052
(Vwhat
p1053
g3
tp1054
a(Vtype
p1055
g3
tp1056
a(Vof
p1057
g3
tp1058
a(Vclothing
p1059
g3
tp1060
a(Vare
p1061
g3
tp1062
a(Vknickerbockers
p1063
g3
tp1064
aa(lp1065
(Vwhat
p1066
g3
tp1067
a(Vis
p1068
g3
tp1069
a(Vthe
p1070
g3
tp1071
a(Vaddress
p1072
g3
tp1073
a(Vof
p1074
g3
tp1075
a(Vthe
p1076
g3
tp1077
a(VMitchell
p1078
VORGANIZATION
p1079
tp1080
a(Vpublic
p1081
g3
tp1082
a(Vlibrary
p1083
g3
tp1084
aa(lp1085
(Vwhat
p1086
g3
tp1087
a(Vgenres
p1088
g3
tp1089
a(Vdid
p1090
g3
tp1091
a(V8
p1092
g3
tp1093
a(VMile
p1094
g3
tp1095
a(Vconsist
p1096
g3
tp1097
a(Vof
p1098
g3
tp1099
aa(lp1100
(Vhow
p1101
g3
tp1102
a(Vmany
p1103
g3
tp1104
a(Vtypes
p1105
g3
tp1106
a(Vof
p1107
g3
tp1108
a(Vdinosaurs
p1109
g3
tp1110
a(Vwere
p1111
g3
tp1112
a(Vthere
p1113
g3
tp1114
a(Vin
p1115
g3
tp1116
a(VAfrica
p1117
VLOCATION
p1118
tp1119
aa(lp1120
(Vwho
p1121
g3
tp1122
a(Vis
p1123
g3
tp1124
a(Vthe
p1125
g3
tp1126
a(Vhead
p1127
g3
tp1128
a(Vcoach
p1129
g3
tp1130
a(Vof
p1131
g3
tp1132
a(Vthe
p1133
g3
tp1134
a(VChicago
p1135
VORGANIZATION
p1136
tp1137
a(VBulls
p1138
VORGANIZATION
p1139
tp1140
aa(lp1141
(Vwho
p1142
g3
tp1143
a(Vdid
p1144
g3
tp1145
a(VNathan
p1146
VPERSON
p1147
tp1148
a(VFillion
p1149
VPERSON
p1150
tp1151
a(Vvoice
p1152
g3
tp1153
a(Vin
p1154
g3
tp1155
a(VHalo
p1156
g3
tp1157
a(V:
p1158
g3
tp1159
a(VReach
p1160
g3
tp1161
aa(lp1162
(Vwhat
p1163
g3
tp1164
a(Vis
p1165
g3
tp1166
a(Vthe
p1167
g3
tp1168
a(Vmotto
p1169
g3
tp1170
a(Vof
p1171
g3
tp1172
a(Vthe
p1173
g3
tp1174
a(Vorder
p1175
g3
tp1176
a(Vof
p1177
g3
tp1178
a(Vthe
p1179
g3
tp1180
a(Vgolden
p1181
g3
tp1182
a(Vfleece
p1183
g3
tp1184
aa(lp1185
(Vwhat
p1186
g3
tp1187
a(Vis
p1188
g3
tp1189
a(Vthe
p1190
g3
tp1191
a(Vretail
p1192
g3
tp1193
a(Vfloor
p1194
g3
tp1195
a(Vspace
p1196
g3
tp1197
a(Vof
p1198
g3
tp1199
a(Vthe
p1200
g3
tp1201
a(VDubai
p1202
VLOCATION
p1203
tp1204
a(Vmarina
p1205
g3
tp1206
a(Vmall
p1207
g3
tp1208
aa(lp1209
(Vwho
p1210
g3
tp1211
a(Vbuilt
p1212
g3
tp1213
a(Vthe
p1214
g3
tp1215
a(VUSS
p1216
g3
tp1217
a(VNautilus
p1218
g3
tp1219
aa(lp1220
(Vwhere
p1221
g3
tp1222
a(Vdid
p1223
g3
tp1224
a(VNathan
p1225
VPERSON
p1226
tp1227
a(VSmith
p1228
VPERSON
p1229
tp1230
a(Vdie
p1231
g3
tp1232
aa(lp1233
(Vwho
p1234
g3
tp1235
a(Vowns
p1236
g3
tp1237
a(VFlickr
p1238
g3
tp1239
aa(lp1240
(Vwho
p1241
g3
tp1242
a(Vdesigned
p1243
g3
tp1244
a(Vthe
p1245
g3
tp1246
a(Vgame
p1247
g3
tp1248
a(Vof
p1249
g3
tp1250
a(Vlife
p1251
g3
tp1252
aa(lp1253
(Vwhat
p1254
g3
tp1255
a(Vmedal
p1256
g3
tp1257
a(Vdid
p1258
g3
tp1259
a(VGraeme
p1260
VPERSON
p1261
tp1262
a(VBrown
p1263
VPERSON
p1264
tp1265
a(Vreceive
p1266
g3
tp1267
a(Vat
p1268
g3
tp1269
a(Vthe
p1270
g3
tp1271
a(V2004
p1272
g3
tp1273
a(Vsummer
p1274
g3
tp1275
a(Volympics
p1276
g3
tp1277
aa(lp1278
(Vwhat
p1279
g3
tp1280
a(Vis
p1281
g3
tp1282
a(Vthe
p1283
g3
tp1284
a(Vsymbol
p1285
g3
tp1286
a(Vfor
p1287
g3
tp1288
a(Vyen
p1289
g3
tp1290
aa(lp1291
(Vwhat
p1292
g3
tp1293
a(Vtopics
p1294
g3
tp1295
a(Vare
p1296
g3
tp1297
a(Vequivalent
p1298
g3
tp1299
a(Vto
p1300
g3
tp1301
a(Vus
p1302
g3
tp1303
a(Vcounty
p1304
g3
tp1305
aa(lp1306
(Vwhat
p1307
g3
tp1308
a(Vis
p1309
g3
tp1310
a(Vthe
p1311
g3
tp1312
a(Vorigin
p1313
g3
tp1314
a(Vof
p1315
g3
tp1316
a(Vthe
p1317
g3
tp1318
a(VMississippi
p1319
VLOCATION
p1320
tp1321
a(Vriver
p1322
g3
tp1323
aa(lp1324
(Vhow
p1325
g3
tp1326
a(Vmany
p1327
g3
tp1328
a(Vcelebrities
p1329
g3
tp1330
a(Vhave
p1331
g3
tp1332
a(Vbeen
p1333
g3
tp1334
a(Vcharged
p1335
g3
tp1336
a(Vwith
p1337
g3
tp1338
a(Vdriving
p1339
g3
tp1340
a(Vunder
p1341
g3
tp1342
a(Vthe
p1343
g3
tp1344
a(Vinfluence
p1345
g3
tp1346
aa(lp1347
(Vhow
p1348
g3
tp1349
a(Vmany
p1350
g3
tp1351
a(Vexpansion
p1352
g3
tp1353
a(Vpacks
p1354
g3
tp1355
a(Vdoes
p1356
g3
tp1357
a(VThe
p1358
g3
tp1359
a(VSims
p1360
g3
tp1361
a(Vhave
p1362
g3
tp1363
aa(lp1364
(Vwhat
p1365
g3
tp1366
a(Vis
p1367
g3
tp1368
a(VRon
p1369
VPERSON
p1370
tp1371
a(VGlass
p1372
VPERSON
p1373
tp1374
a(V's
p1375
g3
tp1376
a(Vreligion
p1377
g3
tp1378
aa(lp1379
(Vwhat
p1380
g3
tp1381
a(Vis
p1382
g3
tp1383
a(Vthe
p1384
g3
tp1385
a(Vcape
p1386
g3
tp1387
a(Vmay
p1388
g3
tp1389
a(Vlighthouse
p1390
g3
tp1391
a(Vmade
p1392
g3
tp1393
a(Vof
p1394
g3
tp1395
aa(lp1396
(Vwhat
p1397
g3
tp1398
a(Vis
p1399
g3
tp1400
a(Vthe
p1401
g3
tp1402
a(Vsubject
p1403
g3
tp1404
a(Vof
p1405
g3
tp1406
a(Vthe
p1407
g3
tp1408
a(Vsource
p1409
g3
tp1410
a(Vreport
p1411
g3
tp1412
aa(lp1413
(Vwhere
p1414
g3
tp1415
a(Vwas
p1416
g3
tp1417
a(VJerry
p1418
VPERSON
p1419
tp1420
a(VSeinfeld
p1421
VPERSON
p1422
tp1423
a(Vborn
p1424
g3
tp1425
aa(lp1426
(Vwhat
p1427
g3
tp1428
a(Vwas
p1429
g3
tp1430
a(VRoe
p1431
VPERSON
p1432
tp1433
a(VV.
p1434
VPERSON
p1435
tp1436
a(VWade
p1437
VPERSON
p1438
tp1439
a(Vabout
p1440
g3
tp1441
aa(lp1442
(Vwhat
p1443
g3
tp1444
a(Vposition
p1445
g3
tp1446
a(Vdoes
p1447
g3
tp1448
a(VCraig
p1449
VPERSON
p1450
tp1451
a(VAdams
p1452
VPERSON
p1453
tp1454
a(Vplay
p1455
g3
tp1456
aa(lp1457
(Vhow
p1458
g3
tp1459
a(Vmany
p1460
g3
tp1461
a(Vrecord
p1462
g3
tp1463
a(Vlabels
p1464
g3
tp1465
a(Vwas
p1466
g3
tp1467
a(Vomarion
p1468
g3
tp1469
a(Vunder
p1470
g3
tp1471
aa(lp1472
(Vin
p1473
g3
tp1474
a(V1981
p1475
g3
tp1476
a(Vwhat
p1477
g3
tp1478
a(Vaward
p1479
g3
tp1480
a(Vdid
p1481
g3
tp1482
a(VDanny
p1483
VPERSON
p1484
tp1485
a(VdeVito
p1486
VPERSON
p1487
tp1488
a(Vwin
p1489
g3
tp1490
aa(lp1491
(Vwhat
p1492
g3
tp1493
a(Vsizes
p1494
g3
tp1495
a(Vdoes
p1496
g3
tp1497
a(VPilsner
p1498
g3
tp1499
a(VUrquell
p1500
g3
tp1501
a(Vcome
p1502
g3
tp1503
a(Vin
p1504
g3
tp1505
aa(lp1506
(Vhow
p1507
g3
tp1508
a(Vmany
p1509
g3
tp1510
a(Vstarring
p1511
g3
tp1512
a(Vtv
p1513
g3
tp1514
a(Vroles
p1515
g3
tp1516
a(Vdid
p1517
g3
tp1518
a(VJack
p1519
VPERSON
p1520
tp1521
a(VAlbertson
p1522
VPERSON
p1523
tp1524
a(Vhave
p1525
g3
tp1526
aa(lp1527
(Vwhen
p1528
g3
tp1529
a(Vwas
p1530
g3
tp1531
a(Vthe
p1532
g3
tp1533
a(Vairspeed
p1534
g3
tp1535
a(Voxford
p1536
g3
tp1537
a(Vfirst
p1538
g3
tp1539
a(Vflown
p1540
g3
tp1541
aa(lp1542
(Vwhat
p1543
g3
tp1544
a(Vis
p1545
g3
tp1546
a(Vthe
p1547
g3
tp1548
a(Vrelease
p1549
g3
tp1550
a(Vdate
p1551
g3
tp1552
a(Vfor
p1553
g3
tp1554
a(V2
p1555
g3
tp1556
a(Vfast
p1557
g3
tp1558
a(g1555
g3
tp1559
a(Vfurious
p1560
g3
tp1561
aa(lp1562
(Vwho
p1563
g3
tp1564
a(Vfounded
p1565
g3
tp1566
a(VNivea
p1567
VPERSON
p1568
tp1569
aa(lp1570
(Vwhat
p1571
g3
tp1572
a(Vare
p1573
g3
tp1574
a(Vthe
p1575
g3
tp1576
a(Vfile
p1577
g3
tp1578
a(Vformats
p1579
g3
tp1580
a(Vsupported
p1581
g3
tp1582
a(Vby
p1583
g3
tp1584
a(Vthe
p1585
g3
tp1586
a(Viphone
p1587
g3
tp1588
aa(lp1589
(Vwhere
p1590
g3
tp1591
a(Vis
p1592
g3
tp1593
a(Vthe
p1594
g3
tp1595
a(VTempelhof
p1596
VLOCATION
p1597
tp1598
a(Vinternational
p1599
g3
tp1600
a(Vairport
p1601
g3
tp1602
a(Vlocated
p1603
g3
tp1604
aa(lp1605
(Vwhat
p1606
g3
tp1607
a(Vlanguages
p1608
g3
tp1609
a(Vhas
p1610
g3
tp1611
a(VMicrosoft
p1612
VORGANIZATION
p1613
tp1614
a(Vdesigned
p1615
g3
tp1616
aa(lp1617
(Vwhat
p1618
g3
tp1619
a(Vworks
p1620
g3
tp1621
a(Vdid
p1622
g3
tp1623
a(VAnthony
p1624
VPERSON
p1625
tp1626
a(VPayne
p1627
VPERSON
p1628
tp1629
a(Vfinish
p1630
g3
tp1631
aa(lp1632
(Vhow
p1633
g3
tp1634
a(Vmany
p1635
g3
tp1636
a(Vawards
p1637
g3
tp1638
a(Vdid
p1639
g3
tp1640
a(VTitanic
p1641
g3
tp1642
a(Vwin
p1643
g3
tp1644
aa(lp1645
(Vhow
p1646
g3
tp1647
a(Vis
p1648
g3
tp1649
a(Vthe
p1650
g3
tp1651
a(Vplastiki
p1652
g3
tp1653
a(Vpropelled
p1654
g3
tp1655
aa(lp1656
(Vwhere
p1657
g3
tp1658
a(Vwas
p1659
g3
tp1660
a(Vthe
p1661
g3
tp1662
a(V1st
p1663
g3
tp1664
a(Vworld
p1665
g3
tp1666
a(Vscience
p1667
g3
tp1668
a(Vfiction
p1669
g3
tp1670
a(Vconvention
p1671
g3
tp1672
a(Vheld
p1673
g3
tp1674
aa(lp1675
(Vwhat
p1676
g3
tp1677
a(Vis
p1678
g3
tp1679
a(Vserge
p1680
g3
tp1681
a(Vmade
p1682
g3
tp1683
a(Vout
p1684
g3
tp1685
a(Vof
p1686
g3
tp1687
aa(lp1688
(Vwho
p1689
g3
tp1690
a(Vhosted
p1691
g3
tp1692
a(Vthe
p1693
g3
tp1694
a(V2003
p1695
g3
tp1696
a(Vcricket
p1697
g3
tp1698
a(Vworld
p1699
g3
tp1700
a(Vcup
p1701
g3
tp1702
aa(lp1703
(Vwhen
p1704
g3
tp1705
a(Vdid
p1706
g3
tp1707
a(Vsecretariat
p1708
g3
tp1709
a(Vdie
p1710
g3
tp1711
aa(lp1712
(Vwhen
p1713
g3
tp1714
a(Vwas
p1715
g3
tp1716
a(Vthe
p1717
g3
tp1718
a(VGalileo
p1719
g3
tp1720
a(Vspacecraft
p1721
g3
tp1722
a(Vlaunched
p1723
g3
tp1724
aa(lp1725
(Vwhen
p1726
g3
tp1727
a(Vwas
p1728
g3
tp1729
a(Vsavealot
p1730
g3
tp1731
a(Vfounded
p1732
g3
tp1733
aa(lp1734
(Vhow
p1735
g3
tp1736
a(Vmany
p1737
g3
tp1738
a(Vpeople
p1739
g3
tp1740
a(Vcan
p1741
g3
tp1742
a(Vplay
p1743
g3
tp1744
a(Vsettlers
p1745
g3
tp1746
a(Vof
p1747
g3
tp1748
a(Vcatan
p1749
g3
tp1750
aa(lp1751
(Vhow
p1752
g3
tp1753
a(Vmany
p1754
g3
tp1755
a(Vexhibitions
p1756
g3
tp1757
a(Vhave
p1758
g3
tp1759
a(Vthere
p1760
g3
tp1761
a(Vbeen
p1762
g3
tp1763
a(Vabout
p1764
g3
tp1765
a(VLeonardo
p1766
VPERSON
p1767
tp1768
a(Vda
p1769
VPERSON
p1770
tp1771
a(VVinci
p1772
VPERSON
p1773
tp1774
aa(lp1775
(Vwhat
p1776
g3
tp1777
a(Vbuildings
p1778
g3
tp1779
a(Vwere
p1780
g3
tp1781
a(Vdestroyed
p1782
g3
tp1783
a(Vin
p1784
g3
tp1785
a(Vseptember
p1786
g3
tp1787
a(V11th
p1788
g3
tp1789
aa(lp1790
(Vhow
p1791
g3
tp1792
a(Vmany
p1793
g3
tp1794
a(Vdinosaur
p1795
g3
tp1796
a(Vspecies
p1797
g3
tp1798
a(Vare
p1799
g3
tp1800
a(Vfrom
p1801
g3
tp1802
a(VAfrica
p1803
VLOCATION
p1804
tp1805
aa(lp1806
(Vwhen
p1807
g3
tp1808
a(Vwas
p1809
g3
tp1810
a(Vthe
p1811
g3
tp1812
a(Vabbey
p1813
g3
tp1814
a(Vof
p1815
g3
tp1816
a(Vst.
p1817
g3
tp1818
a(Vgall
p1819
g3
tp1820
a(Vlisted
p1821
g3
tp1822
a(Vas
p1823
g3
tp1824
a(Van
p1825
g3
tp1826
a(VUNESCO
p1827
VORGANIZATION
p1828
tp1829
a(Vworld
p1830
g3
tp1831
a(Vheritage
p1832
g3
tp1833
a(Vsite
p1834
g3
tp1835
aa(lp1836
(Vwhat
p1837
g3
tp1838
a(Vis
p1839
g3
tp1840
a(Vthe
p1841
g3
tp1842
a(Vcapacity
p1843
g3
tp1844
a(Vof
p1845
g3
tp1846
a(g15
g3
tp1847
a(VRolls
p1848
g3
tp1849
a(VRoyce
p1850
g3
tp1851
a(Vmerlin
p1852
g3
tp1853
aa(lp1854
(Vwhat
p1855
g3
tp1856
a(Vare
p1857
g3
tp1858
a(Vthe
p1859
g3
tp1860
a(Vside
p1861
g3
tp1862
a(Veffects
p1863
g3
tp1864
a(Vof
p1865
g3
tp1866
a(Vmorphine
p1867
g3
tp1868
aa(lp1869
(Vwhat
p1870
g3
tp1871
a(Vis
p1872
g3
tp1873
a(Vthe
p1874
g3
tp1875
a(Vboiling
p1876
g3
tp1877
a(Vpoint
p1878
g3
tp1879
a(Vof
p1880
g3
tp1881
a(Vwater
p1882
g3
tp1883
aa(lp1884
(Vwho
p1885
g3
tp1886
a(Vis
p1887
g3
tp1888
a(Vthe
p1889
g3
tp1890
a(Vscreenplay
p1891
g3
tp1892
a(Vfor
p1893
g3
tp1894
a(Vthe
p1895
g3
tp1896
a(Vnutty
p1897
g3
tp1898
a(Vprofessor
p1899
g3
tp1900
a(Vby
p1901
g3
tp1902
aa(lp1903
(Vwhat
p1904
g3
tp1905
a(Vis
p1906
g3
tp1907
a(Vbig
p1908
g3
tp1909
a(Vdaddy
p1910
g3
tp1911
a(Vrated
p1912
g3
tp1913
aa(lp1914
(Vwhen
p1915
g3
tp1916
a(Vdid
p1917
g3
tp1918
a(VMichael
p1919
VPERSON
p1920
tp1921
a(VJackson
p1922
VPERSON
p1923
tp1924
a(Vgo
p1925
g3
tp1926
a(Vsolo
p1927
g3
tp1928
aa(lp1929
(Vwhen
p1930
g3
tp1931
a(Vdid
p1932
g3
tp1933
a(VTutankhamun
p1934
VPERSON
p1935
tp1936
a(Vdie
p1937
VPERSON
p1938
tp1939
aa(lp1940
(Vwhen
p1941
g3
tp1942
a(Vwas
p1943
g3
tp1944
a(Vthe
p1945
g3
tp1946
a(VUnited
p1947
VORGANIZATION
p1948
tp1949
a(VNations
p1950
VORGANIZATION
p1951
tp1952
a(Vfounded
p1953
g3
tp1954
aa(lp1955
(Vwho
p1956
g3
tp1957
a(Vare
p1958
g3
tp1959
a(Vthe
p1960
g3
tp1961
a(Vdistributors
p1962
g3
tp1963
a(Vfor
p1964
g3
tp1965
a(Vbruce
p1966
g3
tp1967
a(Valmighty
p1968
g3
tp1969
aa(lp1970
(Vwhen
p1971
g3
tp1972
a(Vwas
p1973
g3
tp1974
a(Vbruce
p1975
g3
tp1976
a(Valmighty
p1977
g3
tp1978
a(Vreleased
p1979
g3
tp1980
aa(lp1981
(Vwhat
p1982
g3
tp1983
a(Vwas
p1984
g3
tp1985
a(Vthe
p1986
g3
tp1987
a(Vbudget
p1988
g3
tp1989
a(Vfor
p1990
g3
tp1991
a(Vedward
p1992
g3
tp1993
a(Vscissorhands
p1994
g3
tp1995
aa(lp1996
(Vwho
p1997
g3
tp1998
a(Vowns
p1999
g3
tp2000
a(VWXPN
p2001
VORGANIZATION
p2002
tp2003
aa(lp2004
(Vwhat
p2005
g3
tp2006
a(Vwas
p2007
g3
tp2008
a(VWalter
p2009
VPERSON
p2010
tp2011
a(VGropius
p2012
VPERSON
p2013
tp2014
a(V'
p2015
g3
tp2016
a(Varchitectural
p2017
g3
tp2018
a(Vstyle
p2019
g3
tp2020
aa(lp2021
(Vhow
p2022
g3
tp2023
a(Vmany
p2024
g3
tp2025
a(Vbeds
p2026
g3
tp2027
a(Vdoes
p2028
g3
tp2029
a(VMcLean
p2030
g3
tp2031
a(Vhospital
p2032
g3
tp2033
a(Vhave
p2034
g3
tp2035
aa(lp2036
(Vwhat
p2037
g3
tp2038
a(Vare
p2039
g3
tp2040
a(Vsome
p2041
g3
tp2042
a(Vgato
p2043
g3
tp2044
a(Vclass
p2045
g3
tp2046
a(Vsubmarines
p2047
g3
tp2048
aa(lp2049
(Vwhat
p2050
g3
tp2051
a(Vis
p2052
g3
tp2053
a(Vthe
p2054
g3
tp2055
a(Vmaximum
p2056
g3
tp2057
a(Valtitude
p2058
g3
tp2059
a(Vof
p2060
g3
tp2061
a(Vstratus
p2062
g3
tp2063
a(Vclouds
p2064
g3
tp2065
aa(lp2066
(Vhow
p2067
g3
tp2068
a(Vmany
p2069
g3
tp2070
a(Vconferences
p2071
g3
tp2072
a(Vabout
p2073
g3
tp2074
a(Vmathematics
p2075
g3
tp2076
a(Vare
p2077
g3
tp2078
a(Vthere
p2079
g3
tp2080
aa(lp2081
(Vwhat
p2082
g3
tp2083
a(Vdiet
p2084
g3
tp2085
a(Vdid
p2086
g3
tp2087
a(Vceratopsia
p2088
g3
tp2089
a(Vhave
p2090
g3
tp2091
aa(lp2092
(Vwhat
p2093
g3
tp2094
a(Vjudge
p2095
g3
tp2096
a(Vpresided
p2097
g3
tp2098
a(Vover
p2099
g3
tp2100
a(Vstate
p2101
g3
tp2102
a(Vv.
p2103
g3
tp2104
a(Vkelly
p2105
g3
tp2106
aa(lp2107
(Vwhen
p2108
g3
tp2109
a(Vwas
p2110
g3
tp2111
a(Vsigmod
p2112
g3
tp2113
a(Vfounded
p2114
g3
tp2115
aa(lp2116
(Vin
p2117
g3
tp2118
a(Vwhat
p2119
g3
tp2120
a(Vcity
p2121
g3
tp2122
a(Vis
p2123
g3
tp2124
a(VH
p2125
g3
tp2126
a(V&
p2127
g3
tp2128
a(VR
p2129
g3
tp2130
a(Vblock
p2131
g3
tp2132
a(Vheadquartered
p2133
g3
tp2134
aa(lp2135
(Vwhat
p2136
g3
tp2137
a(Vis
p2138
g3
tp2139
a(Vthe
p2140
g3
tp2141
a(Vhighest
p2142
g3
tp2143
a(Velevation
p2144
g3
tp2145
a(Vat
p2146
g3
tp2147
a(Vthe
p2148
g3
tp2149
a(Velk
p2150
g3
tp2151
a(Vmountain
p2152
g3
tp2153
a(Vski
p2154
g3
tp2155
a(Varea
p2156
g3
tp2157
aa(lp2158
(Vwhat
p2159
g3
tp2160
a(Vis
p2161
g3
tp2162
a(Vthe
p2163
g3
tp2164
a(Vtexture
p2165
g3
tp2166
a(Vof
p2167
g3
tp2168
a(Vbrie
p2169
g3
tp2170
a(Vcheese
p2171
g3
tp2172
aa(lp2173
(Vhow
p2174
g3
tp2175
a(Vmany
p2176
g3
tp2177
a(Vschools
p2178
g3
tp2179
a(Vhave
p2180
g3
tp2181
a(g15
g3
tp2182
a(Vbeaver
p2183
g3
tp2184
a(Vas
p2185
g3
tp2186
a(Vtheir
p2187
g3
tp2188
a(Vmascot
p2189
g3
tp2190
aa(lp2191
(Vwho
p2192
g3
tp2193
a(Vcreated
p2194
g3
tp2195
a(Vsesame
p2196
g3
tp2197
a(Vstreet
p2198
g3
tp2199
aa(lp2200
(Vhow
p2201
g3
tp2202
a(Vmany
p2203
g3
tp2204
a(Vfilm
p2205
g3
tp2206
a(Vperformances
p2207
g3
tp2208
a(Vdoes
p2209
g3
tp2210
a(VJerry
p2211
VPERSON
p2212
tp2213
a(VSeinfeld
p2214
VPERSON
p2215
tp2216
a(Vhave
p2217
g3
tp2218
aa(lp2219
(Vhow
p2220
g3
tp2221
a(Vmany
p2222
g3
tp2223
a(Vspin
p2224
g3
tp2225
a(Voffs
p2226
g3
tp2227
a(Vdoes
p2228
g3
tp2229
a(Vsesame
p2230
g3
tp2231
a(Vstreet
p2232
g3
tp2233
a(Vhave
p2234
g3
tp2235
aa(lp2236
(Vwhat
p2237
g3
tp2238
a(Vdiseases
p2239
g3
tp2240
a(Vcause
p2241
g3
tp2242
a(Vleukemia
p2243
g3
tp2244
aa(lp2245
(Vhow
p2246
g3
tp2247
a(Vmany
p2248
g3
tp2249
a(Vdifferent
p2250
g3
tp2251
a(Vproducts
p2252
g3
tp2253
a(Vdoes
p2254
g3
tp2255
a(Vgsusa
p2256
g3
tp2257
a(Vproduce
p2258
g3
tp2259
aa(lp2260
(Vwho
p2261
g3
tp2262
a(Vdirected
p2263
g3
tp2264
a(Vmeet
p2265
g3
tp2266
a(Vthe
p2267
g3
tp2268
a(Vparents
p2269
g3
tp2270
aa(lp2271
(Vwhen
p2272
g3
tp2273
a(Vwas
p2274
g3
tp2275
a(Vomarion
p2276
g3
tp2277
a(Vborn
p2278
g3
tp2279
aa(lp2280
(Vwhat
p2281
g3
tp2282
a(Vare
p2283
g3
tp2284
a(Vsome
p2285
g3
tp2286
a(Vfrench
p2287
g3
tp2288
a(Vrestaurants
p2289
g3
tp2290
aa(lp2291
(Vwho
p2292
g3
tp2293
a(Vpublishes
p2294
g3
tp2295
a(Vthe
p2296
g3
tp2297
a(Vjournal
p2298
g3
tp2299
a(Vof
p2300
g3
tp2301
a(Vabnormal
p2302
g3
tp2303
a(Vpsychology
p2304
g3
tp2305
aa(lp2306
(Vwhat
p2307
g3
tp2308
a(Vwas
p2309
g3
tp2310
a(Vsesame
p2311
g3
tp2312
a(Vstreet
p2313
g3
tp2314
a(V's
p2315
g3
tp2316
a(Voriginal
p2317
g3
tp2318
a(Vnetwork
p2319
g3
tp2320
aa(lp2321
(Vwhat
p2322
g3
tp2323
a(Vare
p2324
g3
tp2325
a(Vthe
p2326
g3
tp2327
a(Vmoons
p2328
g3
tp2329
a(Vof
p2330
g3
tp2331
a(Vjupiter
p2332
g3
tp2333
aa(lp2334
(Vwhat
p2335
g3
tp2336
a(Vexhibits
p2337
g3
tp2338
a(Vare
p2339
g3
tp2340
a(Vthere
p2341
g3
tp2342
a(Vat
p2343
g3
tp2344
a(Vthe
p2345
g3
tp2346
a(Varignar
p2347
g3
tp2348
a(Vanna
p2349
g3
tp2350
a(Vzoological
p2351
g3
tp2352
a(Vpark
p2353
g3
tp2354
aa(lp2355
(Vwhere
p2356
g3
tp2357
a(Vwas
p2358
g3
tp2359
a(Vneanderthal
p2360
g3
tp2361
a(g93
g3
tp2362
a(Vfound
p2363
g3
tp2364
aa(lp2365
(Vwhat
p2366
g3
tp2367
a(Vradio
p2368
g3
tp2369
a(Vprogram
p2370
g3
tp2371
a(Vis
p2372
g3
tp2373
a(g15
g3
tp2374
a(Vright
p2375
g3
tp2376
a(Vto
p2377
g3
tp2378
a(Vdeath
p2379
g3
tp2380
a(Van
p2381
g3
tp2382
a(Vepisode
p2383
g3
tp2384
a(Vof
p2385
g3
tp2386
aa(lp2387
(Vwhat
p2388
g3
tp2389
a(Vcategory
p2390
g3
tp2391
a(Vof
p2392
g3
tp2393
a(Vmartial
p2394
g3
tp2395
a(Varts
p2396
g3
tp2397
a(Vis
p2398
g3
tp2399
a(Vtai
p2400
g3
tp2401
a(Vchi
p2402
g3
tp2403
a(Vchuan
p2404
g3
tp2405
aa(lp2406
(Vhow
p2407
g3
tp2408
a(Vmany
p2409
g3
tp2410
a(Vreligions
p2411
g3
tp2412
a(Vworship
p2413
g3
tp2414
a(Vgod
p2415
g3
tp2416
aa(lp2417
(Vwhat
p2418
g3
tp2419
a(Vare
p2420
g3
tp2421
a(Vthe
p2422
g3
tp2423
a(Vsubdisciplines
p2424
g3
tp2425
a(Vof
p2426
g3
tp2427
a(Vengineering
p2428
g3
tp2429
aa(lp2430
(Vwhat
p2431
g3
tp2432
a(Vis
p2433
g3
tp2434
a(VTarget
p2435
g3
tp2436
a(V's
p2437
g3
tp2438
a(Vindustry
p2439
g3
tp2440
aa(lp2441
(Vhow
p2442
g3
tp2443
a(Vmany
p2444
g3
tp2445
a(Vcountries
p2446
g3
tp2447
a(Vuse
p2448
g3
tp2449
a(Vthe
p2450
g3
tp2451
a(Vaustralian
p2452
g3
tp2453
a(Vdollar
p2454
g3
tp2455
aa(lp2456
(Vwhat
p2457
g3
tp2458
a(Vsoftware
p2459
g3
tp2460
a(Vhas
p2461
g3
tp2462
a(VClaris
p2463
VORGANIZATION
p2464
tp2465
a(Vdeveloped
p2466
g3
tp2467
aa(lp2468
(Vwhat
p2469
g3
tp2470
a(Vbus
p2471
g3
tp2472
a(Voperators
p2473
g3
tp2474
a(Vrun
p2475
g3
tp2476
a(Vbuses
p2477
g3
tp2478
a(Vto
p2479
g3
tp2480
a(VParis
p2481
VLOCATION
p2482
tp2483
aa(lp2484
(Vwhen
p2485
g3
tp2486
a(Vwas
p2487
g3
tp2488
a(Vporgy
p2489
g3
tp2490
a(Vand
p2491
g3
tp2492
a(Vbess
p2493
g3
tp2494
a(Vfirst
p2495
g3
tp2496
a(Vperformed
p2497
g3
tp2498
aa(lp2499
(Vhow
p2500
g3
tp2501
a(Vmany
p2502
g3
tp2503
a(Vpeople
p2504
g3
tp2505
a(Vhave
p2506
g3
tp2507
a(Vbeen
p2508
g3
tp2509
a(Vinfluenced
p2510
g3
tp2511
a(Vby
p2512
g3
tp2513
a(VSocrates
p2514
VPERSON
p2515
tp2516
aa(lp2517
(Vhow
p2518
g3
tp2519
a(Vmany
p2520
g3
tp2521
a(Vrunways
p2522
g3
tp2523
a(Vdoes
p2524
g3
tp2525
a(Vthe
p2526
g3
tp2527
a(VSan
p2528
VLOCATION
p2529
tp2530
a(VFrancisco
p2531
VLOCATION
p2532
tp2533
a(Vinternational
p2534
g3
tp2535
a(Vairport
p2536
g3
tp2537
a(Vhave
p2538
g3
tp2539
aa(lp2540
(Vwhat
p2541
g3
tp2542
a(Vcolor
p2543
g3
tp2544
a(Vdid
p2545
g3
tp2546
a(VAdolf
p2547
VPERSON
p2548
tp2549
a(VAnderssen
p2550
VPERSON
p2551
tp2552
a(Vplay
p2553
g3
tp2554
a(Vin
p2555
g3
tp2556
a(Vthe
p2557
g3
tp2558
a(Vimmortal
p2559
g3
tp2560
a(Vgame
p2561
g3
tp2562
aa(lp2563
(Vwhen
p2564
g3
tp2565
a(Vwas
p2566
g3
tp2567
a(Vthe
p2568
g3
tp2569
a(VBoston
p2570
VORGANIZATION
p2571
tp2572
a(VHerald
p2573
VORGANIZATION
p2574
tp2575
a(Vfirst
p2576
g3
tp2577
a(Vpublished
p2578
g3
tp2579
aa(lp2580
(Vis
p2581
g3
tp2582
a(Vthe
p2583
g3
tp2584
a(VUniversity
p2585
VORGANIZATION
p2586
tp2587
a(Vof
p2588
VORGANIZATION
p2589
tp2590
a(VLima
p2591
VORGANIZATION
p2592
tp2593
a(Vpublic
p2594
g3
tp2595
a(Vor
p2596
g3
tp2597
a(Vprivate
p2598
g3
tp2599
aa(lp2600
(Vwhat
p2601
g3
tp2602
a(Vexhibitions
p2603
g3
tp2604
a(Vhas
p2605
g3
tp2606
a(Vthe
p2607
g3
tp2608
a(Vgross
p2609
g3
tp2610
a(Vclinic
p2611
g3
tp2612
a(Vbeen
p2613
g3
tp2614
a(Vin
p2615
g3
tp2616
aa(lp2617
(Vwhat
p2618
g3
tp2619
a(Vdo
p2620
g3
tp2621
a(Vcirrus
p2622
g3
tp2623
a(Vclouds
p2624
g3
tp2625
a(Vlook
p2626
g3
tp2627
a(Vlike
p2628
g3
tp2629
aa(lp2630
(Vwho
p2631
g3
tp2632
a(Vplayed
p2633
g3
tp2634
a(Vin
p2635
g3
tp2636
a(Vthe
p2637
g3
tp2638
a(Vgame
p2639
g3
tp2640
a(Vof
p2641
g3
tp2642
a(Vthe
p2643
g3
tp2644
a(Vcentury
p2645
g3
tp2646
aa(lp2647
(Vhow
p2648
g3
tp2649
a(Vmany
p2650
g3
tp2651
a(Vcountries
p2652
g3
tp2653
a(Vparticipated
p2654
g3
tp2655
a(Vin
p2656
g3
tp2657
a(Vthe
p2658
g3
tp2659
a(V2006
p2660
g3
tp2661
a(Vwinter
p2662
g3
tp2663
a(Volympics
p2664
g3
tp2665
aa(lp2666
(Vhow
p2667
g3
tp2668
a(Vmany
p2669
g3
tp2670
a(Vtv
p2671
g3
tp2672
a(Vshows
p2673
g3
tp2674
a(Vdid
p2675
g3
tp2676
a(VDanny
p2677
VPERSON
p2678
tp2679
a(VdeVito
p2680
VPERSON
p2681
tp2682
a(Vhave
p2683
g3
tp2684
a(g15
g3
tp2685
a(Vleading
p2686
g3
tp2687
a(Vrole
p2688
g3
tp2689
a(Vin
p2690
g3
tp2691
aa(lp2692
(Vwhat
p2693
g3
tp2694
a(Vawards
p2695
g3
tp2696
a(Vhas
p2697
g3
tp2698
a(Vthe
p2699
g3
tp2700
a(Venglish
p2701
g3
tp2702
a(Vpatient
p2703
g3
tp2704
a(Vwon
p2705
g3
tp2706
aa(lp2707
(Vwho
p2708
g3
tp2709
a(Vdesigned
p2710
g3
tp2711
a(Vthe
p2712
g3
tp2713
a(Vfirst
p2714
g3
tp2715
a(Vgeneration
p2716
g3
tp2717
a(VFord
p2718
VPERSON
p2719
tp2720
a(VMustang
p2721
VPERSON
p2722
tp2723
aa(lp2724
(Vwhere
p2725
g3
tp2726
a(Vis
p2727
g3
tp2728
a(Vthe
p2729
g3
tp2730
a(Vhobbit
p2731
g3
tp2732
a(Vset
p2733
g3
tp2734
aa(lp2735
(Vwho
p2736
g3
tp2737
a(Vdiscovered
p2738
g3
tp2739
a(Vneon
p2740
g3
tp2741
aa(lp2742
(Vwhat
p2743
g3
tp2744
a(Vare
p2745
g3
tp2746
a(Vsome
p2747
g3
tp2748
a(Vbritish
p2749
g3
tp2750
a(Vlocomotive
p2751
g3
tp2752
a(Vclass
p2753
g3
tp2754
a(V52
p2755
g3
tp2756
a(Vtrains
p2757
g3
tp2758
aa(lp2759
(Vwhat
p2760
g3
tp2761
a(Vnumber
p2762
g3
tp2763
a(Vwas
p2764
g3
tp2765
a(VDavid
p2766
VPERSON
p2767
tp2768
a(VAkers
p2769
VPERSON
p2770
tp2771
a(Von
p2772
g3
tp2773
a(Vthe
p2774
g3
tp2775
a(VPhiladelphia
p2776
VORGANIZATION
p2777
tp2778
a(VEagles
p2779
VORGANIZATION
p2780
tp2781
aa(lp2782
(Vhow
p2783
g3
tp2784
a(Vmany
p2785
g3
tp2786
a(Vshows
p2787
g3
tp2788
a(Vwas
p2789
g3
tp2790
a(VHayden
p2791
VPERSON
p2792
tp2793
a(VPanettiere
p2794
VPERSON
p2795
tp2796
a(Von
p2797
g3
tp2798
aa(lp2799
(Vhow
p2800
g3
tp2801
a(Vmany
p2802
g3
tp2803
a(Vfree
p2804
g3
tp2805
a(Vexhibits
p2806
g3
tp2807
a(Vhave
p2808
g3
tp2809
a(Vthere
p2810
g3
tp2811
a(Vbeen
p2812
g3
tp2813
a(Vat
p2814
g3
tp2815
a(Vthe
p2816
g3
tp2817
a(Vscience
p2818
g3
tp2819
a(Vmuseum
p2820
g3
tp2821
aa(lp2822
(Vhow
p2823
g3
tp2824
a(Vdid
p2825
g3
tp2826
a(VSamuel
p2827
VPERSON
p2828
tp2829
a(VBeckett
p2830
VPERSON
p2831
tp2832
a(Vdie
p2833
g3
tp2834
aa(lp2835
(Vwhat
p2836
g3
tp2837
a(Vtype
p2838
g3
tp2839
a(Vof
p2840
g3
tp2841
a(Vinfection
p2842
g3
tp2843
a(Vis
p2844
g3
tp2845
a(Vsyphilis
p2846
g3
tp2847
aa(lp2848
(Vwhat
p2849
g3
tp2850
a(Vis
p2851
g3
tp2852
a(VAfrica
p2853
VLOCATION
p2854
tp2855
a(V's
p2856
g3
tp2857
a(Varea
p2858
g3
tp2859
aa(lp2860
(Vhow
p2861
g3
tp2862
a(Vlong
p2863
g3
tp2864
a(Vare
p2865
g3
tp2866
a(Vadventure
p2867
g3
tp2868
a(Vtime
p2869
g3
tp2870
a(Vepisodes
p2871
g3
tp2872
aa(lp2873
(Vwho
p2874
g3
tp2875
a(Vdesigned
p2876
g3
tp2877
a(Vthe
p2878
g3
tp2879
a(Vhawker
p2880
g3
tp2881
a(Vsea
p2882
g3
tp2883
a(Vhawk
p2884
g3
tp2885
aa(lp2886
(Vwhen
p2887
g3
tp2888
a(Vwas
p2889
g3
tp2890
a(Vthe
p2891
g3
tp2892
a(Vhigh
p2893
g3
tp2894
a(Vcourt
p2895
g3
tp2896
a(Vof
p2897
g3
tp2898
a(VAustralia
p2899
VLOCATION
p2900
tp2901
a(Vfounded
p2902
g3
tp2903
aa(lp2904
(Vwho
p2905
g3
tp2906
a(Vbrews
p2907
g3
tp2908
a(VPauwel
p2909
VPERSON
p2910
tp2911
a(VKwak
p2912
VPERSON
p2913
tp2914
aa(lp2915
(Vwhen
p2916
g3
tp2917
a(Vdid
p2918
g3
tp2919
a(Veverything
p2920
g3
tp2921
a(Vis
p2922
g3
tp2923
a(Villuminated
p2924
g3
tp2925
a(Vwin
p2926
g3
tp2927
a(Vthe
p2928
g3
tp2929
a(Vguardian
p2930
g3
tp2931
a(Vfirst
p2932
g3
tp2933
a(Vbook
p2934
g3
tp2935
a(Vaward
p2936
g3
tp2937
aa(lp2938
(Vwhat
p2939
g3
tp2940
a(Vairlines
p2941
g3
tp2942
a(Vis
p2943
g3
tp2944
a(Vthe
p2945
g3
tp2946
a(VLondon
p2947
VLOCATION
p2948
tp2949
a(VHeathrow
p2950
VLOCATION
p2951
tp2952
a(Vairport
p2953
g3
tp2954
a(g15
g3
tp2955
a(Vhub
p2956
g3
tp2957
a(Vfor
p2958
g3
tp2959
aa(lp2960
(Vwho
p2961
g3
tp2962
a(Vare
p2963
g3
tp2964
a(Vsome
p2965
g3
tp2966
a(Vnotable
p2967
g3
tp2968
a(Vagnostic
p2969
g3
tp2970
a(Vfigures
p2971
g3
tp2972
aa(lp2973
(Vwhat
p2974
g3
tp2975
a(Vlines
p2976
g3
tp2977
a(Vdoes
p2978
g3
tp2979
a(Vthe
p2980
g3
tp2981
a(VLondon
p2982
VLOCATION
p2983
tp2984
a(Voverground
p2985
g3
tp2986
a(Voperate
p2987
g3
tp2988
aa(lp2989
(Vhow
p2990
g3
tp2991
a(Vmany
p2992
g3
tp2993
a(Vjudges
p2994
g3
tp2995
a(Vhas
p2996
g3
tp2997
a(Vthe
p2998
g3
tp2999
a(Vhigh
p3000
g3
tp3001
a(Vcourt
p3002
g3
tp3003
a(Vof
p3004
g3
tp3005
a(Vjustice
p3006
g3
tp3007
a(Vhad
p3008
g3
tp3009
aa(lp3010
(Vwhat
p3011
g3
tp3012
a(Vother
p3013
g3
tp3014
a(Vnames
p3015
g3
tp3016
a(Vis
p3017
g3
tp3018
a(Vthe
p3019
g3
tp3020
a(VUnited
p3021
VORGANIZATION
p3022
tp3023
a(VNations
p3024
VORGANIZATION
p3025
tp3026
a(Vknown
p3027
g3
tp3028
a(Vby
p3029
g3
tp3030
aa(lp3031
(Vwhere
p3032
g3
tp3033
a(Vdid
p3034
g3
tp3035
a(Vtaekwondo
p3036
g3
tp3037
a(Voriginate
p3038
g3
tp3039
aa(lp3040
(Vwhat
p3041
g3
tp3042
a(Vis
p3043
g3
tp3044
a(Vthe
p3045
g3
tp3046
a(Varea
p3047
g3
tp3048
a(Vof
p3049
g3
tp3050
a(VNorth
p3051
VLOCATION
p3052
tp3053
a(VAmerica
p3054
VLOCATION
p3055
tp3056
aa(lp3057
(Vsince
p3058
g3
tp3059
a(Vwhen
p3060
g3
tp3061
a(Vhas
p3062
g3
tp3063
a(Vthe
p3064
g3
tp3065
a(Varabic
p3066
g3
tp3067
a(Valphabet
p3068
g3
tp3069
a(Vbeen
p3070
g3
tp3071
a(Vused
p3072
g3
tp3073
aa(lp3074
(Vhow
p3075
g3
tp3076
a(Vlong
p3077
g3
tp3078
a(Vis
p3079
g3
tp3080
a(Vthe
p3081
g3
tp3082
a(Vmexican
p3083
g3
tp3084
a(Vfederal
p3085
g3
tp3086
a(Vhighway
p3087
g3
tp3088
a(g93
g3
tp3089
aa(lp3090
(Vhow
p3091
g3
tp3092
a(Vmany
p3093
g3
tp3094
a(Vschools
p3095
g3
tp3096
a(Vhave
p3097
g3
tp3098
a(g15
g3
tp3099
a(Vchapter
p3100
g3
tp3101
a(Vof
p3102
g3
tp3103
a(Vsigma
p3104
g3
tp3105
a(Vphi
p3106
g3
tp3107
a(Vepsilon
p3108
g3
tp3109
aa(lp3110
(Vwho
p3111
g3
tp3112
a(Vwere
p3113
g3
tp3114
a(Vthe
p3115
g3
tp3116
a(Vastronauts
p3117
g3
tp3118
a(Vin
p3119
g3
tp3120
a(Vthe
p3121
g3
tp3122
a(Vapollo
p3123
g3
tp3124
a(V12
p3125
g3
tp3126
a(Vmission
p3127
g3
tp3128
aa(lp3129
(Vhow
p3130
g3
tp3131
a(Vmany
p3132
g3
tp3133
a(Vpeople
p3134
g3
tp3135
a(Vinfluenced
p3136
g3
tp3137
a(VKarl
p3138
VPERSON
p3139
tp3140
a(VMarx
p3141
VPERSON
p3142
tp3143
aa(lp3144
(Vhow
p3145
g3
tp3146
a(Vmany
p3147
g3
tp3148
a(VCanon
p3149
VORGANIZATION
p3150
tp3151
a(Vdigital
p3152
g3
tp3153
a(Vcameras
p3154
g3
tp3155
a(Vare
p3156
g3
tp3157
a(Vthere
p3158
g3
tp3159
aa(lp3160
(Vwhat
p3161
g3
tp3162
a(Vis
p3163
g3
tp3164
a(Vthe
p3165
g3
tp3166
a(Voriginal
p3167
g3
tp3168
a(Vlanguage
p3169
g3
tp3170
a(Vof
p3171
g3
tp3172
a(Vthe
p3173
g3
tp3174
a(Vwind-up
p3175
g3
tp3176
a(Vbird
p3177
g3
tp3178
a(Vchronicle
p3179
g3
tp3180
aa(lp3181
(Vwhat
p3182
g3
tp3183
a(Vis
p3184
g3
tp3185
a(Vthe
p3186
g3
tp3187
a(VUSA
p3188
VLOCATION
p3189
tp3190
a(Vmoney
p3191
g3
tp3192
a(Vcurrency
p3193
g3
tp3194
a(Vcode
p3195
g3
tp3196
aa(lp3197
(Vhow
p3198
g3
tp3199
a(Vmany
p3200
g3
tp3201
a(Vmilitary
p3202
g3
tp3203
a(Vunits
p3204
g3
tp3205
a(Voriginated
p3206
g3
tp3207
a(Vin
p3208
g3
tp3209
a(VDelaware
p3210
VLOCATION
p3211
tp3212
aa(lp3213
(Vhow
p3214
g3
tp3215
a(Vmany
p3216
g3
tp3217
a(Vpeople
p3218
g3
tp3219
a(Vhave
p3220
g3
tp3221
a(Vheld
p3222
g3
tp3223
a(Vthe
p3224
g3
tp3225
a(Vtitle
p3226
g3
tp3227
a(Vof
p3228
g3
tp3229
a(Vgrand
p3230
g3
tp3231
a(Vmaster
p3232
g3
tp3233
a(Vof
p3234
g3
tp3235
a(Vthe
p3236
g3
tp3237
a(Vorder
p3238
g3
tp3239
a(Vof
p3240
g3
tp3241
a(Vthe
p3242
g3
tp3243
a(Vmost
p3244
g3
tp3245
a(Vholy
p3246
g3
tp3247
a(Vannunciation
p3248
g3
tp3249
aa(lp3250
(Vhow
p3251
g3
tp3252
a(Vmany
p3253
g3
tp3254
a(Vmalls
p3255
g3
tp3256
a(Vdoes
p3257
g3
tp3258
a(VOxford
p3259
VORGANIZATION
p3260
tp3261
a(Vproperties
p3262
g3
tp3263
a(Vown
p3264
g3
tp3265
aa(lp3266
(Vwhat
p3267
g3
tp3268
a(Vqualification
p3269
g3
tp3270
a(Vdoes
p3271
g3
tp3272
a(VWoody
p3273
VPERSON
p3274
tp3275
a(VStrode
p3276
VPERSON
p3277
tp3278
a(Vhave
p3279
g3
tp3280
a(Vin
p3281
g3
tp3282
a(Vseishindo
p3283
g3
tp3284
a(Vkenpo
p3285
g3
tp3286
aa(lp3287
(Vwhat
p3288
g3
tp3289
a(Vis
p3290
g3
tp3291
a(Vthe
p3292
g3
tp3293
a(Vsingle
p3294
g3
tp3295
a(Vletter
p3296
g3
tp3297
a(Vabreviation
p3298
g3
tp3299
a(Vfor
p3300
g3
tp3301
a(Vtryptophan
p3302
g3
tp3303
aa(lp3304
(Vwhere
p3305
g3
tp3306
a(Vare
p3307
g3
tp3308
a(Vdravidian
p3309
g3
tp3310
a(Vlanguages
p3311
g3
tp3312
a(Vspoken
p3313
g3
tp3314
aa(lp3315
(Vhow
p3316
g3
tp3317
a(Vmany
p3318
g3
tp3319
a(Vbooks
p3320
g3
tp3321
a(Vdoes
p3322
g3
tp3323
a(Vthe
p3324
g3
tp3325
a(VDetroit
p3326
VLOCATION
p3327
tp3328
a(Vpublic
p3329
g3
tp3330
a(Vlibrary
p3331
g3
tp3332
a(Vhave
p3333
g3
tp3334
aa(lp3335
(Vhow
p3336
g3
tp3337
a(Vmany
p3338
g3
tp3339
a(Vkinds
p3340
g3
tp3341
a(Vof
p3342
g3
tp3343
a(Vfootwear
p3344
g3
tp3345
a(Vare
p3346
g3
tp3347
a(Vthere
p3348
g3
tp3349
aa(lp3350
(Vin
p3351
g3
tp3352
a(Vwhat
p3353
g3
tp3354
a(Vpark
p3355
g3
tp3356
a(Vis
p3357
g3
tp3358
a(Vsplash
p3359
g3
tp3360
a(Vmountain
p3361
g3
tp3362
aa(lp3363
(Vwhat
p3364
g3
tp3365
a(Vis
p3366
g3
tp3367
a(VDanny
p3368
VPERSON
p3369
tp3370
a(VdeVito
p3371
VPERSON
p3372
tp3373
a(V's
p3374
g3
tp3375
a(Vreligion
p3376
g3
tp3377
aa(lp3378
(Vwhat
p3379
g3
tp3380
a(Vpowers
p3381
g3
tp3382
a(Vdoes
p3383
g3
tp3384
a(Vsonic
p3385
g3
tp3386
a(Vthe
p3387
g3
tp3388
a(Vhedgehog
p3389
g3
tp3390
a(Vhave
p3391
g3
tp3392
aa(lp3393
(Vhow
p3394
g3
tp3395
a(Vmany
p3396
g3
tp3397
a(Vwins
p3398
g3
tp3399
a(Vhas
p3400
g3
tp3401
a(VLarry
p3402
VPERSON
p3403
tp3404
a(VBird
p3405
VPERSON
p3406
tp3407
a(Vhad
p3408
g3
tp3409
a(Vin
p3410
g3
tp3411
a(Vhis
p3412
g3
tp3413
a(Vcareer
p3414
g3
tp3415
aa(lp3416
(Vwhat
p3417
g3
tp3418
a(Vare
p3419
g3
tp3420
a(Vthe
p3421
g3
tp3422
a(Vsymptoms
p3423
g3
tp3424
a(Vof
p3425
g3
tp3426
a(Vmotor
p3427
g3
tp3428
a(Vneuron
p3429
g3
tp3430
a(Vdisease
p3431
g3
tp3432
aa(lp3433
(Vwhat
p3434
g3
tp3435
a(Vwas
p3436
g3
tp3437
a(Vthe
p3438
g3
tp3439
a(Vfinal
p3440
g3
tp3441
a(Vair
p3442
g3
tp3443
a(Vdate
p3444
g3
tp3445
a(Vof
p3446
g3
tp3447
a(Vlux
p3448
g3
tp3449
a(Vradio
p3450
g3
tp3451
a(Vtheater
p3452
g3
tp3453
aa(lp3454
(Vhow
p3455
g3
tp3456
a(Vmany
p3457
g3
tp3458
a(Vgrammy
p3459
g3
tp3460
a(Vawards
p3461
g3
tp3462
a(Vdid
p3463
g3
tp3464
a(VBeyonce
p3465
VPERSON
p3466
tp3467
a(Vreceive
p3468
g3
tp3469
a(Vin
p3470
g3
tp3471
a(Vher
p3472
g3
tp3473
a(Vsinging
p3474
g3
tp3475
a(Vcareer
p3476
g3
tp3477
aa(lp3478
(Vwhat
p3479
g3
tp3480
a(Vlanguage
p3481
g3
tp3482
a(Vis
p3483
g3
tp3484
a(Vlohengrin
p3485
g3
tp3486
a(Vin
p3487
g3
tp3488
aa(lp3489
(Vwhich
p3490
g3
tp3491
a(Vissues
p3492
g3
tp3493
a(Vof
p3494
g3
tp3495
a(Vx-men
p3496
g3
tp3497
a(Vhave
p3498
g3
tp3499
a(Viceman
p3500
g3
tp3501
a(Von
p3502
g3
tp3503
a(Vthe
p3504
g3
tp3505
a(Vcover
p3506
g3
tp3507
aa(lp3508
(Vwhat
p3509
g3
tp3510
a(Vnumber
p3511
g3
tp3512
a(Vis
p3513
g3
tp3514
a(VKevin
p3515
VPERSON
p3516
tp3517
a(VYoukilis
p3518
VPERSON
p3519
tp3520
a(Von
p3521
g3
tp3522
a(Vthe
p3523
g3
tp3524
a(VBoston
p3525
VORGANIZATION
p3526
tp3527
a(VRed
p3528
VORGANIZATION
p3529
tp3530
a(VSox
p3531
VORGANIZATION
p3532
tp3533
aa(lp3534
(Vwhat
p3535
g3
tp3536
a(Vare
p3537
g3
tp3538
a(Vthe
p3539
g3
tp3540
a(Vsymptoms
p3541
g3
tp3542
a(Vof
p3543
g3
tp3544
a(Vprostate
p3545
g3
tp3546
a(Vcancer
p3547
g3
tp3548
aa(lp3549
(Vwho
p3550
g3
tp3551
a(Vcreated
p3552
g3
tp3553
a(VCharlie
p3554
VPERSON
p3555
tp3556
a(VBrown
p3557
VPERSON
p3558
tp3559
aa(lp3560
(Vwhat
p3561
g3
tp3562
a(Vclass
p3563
g3
tp3564
a(Vof
p3565
g3
tp3566
a(Vtrain
p3567
g3
tp3568
a(Vwas
p3569
g3
tp3570
a(Vheavy
p3571
g3
tp3572
a(Vharry
p3573
g3
tp3574
aa(lp3575
(Vwhat
p3576
g3
tp3577
a(Vtype
p3578
g3
tp3579
a(Vof
p3580
g3
tp3581
a(Vbicycle
p3582
g3
tp3583
a(Vis
p3584
g3
tp3585
a(g15
g3
tp3586
a(Vbianchi
p3587
g3
tp3588
a(Vpista
p3589
g3
tp3590
aa(lp3591
(Vhow
p3592
g3
tp3593
a(Vmany
p3594
g3
tp3595
a(Vbroadcasts
p3596
g3
tp3597
a(Vdoes
p3598
g3
tp3599
a(Vblogtalkradio
p3600
g3
tp3601
a(Vdistribute
p3602
g3
tp3603
aa(lp3604
(Vwhat
p3605
g3
tp3606
a(Vlabel
p3607
g3
tp3608
a(Vdoes
p3609
g3
tp3610
a(VJulien
p3611
VPERSON
p3612
tp3613
a(VFournie
p3614
VPERSON
p3615
tp3616
a(Vdesign
p3617
g3
tp3618
a(Vfor
p3619
g3
tp3620
aa(lp3621
(Vhow
p3622
g3
tp3623
a(Vhigh
p3624
g3
tp3625
a(Vis
p3626
g3
tp3627
a(VNiagara
p3628
VLOCATION
p3629
tp3630
a(Vfalls
p3631
g3
tp3632
aa(lp3633
(Vwho
p3634
g3
tp3635
a(Vcurrently
p3636
g3
tp3637
a(Vplays
p3638
g3
tp3639
a(Vfor
p3640
g3
tp3641
a(Vthe
p3642
g3
tp3643
a(VSan
p3644
VORGANIZATION
p3645
tp3646
a(VJose
p3647
VORGANIZATION
p3648
tp3649
a(VSharks
p3650
VORGANIZATION
p3651
tp3652
aa(lp3653
(Vwhat
p3654
g3
tp3655
a(Vare
p3656
g3
tp3657
a(Vthe
p3658
g3
tp3659
a(Vsurvival
p3660
g3
tp3661
a(Vrates
p3662
g3
tp3663
a(Vfor
p3664
g3
tp3665
a(Vprostate
p3666
g3
tp3667
a(Vcancer
p3668
g3
tp3669
aa(lp3670
(Vhow
p3671
g3
tp3672
a(Vmany
p3673
g3
tp3674
a(Vaward
p3675
g3
tp3676
a(Vnominations
p3677
g3
tp3678
a(Vdid
p3679
g3
tp3680
a(VDanny
p3681
VPERSON
p3682
tp3683
a(VdeVito
p3684
VPERSON
p3685
tp3686
a(Vhave
p3687
g3
tp3688
aa(lp3689
(Vwhen
p3690
g3
tp3691
a(Vdid
p3692
g3
tp3693
a(VCharlie
p3694
VPERSON
p3695
tp3696
a(VSheen
p3697
VPERSON
p3698
tp3699
a(Venter
p3700
g3
tp3701
a(Vthe
p3702
g3
tp3703
a(Vthousand
p3704
g3
tp3705
a(Voaks
p3706
g3
tp3707
a(Vrehab
p3708
g3
tp3709
a(Vfacility
p3710
g3
tp3711
aa(lp3712
(Vwhat
p3713
g3
tp3714
a(Vbowling
p3715
g3
tp3716
a(Vtechnique
p3717
g3
tp3718
a(Vdoes
p3719
g3
tp3720
a(VMatthew
p3721
VPERSON
p3722
tp3723
a(VHayden
p3724
VPERSON
p3725
tp3726
a(Vuse
p3727
g3
tp3728
aa(lp3729
(Vwhat
p3730
g3
tp3731
a(V's
p3732
g3
tp3733
a(Vthe
p3734
g3
tp3735
a(Vfocus
p3736
g3
tp3737
a(Vof
p3738
g3
tp3739
a(Vthe
p3740
g3
tp3741
a(Vlast
p3742
g3
tp3743
a(Vminute
p3744
g3
tp3745
a(Vblog
p3746
g3
tp3747
aa(lp3748
(Vhow
p3749
g3
tp3750
a(Vmany
p3751
g3
tp3752
a(Vnicknames
p3753
g3
tp3754
a(Vdoes
p3755
g3
tp3756
a(VShaquille
p3757
VPERSON
p3758
tp3759
a(VO'Neal
p3760
VPERSON
p3761
tp3762
a(Vhave
p3763
g3
tp3764
aa(lp3765
(Vin
p3766
g3
tp3767
a(Vwhat
p3768
g3
tp3769
a(Vdivision
p3770
g3
tp3771
a(Vdo
p3772
g3
tp3773
a(Vthe
p3774
g3
tp3775
a(VSt.
p3776
VLOCATION
p3777
tp3778
a(VLouis
p3779
VLOCATION
p3780
tp3781
a(VbBlues
p3782
g3
tp3783
a(Vplay
p3784
g3
tp3785
aa(lp3786
(Vwho
p3787
g3
tp3788
a(Vmanaged
p3789
g3
tp3790
a(VLiverpool
p3791
VORGANIZATION
p3792
tp3793
a(VF.C
p3794
VORGANIZATION
p3795
tp3796
a(g489
g3
tp3797
a(Vfrom
p3798
g3
tp3799
a(V2004
p3800
g3
tp3801
a(Vto
p3802
g3
tp3803
a(Vjune
p3804
g3
tp3805
a(V2010
p3806
g3
tp3807
aa(lp3808
(Vwhat
p3809
g3
tp3810
a(Vis
p3811
g3
tp3812
a(Vthe
p3813
g3
tp3814
a(Vheight
p3815
g3
tp3816
a(Vrestriction
p3817
g3
tp3818
a(Von
p3819
g3
tp3820
a(Vthe
p3821
g3
tp3822
a(Vroller
p3823
g3
tp3824
a(Vsoaker
p3825
g3
tp3826
aa(lp3827
(Vwhat
p3828
g3
tp3829
a(Vis
p3830
g3
tp3831
a(Vcurrency
p3832
g3
tp3833
a(Vcode
p3834
g3
tp3835
a(Vfor
p3836
g3
tp3837
a(Vthe
p3838
g3
tp3839
a(Vcanadian
p3840
g3
tp3841
a(Vdollar
p3842
g3
tp3843
aa(lp3844
(Vwhat
p3845
g3
tp3846
a(Vis
p3847
g3
tp3848
a(Vthe
p3849
g3
tp3850
a(Varea
p3851
g3
tp3852
a(Vof
p3853
g3
tp3854
a(VAntarctica
p3855
VLOCATION
p3856
tp3857
aa(lp3858
(Vhow
p3859
g3
tp3860
a(Vmany
p3861
g3
tp3862
a(Vgames
p3863
g3
tp3864
a(Vdid
p3865
g3
tp3866
a(VDonovan
p3867
VPERSON
p3868
tp3869
a(VMcNabb
p3870
VPERSON
p3871
tp3872
a(Vplay
p3873
g3
tp3874
a(Vin
p3875
g3
tp3876
a(Vthe
p3877
g3
tp3878
a(V2008
p3879
g3
tp3880
a(Vseason
p3881
g3
tp3882
aa(lp3883
(Vhow
p3884
g3
tp3885
a(Vmany
p3886
g3
tp3887
a(Vissues
p3888
g3
tp3889
a(Vare
p3890
g3
tp3891
a(Vthere
p3892
g3
tp3893
a(Vin
p3894
g3
tp3895
a(Vthe
p3896
g3
tp3897
a(VX-Men
p3898
g3
tp3899
aa(lp3900
(Vin
p3901
g3
tp3902
a(Vhow
p3903
g3
tp3904
a(Vmany
p3905
g3
tp3906
a(Vcountries
p3907
g3
tp3908
a(Vis
p3909
g3
tp3910
a(Vthe
p3911
g3
tp3912
a(Veuro
p3913
g3
tp3914
a(Vused
p3915
g3
tp3916
aa(lp3917
(Vwhat
p3918
g3
tp3919
a(Vwas
p3920
g3
tp3921
a(VTarget
p3922
g3
tp3923
a(V's
p3924
g3
tp3925
a(Vrank
p3926
g3
tp3927
a(Vin
p3928
g3
tp3929
a(Vthe
p3930
g3
tp3931
a(Vfortune
p3932
g3
tp3933
a(V500
p3934
g3
tp3935
a(Vin
p3936
g3
tp3937
a(V2010
p3938
g3
tp3939
aa(lp3940
(Vhow
p3941
g3
tp3942
a(Vmany
p3943
g3
tp3944
a(Vpeople
p3945
g3
tp3946
a(Vwere
p3947
g3
tp3948
a(Vat
p3949
g3
tp3950
a(Vthe
p3951
g3
tp3952
a(V2006
p3953
g3
tp3954
a(VFIFA
p3955
VORGANIZATION
p3956
tp3957
a(Vworld
p3958
g3
tp3959
a(Vcup
p3960
g3
tp3961
a(Vfinal
p3962
g3
tp3963
aa(lp3964
(Vhow
p3965
g3
tp3966
a(Vmany
p3967
g3
tp3968
a(Vawards
p3969
g3
tp3970
a(Vdid
p3971
g3
tp3972
a(VDanny
p3973
VPERSON
p3974
tp3975
a(VdeVito
p3976
VPERSON
p3977
tp3978
a(Vwin
p3979
g3
tp3980
aa(lp3981
(Vhow
p3982
g3
tp3983
a(Vmany
p3984
g3
tp3985
a(Vislands
p3986
g3
tp3987
a(Vare
p3988
g3
tp3989
a(Vin
p3990
g3
tp3991
a(Vthe
p3992
g3
tp3993
a(VAntilles
p3994
VLOCATION
p3995
tp3996
aa(lp3997
(Vwhat
p3998
g3
tp3999
a(Vis
p4000
g3
tp4001
a(Vthe
p4002
g3
tp4003
a(Vclosest
p4004
g3
tp4005
a(Vcity
p4006
g3
tp4007
a(Vto
p4008
g3
tp4009
a(VSnowshoe
p4010
VLOCATION
p4011
tp4012
a(Vmountain
p4013
VLOCATION
p4014
tp4015
aa(lp4016
(Vhow
p4017
g3
tp4018
a(Vtall
p4019
g3
tp4020
a(Vis
p4021
g3
tp4022
a(VJerry
p4023
VPERSON
p4024
tp4025
a(VSeinfeld
p4026
VPERSON
p4027
tp4028
aa(lp4029
(Vhow
p4030
g3
tp4031
a(Vmany
p4032
g3
tp4033
a(Vcards
p4034
g3
tp4035
a(Vdo
p4036
g3
tp4037
a(Vyou
p4038
g3
tp4039
a(Vneed
p4040
g3
tp4041
a(Vto
p4042
g3
tp4043
a(Vplay
p4044
g3
tp4045
a(Vcanasta
p4046
g3
tp4047
aa(lp4048
(Vhow
p4049
g3
tp4050
a(Vmany
p4051
g3
tp4052
a(Vgames
p4053
g3
tp4054
a(Vare
p4055
g3
tp4056
a(Vin
p4057
g3
tp4058
a(Vthe
p4059
g3
tp4060
a(Vfinal
p4061
g3
tp4062
a(Vfantasy
p4063
g3
tp4064
a(Vseries
p4065
g3
tp4066
aa(lp4067
(Vwhat
p4068
g3
tp4069
a(Vare
p4070
g3
tp4071
a(Vnicknames
p4072
g3
tp4073
a(Vfor
p4074
g3
tp4075
a(VNew
p4076
VLOCATION
p4077
tp4078
a(VYork
p4079
VLOCATION
p4080
tp4081
aa(lp4082
(Vwhat
p4083
g3
tp4084
a(Vis
p4085
g3
tp4086
a(Vthe
p4087
g3
tp4088
a(Vhighway
p4089
g3
tp4090
a(Vfuel
p4091
g3
tp4092
a(Veconomy
p4093
g3
tp4094
a(Vof
p4095
g3
tp4096
a(g15
g3
tp4097
a(V2007
p4098
g3
tp4099
a(VHonda
p4100
g3
tp4101
a(VCivic
p4102
g3
tp4103
a(Vhybrid
p4104
g3
tp4105
aa(lp4106
(Vwho
p4107
g3
tp4108
a(Vis
p4109
g3
tp4110
a(Vthe
p4111
g3
tp4112
a(Vdeveloper
p4113
g3
tp4114
a(Vof
p4115
g3
tp4116
a(VJava
p4117
g3
tp4118
a(Vlanguage
p4119
g3
tp4120
aa(lp4121
(Vhow
p4122
g3
tp4123
a(Vmany
p4124
g3
tp4125
a(Vspeeds
p4126
g3
tp4127
a(Vdoes
p4128
g3
tp4129
a(g15
g3
tp4130
a(VPanasonic
p4131
g3
tp4132
a(VDX3000
p4133
g3
tp4134
a(Vhave
p4135
g3
tp4136
aa(lp4137
(Vwhen
p4138
g3
tp4139
a(Vwas
p4140
g3
tp4141
a(VJoni
p4142
VPERSON
p4143
tp4144
a(VMitchell
p4145
VPERSON
p4146
tp4147
a(Vinducted
p4148
g3
tp4149
a(Vinto
p4150
g3
tp4151
a(Vthe
p4152
g3
tp4153
a(Vrock
p4154
g3
tp4155
a(Vand
p4156
g3
tp4157
a(Vroll
p4158
g3
tp4159
a(Vhall
p4160
g3
tp4161
a(Vof
p4162
g3
tp4163
a(Vfame
p4164
g3
tp4165
aa(lp4166
(Vwhere
p4167
g3
tp4168
a(Vwas
p4169
g3
tp4170
a(VWilliam
p4171
VPERSON
p4172
tp4173
a(VShakespeare
p4174
VPERSON
p4175
tp4176
a(Vborn
p4177
g3
tp4178
aa(lp4179
(Vwhat
p4180
g3
tp4181
a(Vare
p4182
g3
tp4183
a(Vthe
p4184
g3
tp4185
a(Vdimensions
p4186
g3
tp4187
a(Vof
p4188
g3
tp4189
a(Vthe
p4190
g3
tp4191
a(VMatrix
p4192
g3
tp4193
a(VReloaded
p4194
g3
tp4195
a(Vimage
p4196
g3
tp4197
aa(lp4198
(Vhow
p4199
g3
tp4200
a(Vmany
p4201
g3
tp4202
a(Vtest
p4203
g3
tp4204
a(Vconferences
p4205
g3
tp4206
a(Vhas
p4207
g3
tp4208
a(VRudi
p4209
VPERSON
p4210
tp4211
a(VKoertzen
p4212
VPERSON
p4213
tp4214
a(Vrefereed
p4215
g3
tp4216
aa(lp4217
(Vwhat
p4218
g3
tp4219
a(Vreligions
p4220
g3
tp4221
a(Vbranched
p4222
g3
tp4223
a(Vfrom
p4224
g3
tp4225
a(Vroman
p4226
g3
tp4227
a(Vcatholicism
p4228
g3
tp4229
aa(lp4230
(Vwhat
p4231
g3
tp4232
a(Varea
p4233
g3
tp4234
a(Vdoes
p4235
g3
tp4236
a(Vkifm
p4237
g3
tp4238
a(Vserve
p4239
g3
tp4240
aa(lp4241
(Vwho
p4242
g3
tp4243
a(Vdeveloped
p4244
g3
tp4245
a(Vthe
p4246
g3
tp4247
a(Vpolio
p4248
g3
tp4249
a(Vvaccine
p4250
g3
tp4251
aa(lp4252
(Vwho
p4253
g3
tp4254
a(Vpainted
p4255
g3
tp4256
a(Vthe
p4257
g3
tp4258
a(VMona
p4259
g3
tp4260
a(VLisa
p4261
g3
tp4262
aa(lp4263
(Vhow
p4264
g3
tp4265
a(Vmany
p4266
g3
tp4267
a(Vcollections
p4268
g3
tp4269
a(Vdid
p4270
g3
tp4271
a(VBarry
p4272
VPERSON
p4273
tp4274
a(VHalper
p4275
VPERSON
p4276
tp4277
a(Vhave
p4278
g3
tp4279
aa(lp4280
(Vwho
p4281
g3
tp4282
a(Vwrites
p4283
g3
tp4284
a(Vthe
p4285
g3
tp4286
a(Vdabble
p4287
g3
tp4288
a(Vblog
p4289
g3
tp4290
aa(lp4291
(Vwhat
p4292
g3
tp4293
a(Vconventions
p4294
g3
tp4295
a(Vhas
p4296
g3
tp4297
a(VHillary
p4298
VPERSON
p4299
tp4300
a(VClinton
p4301
VPERSON
p4302
tp4303
a(Vspoken
p4304
g3
tp4305
a(Vat
p4306
g3
tp4307
aa(lp4308
(Vwho
p4309
g3
tp4310
a(Vare
p4311
g3
tp4312
a(Vsome
p4313
g3
tp4314
a(VBauhaus
p4315
g3
tp4316
a(Varchitects
p4317
g3
tp4318
aa(lp4319
(Vhow
p4320
g3
tp4321
a(Vmany
p4322
g3
tp4323
a(Vteams
p4324
g3
tp4325
a(Vhas
p4326
g3
tp4327
a(VCurly
p4328
g3
tp4329
a(VLambeau
p4330
g3
tp4331
a(Vcoached
p4332
g3
tp4333
aa(lp4334
(Vhow
p4335
g3
tp4336
a(Vmany
p4337
g3
tp4338
a(Vbranches
p4339
g3
tp4340
a(Vdoes
p4341
g3
tp4342
a(Vthe
p4343
g3
tp4344
a(VVancouver
p4345
g3
tp4346
a(Vpublic
p4347
g3
tp4348
a(Vlibrary
p4349
g3
tp4350
a(Vhave
p4351
g3
tp4352
aa(lp4353
(Vwhat
p4354
g3
tp4355
a(Vcity
p4356
g3
tp4357
a(Vis
p4358
g3
tp4359
a(Vthe
p4360
g3
tp4361
a(VBen
p4362
g3
tp4363
a(VMay
p4364
g3
tp4365
a(Vmain
p4366
g3
tp4367
a(Vlibrary
p4368
g3
tp4369
a(Vin
p4370
g3
tp4371
aa(lp4372
(Vwhat
p4373
g3
tp4374
a(Vguidebooks
p4375
g3
tp4376
a(Vare
p4377
g3
tp4378
a(Vthere
p4379
g3
tp4380
a(Vfor
p4381
g3
tp4382
a(VSan
p4383
VLOCATION
p4384
tp4385
a(VFrancisco
p4386
VLOCATION
p4387
tp4388
aa(lp4389
(Vwhat
p4390
g3
tp4391
a(Vare
p4392
g3
tp4393
a(Vsome
p4394
g3
tp4395
a(Vpsychology
p4396
g3
tp4397
a(Vjournals
p4398
g3
tp4399
aa(lp4400
(Vwhere
p4401
g3
tp4402
a(Vwas
p4403
g3
tp4404
a(Vthe
p4405
g3
tp4406
a(VKepler
p4407
VPERSON
p4408
tp4409
a(Vspacecraft
p4410
g3
tp4411
a(Vlaunched
p4412
g3
tp4413
aa(lp4414
(Vhow
p4415
g3
tp4416
a(Vmany
p4417
g3
tp4418
a(Vfilm
p4419
g3
tp4420
a(Vactors
p4421
g3
tp4422
a(Vare
p4423
g3
tp4424
a(Vthere
p4425
g3
tp4426
a(Von
p4427
g3
tp4428
a(Vfreebase
p4429
g3
tp4430
aa(lp4431
(Vwhen
p4432
g3
tp4433
a(Vdid
p4434
g3
tp4435
a(g15
g3
tp4436
a(Vprairie
p4437
g3
tp4438
a(Vhome
p4439
g3
tp4440
a(Vcompanion
p4441
g3
tp4442
a(Vfirst
p4443
g3
tp4444
a(Vair
p4445
g3
tp4446
aa(lp4447
(Vwhat
p4448
g3
tp4449
a(Vgenres
p4450
g3
tp4451
a(Vdoes
p4452
g3
tp4453
a(Vmeet
p4454
g3
tp4455
a(Vthe
p4456
g3
tp4457
a(Vparents
p4458
g3
tp4459
a(Vconsist
p4460
g3
tp4461
a(Vof
p4462
g3
tp4463
aa(lp4464
(Vwhat
p4465
g3
tp4466
a(Vis
p4467
g3
tp4468
a(Vthe
p4469
g3
tp4470
a(Vmax
p4471
g3
tp4472
a(Vspeed
p4473
g3
tp4474
a(Vof
p4475
g3
tp4476
a(g15
g3
tp4477
a(Vgloster
p4478
g3
tp4479
a(Vmeteor
p4480
g3
tp4481
aa(lp4482
(Vwhat
p4483
g3
tp4484
a(Vposition
p4485
g3
tp4486
a(Vdoes
p4487
g3
tp4488
a(VColby
p4489
VORGANIZATION
p4490
tp4491
a(VArmstrong
p4492
VORGANIZATION
p4493
tp4494
a(Vplay
p4495
g3
tp4496
a(Von
p4497
g3
tp4498
a(Vthe
p4499
g3
tp4500
a(VToronto
p4501
VORGANIZATION
p4502
tp4503
a(VMaple
p4504
VORGANIZATION
p4505
tp4506
a(VLeafs
p4507
VORGANIZATION
p4508
tp4509
aa(lp4510
(Vhow
p4511
g3
tp4512
a(Vmany
p4513
g3
tp4514
a(Vcountries
p4515
g3
tp4516
a(Vare
p4517
g3
tp4518
a(Vin
p4519
g3
tp4520
a(Vthe
p4521
g3
tp4522
a(VEuropean
p4523
VLOCATION
p4524
tp4525
a(VUnion
p4526
VLOCATION
p4527
tp4528
aa(lp4529
(Vwhen
p4530
g3
tp4531
a(Vwas
p4532
g3
tp4533
a(VCivilization
p4534
g3
tp4535
a(Vfirst
p4536
g3
tp4537
a(Vreleased
p4538
g3
tp4539
aa(lp4540
(Von
p4541
g3
tp4542
a(Vwhat
p4543
g3
tp4544
a(Vnetwork
p4545
g3
tp4546
a(Vwas
p4547
g3
tp4548
a(VGilligan
p4549
VPERSON
p4550
tp4551
a(V's
p4552
g3
tp4553
a(VIsland
p4554
g3
tp4555
a(Vfirst
p4556
g3
tp4557
a(Vaired
p4558
g3
tp4559
aa(lp4560
(Vwhat
p4561
g3
tp4562
a(Vseries
p4563
g3
tp4564
a(Vdid
p4565
g3
tp4566
a(VTamora
p4567
VPERSON
p4568
tp4569
a(VPierce
p4570
VPERSON
p4571
tp4572
a(Vwrite
p4573
g3
tp4574
aa(lp4575
(Vwho
p4576
g3
tp4577
a(Vpresented
p4578
g3
tp4579
a(Vthe
p4580
g3
tp4581
a(VGettysburg
p4582
VLOCATION
p4583
tp4584
a(Vaddress
p4585
g3
tp4586
aa(lp4587
(Vwhat
p4588
g3
tp4589
a(Vis
p4590
g3
tp4591
a(Vthe
p4592
g3
tp4593
a(Vmascot
p4594
g3
tp4595
a(Vof
p4596
g3
tp4597
a(Vthe
p4598
g3
tp4599
a(VBoston
p4600
VORGANIZATION
p4601
tp4602
a(VRed
p4603
VORGANIZATION
p4604
tp4605
a(VSox
p4606
VORGANIZATION
p4607
tp4608
aa(lp4609
(Vwhen
p4610
g3
tp4611
a(Vwas
p4612
g3
tp4613
a(VCathy
p4614
VPERSON
p4615
tp4616
a(VLanders
p4617
VPERSON
p4618
tp4619
a(Vcertified
p4620
g3
tp4621
a(Vas
p4622
g3
tp4623
a(g15
g3
tp4624
a(Vfifth
p4625
g3
tp4626
a(Vdegree
p4627
g3
tp4628
a(Vblack
p4629
g3
tp4630
a(Vbelt
p4631
g3
tp4632
a(Vin
p4633
g3
tp4634
a(Vseishindo
p4635
g3
tp4636
a(Vkenpo
p4637
g3
tp4638
aa(lp4639
(Vhow
p4640
g3
tp4641
a(Vmany
p4642
g3
tp4643
a(Vlocations
p4644
g3
tp4645
a(Vare
p4646
g3
tp4647
a(Vthere
p4648
g3
tp4649
a(Von
p4650
g3
tp4651
a(Vfreebase
p4652
g3
tp4653
aa(lp4654
(Vwho
p4655
g3
tp4656
a(Vare
p4657
g3
tp4658
a(VGatorade
p4659
g3
tp4660
a(V's
p4661
g3
tp4662
a(Vmajor
p4663
g3
tp4664
a(Vsponsors
p4665
g3
tp4666
aa(lp4667
(Vwhat
p4668
g3
tp4669
a(Vis
p4670
g3
tp4671
a(Vthe
p4672
g3
tp4673
a(Vfuel
p4674
g3
tp4675
a(Veconomy
p4676
g3
tp4677
a(Vof
p4678
g3
tp4679
a(g15
g3
tp4680
a(V2008
p4681
g3
tp4682
a(VHyundai
p4683
g3
tp4684
a(VAccent
p4685
g3
tp4686
a(VGLS
p4687
g3
tp4688
a(Vsedan
p4689
g3
tp4690
a(Vin
p4691
g3
tp4692
a(Vthe
p4693
g3
tp4694
a(Vcity
p4695
g3
tp4696
aa(lp4697
(Vwhere
p4698
g3
tp4699
a(Vis
p4700
g3
tp4701
a(Vbetween
p4702
g3
tp4703
a(Vthe
p4704
g3
tp4705
a(Vlines
p4706
g3
tp4707
a(Vproduced
p4708
g3
tp4709
aa(lp4710
(Vwhen
p4711
g3
tp4712
a(Vwas
p4713
g3
tp4714
a(Vthe
p4715
g3
tp4716
a(VOreo
p4717
g3
tp4718
a(Vcookie
p4719
g3
tp4720
a(Vintroduced
p4721
g3
tp4722
aa(lp4723
(Vwhat
p4724
g3
tp4725
a(Vpositon
p4726
g3
tp4727
a(Vdoes
p4728
g3
tp4729
a(VRay
p4730
VPERSON
p4731
tp4732
a(VLewis
p4733
VPERSON
p4734
tp4735
a(Vcurrently
p4736
g3
tp4737
a(Vplay
p4738
g3
tp4739
a(Vfor
p4740
g3
tp4741
a(Vthe
p4742
g3
tp4743
a(Vbaltimore
p4744
g3
tp4745
a(Vravens
p4746
g3
tp4747
aa(lp4748
(Vto
p4749
g3
tp4750
a(Vwhom
p4751
g3
tp4752
a(Vis
p4753
g3
tp4754
a(Vinvisible
p4755
g3
tp4756
a(Vman
p4757
g3
tp4758
a(Vdedicated
p4759
g3
tp4760
aa(lp4761
(Vhow
p4762
g3
tp4763
a(Vis
p4764
g3
tp4765
a(Vsyphilis
p4766
g3
tp4767
a(Vtransmitted
p4768
g3
tp4769
aa(lp4770
(Vwhat
p4771
g3
tp4772
a(Vcharacters
p4773
g3
tp4774
a(Vsing
p4775
g3
tp4776
a(Vsoprano
p4777
g3
tp4778
a(Vin
p4779
g3
tp4780
a(VTristan
p4781
g3
tp4782
a(Vand
p4783
g3
tp4784
a(VIsolde
p4785
VPERSON
p4786
tp4787
aa(lp4788
(Vwhat
p4789
g3
tp4790
a(Vteam
p4791
g3
tp4792
a(Vdid
p4793
g3
tp4794
a(VRick
p4795
VPERSON
p4796
tp4797
a(VCarlisle
p4798
VPERSON
p4799
tp4800
a(Vcoach
p4801
g3
tp4802
a(Vin
p4803
g3
tp4804
a(V2002
p4805
g3
tp4806
aa(lp4807
(Vhow
p4808
g3
tp4809
a(Vmany
p4810
g3
tp4811
a(Vdialects
p4812
g3
tp4813
a(Vof
p4814
g3
tp4815
a(Varabic
p4816
g3
tp4817
a(Vare
p4818
g3
tp4819
a(Vthere
p4820
g3
tp4821
aa(lp4822
(Vwhen
p4823
g3
tp4824
a(Vdid
p4825
g3
tp4826
a(VInvertigo
p4827
VPERSON
p4828
tp4829
a(Vopen
p4830
g3
tp4831
aa(lp4832
(Vwhat
p4833
g3
tp4834
a(Vis
p4835
g3
tp4836
a(Vthe
p4837
g3
tp4838
a(Vmelting
p4839
g3
tp4840
a(Vpoint
p4841
g3
tp4842
a(Vof
p4843
g3
tp4844
a(Vgold
p4845
g3
tp4846
aa(lp4847
(Vwhat
p4848
g3
tp4849
a(Vis
p4850
g3
tp4851
a(Vthe
p4852
g3
tp4853
a(Vthinker
p4854
g3
tp4855
a(Vmade
p4856
g3
tp4857
a(Vof
p4858
g3
tp4859
aa(lp4860
(Vwho
p4861
g3
tp4862
a(Vdid
p4863
g3
tp4864
a(VJun
p4865
VPERSON
p4866
tp4867
a(VMatsumoto
p4868
VPERSON
p4869
tp4870
a(Vplay
p4871
g3
tp4872
a(Vin
p4873
g3
tp4874
a(Vhana
p4875
g3
tp4876
a(Vyori
p4877
g3
tp4878
a(Vdango
p4879
g3
tp4880
aa(lp4881
(Vhow
p4882
g3
tp4883
a(Vmany
p4884
g3
tp4885
a(Vcars
p4886
g3
tp4887
a(Vare
p4888
g3
tp4889
a(Vin
p4890
g3
tp4891
a(VJay
p4892
VPERSON
p4893
tp4894
a(VLeno
p4895
VPERSON
p4896
tp4897
a(V's
p4898
g3
tp4899
a(Vcar
p4900
g3
tp4901
a(Vcollection
p4902
g3
tp4903
aa(lp4904
(Vwhen
p4905
g3
tp4906
a(Vdid
p4907
g3
tp4908
a(Vcoronet
p4909
g3
tp4910
a(Vpeak
p4911
g3
tp4912
a(Vopen
p4913
g3
tp4914
aa(lp4915
(Vwhat
p4916
g3
tp4917
a(Vseries
p4918
g3
tp4919
a(Vwas
p4920
g3
tp4921
a(VGame
p4922
g3
tp4923
a(Vof
p4924
g3
tp4925
a(VThrones
p4926
g3
tp4927
a(Vadapted
p4928
g3
tp4929
a(Vfrom
p4930
g3
tp4931
aa(lp4932
(Vwhat
p4933
g3
tp4934
a(Vwas
p4935
g3
tp4936
a(Vthe
p4937
g3
tp4938
a(Vscience
p4939
g3
tp4940
a(Vof
p4941
g3
tp4942
a(Vsurvival
p4943
g3
tp4944
a(Vexhibit
p4945
g3
tp4946
a(Vabout
p4947
g3
tp4948
aa(lp4949
(Vhow
p4950
g3
tp4951
a(Vmany
p4952
g3
tp4953
a(Vlegal
p4954
g3
tp4955
a(Voffences
p4956
g3
tp4957
a(Vhas
p4958
g3
tp4959
a(VLindsey
p4960
VPERSON
p4961
tp4962
a(VLohan
p4963
VPERSON
p4964
tp4965
a(Vcommitted
p4966
g3
tp4967
aa(lp4968
(Vhow
p4969
g3
tp4970
a(Vmany
p4971
g3
tp4972
a(Vpeople
p4973
g3
tp4974
a(Vvisit
p4975
g3
tp4976
a(Vthe
p4977
g3
tp4978
a(VNew
p4979
VLOCATION
p4980
tp4981
a(VYork
p4982
VLOCATION
p4983
tp4984
a(Vpublic
p4985
g3
tp4986
a(Vlibrary
p4987
g3
tp4988
a(Vannually
p4989
g3
tp4990
aa(lp4991
(Vhow
p4992
g3
tp4993
a(Vmany
p4994
g3
tp4995
a(Vcomic
p4996
g3
tp4997
a(Vstories
p4998
g3
tp4999
a(Vhas
p5000
g3
tp5001
a(VAdrienne
p5002
VPERSON
p5003
tp5004
a(VRoy
p5005
VPERSON
p5006
tp5007
a(Vcolored
p5008
g3
tp5009
aa(lp5010
(Vwhat
p5011
g3
tp5012
a(Vgames
p5013
g3
tp5014
a(Vhas
p5015
g3
tp5016
a(VGarry
p5017
VPERSON
p5018
tp5019
a(VKasparov
p5020
VPERSON
p5021
tp5022
a(Vwon
p5023
g3
tp5024
aa(lp5025
(Vhow
p5026
g3
tp5027
a(Vtall
p5028
g3
tp5029
a(Vdo
p5030
g3
tp5031
a(Vyou
p5032
g3
tp5033
a(Vhave
p5034
g3
tp5035
a(Vto
p5036
g3
tp5037
a(Vbe
p5038
g3
tp5039
a(Vto
p5040
g3
tp5041
a(Vride
p5042
g3
tp5043
a(Vthe
p5044
g3
tp5045
a(Vamerican
p5046
g3
tp5047
a(Veagle
p5048
g3
tp5049
aa(lp5050
(V\ufeffwho
p5051
g3
tp5052
a(Vis
p5053
g3
tp5054
a(Vthe
p5055
g3
tp5056
a(Vhead
p5057
g3
tp5058
a(Vcoach
p5059
g3
tp5060
a(Vof
p5061
g3
tp5062
a(Vthe
p5063
g3
tp5064
a(VPittsburgh
p5065
VORGANIZATION
p5066
tp5067
a(VSteelers
p5068
VORGANIZATION
p5069
tp5070
aa(lp5071
(Vwhat
p5072
g3
tp5073
a(Vconditions
p5074
g3
tp5075
a(Vdoes
p5076
g3
tp5077
a(Vaspirin
p5078
g3
tp5079
a(Vtreat
p5080
g3
tp5081
aa(lp5082
(Vfor
p5083
g3
tp5084
a(Vwhat
p5085
g3
tp5086
a(Vteam
p5087
g3
tp5088
a(Vdoes
p5089
g3
tp5090
a(VFedor
p5091
VPERSON
p5092
tp5093
a(VTyutin
p5094
VPERSON
p5095
tp5096
a(Vplay
p5097
g3
tp5098
aa(lp5099
(Vhow
p5100
g3
tp5101
a(Vmany
p5102
g3
tp5103
a(Vtv
p5104
g3
tp5105
a(Vshows
p5106
g3
tp5107
a(Vwas
p5108
g3
tp5109
a(VRon
p5110
VPERSON
p5111
tp5112
a(VGlass
p5113
VPERSON
p5114
tp5115
a(Vin
p5116
g3
tp5117
aa(lp5118
(Vhow
p5119
g3
tp5120
a(Vmany
p5121
g3
tp5122
a(Vships
p5123
g3
tp5124
a(Vwere
p5125
g3
tp5126
a(Vbuilt
p5127
g3
tp5128
a(Vby
p5129
g3
tp5130
a(VBath
p5131
g3
tp5132
a(VIron
p5133
g3
tp5134
a(VWorks
p5135
g3
tp5136
aa(lp5137
(Vwho
p5138
g3
tp5139
a(Vwas
p5140
g3
tp5141
a(Vnominated
p5142
g3
tp5143
a(Vfor
p5144
g3
tp5145
a(Vthe
p5146
g3
tp5147
a(Vacademy
p5148
g3
tp5149
a(Vaward
p5150
g3
tp5151
a(Vfor
p5152
g3
tp5153
a(Vbest
p5154
g3
tp5155
a(Vdirector
p5156
g3
tp5157
a(Vin
p5158
g3
tp5159
a(V2011
p5160
g3
tp5161
aa(lp5162
(Vwhat
p5163
g3
tp5164
a(Vcharacter
p5165
g3
tp5166
a(Vsays
p5167
g3
tp5168
a(V``
p5169
g3
tp5170
a(Vi
p5171
g3
tp5172
a(V'll
p5173
g3
tp5174
a(Vbe
p5175
g3
tp5176
a(Vback
p5177
g3
tp5178
a(V''
p5179
g3
tp5180
aa(lp5181
(Vwhat
p5182
g3
tp5183
a(Vis
p5184
g3
tp5185
a(VBritney
p5186
VPERSON
p5187
tp5188
a(VSpears
p5189
VPERSON
p5190
tp5191
a(g2015
g3
tp5192
a(Vsexual
p5193
g3
tp5194
a(Vorientation
p5195
g3
tp5196
aa(lp5197
(Vhow
p5198
g3
tp5199
a(Vmany
p5200
g3
tp5201
a(Vengines
p5202
g3
tp5203
a(Vhave
p5204
g3
tp5205
a(g15
g3
tp5206
a(Vstraight-4
p5207
g3
tp5208
a(Vpiston
p5209
g3
tp5210
a(Vconfiguration
p5211
g3
tp5212
aa(lp5213
(Vwhat
p5214
g3
tp5215
a(Vplayers
p5216
g3
tp5217
a(Vscored
p5218
g3
tp5219
a(Vin
p5220
g3
tp5221
a(Vthe
p5222
g3
tp5223
a(V2006
p5224
g3
tp5225
a(VFIFA
p5226
VORGANIZATION
p5227
tp5228
a(Vworld
p5229
g3
tp5230
a(Vcup
p5231
g3
tp5232
a(Vfinal
p5233
g3
tp5234
aa(lp5235
(Vhow
p5236
g3
tp5237
a(Vmany
p5238
g3
tp5239
a(Vathletes
p5240
g3
tp5241
a(Vhave
p5242
g3
tp5243
a(Vgotten
p5244
g3
tp5245
a(Van
p5246
g3
tp5247
a(Volympic
p5248
g3
tp5249
a(Vgold
p5250
g3
tp5251
a(Vmedal
p5252
g3
tp5253
aa(lp5254
(Vwhat
p5255
g3
tp5256
a(Vmovies
p5257
g3
tp5258
a(Vwere
p5259
g3
tp5260
a(Vnominated
p5261
g3
tp5262
a(Vfor
p5263
g3
tp5264
a(Vfavorite
p5265
g3
tp5266
a(Vcomedy
p5267
g3
tp5268
a(Vmovie
p5269
g3
tp5270
aa(lp5271
(Vwho
p5272
g3
tp5273
a(Vlived
p5274
g3
tp5275
a(Vin
p5276
g3
tp5277
a(VFallingwater
p5278
VORGANIZATION
p5279
tp5280
aa(lp5281
(Vwho
p5282
g3
tp5283
a(Vdeveloped
p5284
g3
tp5285
a(Vcapri
p5286
g3
tp5287
a(Vsun
p5288
g3
tp5289
aa(lp5290
(Vwhat
p5291
g3
tp5292
a(Vlodges
p5293
g3
tp5294
a(Vare
p5295
g3
tp5296
a(Vin
p5297
g3
tp5298
a(Vthe
p5299
g3
tp5300
a(VAlta
p5301
VLOCATION
p5302
tp5303
a(Vski
p5304
g3
tp5305
a(Varea
p5306
g3
tp5307
aa(lp5308
(Vdoes
p5309
g3
tp5310
a(Vthe
p5311
g3
tp5312
a(VCanon
p5313
VORGANIZATION
p5314
tp5315
a(VPowershot
p5316
g3
tp5317
a(VA75
p5318
g3
tp5319
a(Vhave
p5320
g3
tp5321
a(Van
p5322
g3
tp5323
a(Vorientation
p5324
g3
tp5325
a(Vsensor
p5326
g3
tp5327
aa(lp5328
(Vhow
p5329
g3
tp5330
a(Vlong
p5331
g3
tp5332
a(Vis
p5333
g3
tp5334
a(VTitanic
p5335
g3
tp5336
a(V's
p5337
g3
tp5338
a(Vruntime
p5339
g3
tp5340
aa(lp5341
(Vwhat
p5342
g3
tp5343
a(Vteam
p5344
g3
tp5345
a(Vdoes
p5346
g3
tp5347
a(VMike
p5348
VPERSON
p5349
tp5350
a(VBrown
p5351
VPERSON
p5352
tp5353
a(Vcoach
p5354
g3
tp5355
aa(lp5356
(Vwhat
p5357
g3
tp5358
a(Vteam
p5359
g3
tp5360
a(Vdoes
p5361
g3
tp5362
a(VJoe
p5363
VPERSON
p5364
tp5365
a(VGirardi
p5366
VPERSON
p5367
tp5368
a(Vcurrently
p5369
g3
tp5370
a(Vmanage
p5371
g3
tp5372
aa(lp5373
(Vwhen
p5374
g3
tp5375
a(Vwas
p5376
g3
tp5377
a(Vcountry
p5378
g3
tp5379
a(Vtime
p5380
g3
tp5381
a(Vproduced
p5382
g3
tp5383
aa(lp5384
(Vwho
p5385
g3
tp5386
a(Vis
p5387
g3
tp5388
a(Vthe
p5389
g3
tp5390
a(Vceo
p5391
g3
tp5392
a(Vof
p5393
g3
tp5394
a(VApple
p5395
g3
tp5396
aa(lp5397
(Vhow
p5398
g3
tp5399
a(Vmany
p5400
g3
tp5401
a(Vcommanders
p5402
g3
tp5403
a(Vwere
p5404
g3
tp5405
a(Vthere
p5406
g3
tp5407
a(Vin
p5408
g3
tp5409
a(Vthe
p5410
g3
tp5411
a(Vcivil
p5412
g3
tp5413
a(Vwar
p5414
g3
tp5415
aa(lp5416
(Vwhen
p5417
g3
tp5418
a(Vdid
p5419
g3
tp5420
a(VFrancesco
p5421
VPERSON
p5422
tp5423
a(VSabatini
p5424
VPERSON
p5425
tp5426
a(Vstart
p5427
g3
tp5428
a(Vworking
p5429
g3
tp5430
a(Von
p5431
g3
tp5432
a(Vthe
p5433
g3
tp5434
a(Vpuerta
p5435
g3
tp5436
a(Vde
p5437
g3
tp5438
a(Vsan
p5439
g3
tp5440
a(Vvicente
p5441
g3
tp5442
aa(lp5443
(Vwhen
p5444
g3
tp5445
a(Vdid
p5446
g3
tp5447
a(VMartin
p5448
VPERSON
p5449
tp5450
a(VMargiela
p5451
VPERSON
p5452
tp5453
a(Vstart
p5454
g3
tp5455
a(Vdesigning
p5456
g3
tp5457
a(Vfor
p5458
g3
tp5459
a(Vherm
p5460
g3
tp5461
aa(lp5462
(Vwho
p5463
g3
tp5464
a(Vdirected
p5465
g3
tp5466
a(g1555
g3
tp5467
a(VFast
p5468
g3
tp5469
a(g1555
g3
tp5470
a(VFurious
p5471
g3
tp5472
aa(lp5473
(Vhow
p5474
g3
tp5475
a(Vmany
p5476
g3
tp5477
a(Vlanguages
p5478
g3
tp5479
a(Vhas
p5480
g3
tp5481
a(VJRRR
p5482
g3
tp5483
a(VTolkien
p5484
g3
tp5485
a(Vcreated
p5486
g3
tp5487
aa(lp5488
(Vwhat
p5489
g3
tp5490
a(Vtelescopes
p5491
g3
tp5492
a(Vdoes
p5493
g3
tp5494
a(Vthe
p5495
g3
tp5496
a(g1158
g3
tp5497
a(Vowell
p5498
g3
tp5499
a(Vobservatory
p5500
g3
tp5501
a(Vhave
p5502
g3
tp5503
aa(lp5504
(Vhow
p5505
g3
tp5506
a(Vlong
p5507
g3
tp5508
a(Vis
p5509
g3
tp5510
a(Vthe
p5511
g3
tp5512
a(Vtokyu
p5513
g3
tp5514
a(Vtamagawa
p5515
g3
tp5516
a(Vline
p5517
g3
tp5518
aa(lp5519
(Vwho
p5520
g3
tp5521
a(Vwas
p5522
g3
tp5523
a(Vthe
p5524
g3
tp5525
a(Vnewscaster
p5526
g3
tp5527
a(Vin
p5528
g3
tp5529
a(V1948
p5530
g3
tp5531
a(Von
p5532
g3
tp5533
a(VCBS
p5534
VORGANIZATION
p5535
tp5536
a(Vevening
p5537
g3
tp5538
a(Vnews
p5539
g3
tp5540
aa(lp5541
(Vwho
p5542
g3
tp5543
a(Vis
p5544
g3
tp5545
a(Vthe
p5546
g3
tp5547
a(Vmusic
p5548
g3
tp5549
a(Vby
p5550
g3
tp5551
a(Vin
p5552
g3
tp5553
a(Vbruce
p5554
g3
tp5555
a(Valmighty
p5556
g3
tp5557
aa(lp5558
(Vhow
p5559
g3
tp5560
a(Vmany
p5561
g3
tp5562
a(Vepisodes
p5563
g3
tp5564
a(Vdoes
p5565
g3
tp5566
a(Vsesame
p5567
g3
tp5568
a(Vstreet
p5569
g3
tp5570
a(Vhave
p5571
g3
tp5572
aa(lp5573
(Vwhat
p5574
g3
tp5575
a(Vis
p5576
g3
tp5577
a(Vthe
p5578
g3
tp5579
a(Varea
p5580
g3
tp5581
a(Vof
p5582
g3
tp5583
a(VAustralia
p5584
VLOCATION
p5585
tp5586
aa(lp5587
(Vwhat
p5588
g3
tp5589
a(Vis
p5590
g3
tp5591
a(Vthe
p5592
g3
tp5593
a(Vchemical
p5594
g3
tp5595
a(Vformula
p5596
g3
tp5597
a(Vfor
p5598
g3
tp5599
a(Vbutane
p5600
g3
tp5601
aa(lp5602
(Vhow
p5603
g3
tp5604
a(Vmany
p5605
g3
tp5606
a(Vseasons
p5607
g3
tp5608
a(Vof
p5609
g3
tp5610
a(Vsesame
p5611
g3
tp5612
a(Vstreet
p5613
g3
tp5614
a(Vare
p5615
g3
tp5616
a(Vthere
p5617
g3
tp5618
aa(lp5619
(Vwho
p5620
g3
tp5621
a(Vcreated
p5622
g3
tp5623
a(VSuperman
p5624
VPERSON
p5625
tp5626
aa(lp5627
(Vwhat
p5628
g3
tp5629
a(Vis
p5630
g3
tp5631
a(Vthe
p5632
g3
tp5633
a(Vruntime
p5634
g3
tp5635
a(Vfor
p5636
g3
tp5637
a(Vmeet
p5638
g3
tp5639
a(Vthe
p5640
g3
tp5641
a(Vparents
p5642
g3
tp5643
aa(lp5644
(Vwho
p5645
g3
tp5646
a(Vwas
p5647
g3
tp5648
a(Vthe
p5649
g3
tp5650
a(Vcasting
p5651
g3
tp5652
a(Vdirector
p5653
g3
tp5654
a(Vfor
p5655
g3
tp5656
a(Vmeet
p5657
g3
tp5658
a(Vthe
p5659
g3
tp5660
a(Vparents
p5661
g3
tp5662
aa(lp5663
(Vhow
p5664
g3
tp5665
a(Vmany
p5666
g3
tp5667
a(Vgenerations
p5668
g3
tp5669
a(Vof
p5670
g3
tp5671
a(Vthe
p5672
g3
tp5673
a(ViPod
p5674
g3
tp5675
a(Vare
p5676
g3
tp5677
a(Vthere
p5678
g3
tp5679
aa(lp5680
(Vhow
p5681
g3
tp5682
a(Vmany
p5683
g3
tp5684
a(Vawards
p5685
g3
tp5686
a(Vdid
p5687
g3
tp5688
a(VJack
p5689
VPERSON
p5690
tp5691
a(VAlbertson
p5692
VPERSON
p5693
tp5694
a(Vwin
p5695
g3
tp5696
aa(lp5697
(Vsince
p5698
g3
tp5699
a(Vwhen
p5700
g3
tp5701
a(Vhas
p5702
g3
tp5703
a(Vthe
p5704
g3
tp5705
a(Vcalifornia
p5706
g3
tp5707
a(Vgull
p5708
g3
tp5709
a(Vbeen
p5710
g3
tp5711
a(Vthe
p5712
g3
tp5713
a(Vstate
p5714
g3
tp5715
a(Vbird
p5716
g3
tp5717
a(Vof
p5718
g3
tp5719
a(VUtah
p5720
VLOCATION
p5721
tp5722
aa(lp5723
(Vwhat
p5724
g3
tp5725
a(Vare
p5726
g3
tp5727
a(Vthe
p5728
g3
tp5729
a(VNew
p5730
VORGANIZATION
p5731
tp5732
a(VYork
p5733
VORGANIZATION
p5734
tp5735
a(VGiants
p5736
VORGANIZATION
p5737
tp5738
a(Valso
p5739
g3
tp5740
a(Vknown
p5741
g3
tp5742
a(Vas
p5743
g3
tp5744
aa(lp5745
(Vwhen
p5746
g3
tp5747
a(Vwas
p5748
g3
tp5749
a(VUniversal
p5750
VORGANIZATION
p5751
tp5752
a(VStudios
p5753
VORGANIZATION
p5754
tp5755
a(VJapan
p5756
VORGANIZATION
p5757
tp5758
a(Vopened
p5759
g3
tp5760
aa(lp5761
(Vhow
p5762
g3
tp5763
a(Vmany
p5764
g3
tp5765
a(Vpeople
p5766
g3
tp5767
a(Vworked
p5768
g3
tp5769
a(Von
p5770
g3
tp5771
a(Vthe
p5772
g3
tp5773
a(Vdesign
p5774
g3
tp5775
a(Vand
p5776
g3
tp5777
a(Vconstruction
p5778
g3
tp5779
a(Vof
p5780
g3
tp5781
a(Vthe
p5782
g3
tp5783
a(VGolden
p5784
VLOCATION
p5785
tp5786
a(VGate
p5787
VLOCATION
p5788
tp5789
a(Vbridge
p5790
g3
tp5791
aa(lp5792
(Vdoes
p5793
g3
tp5794
a(Vdoom
p5795
g3
tp5796
a(Vhave
p5797
g3
tp5798
a(g15
g3
tp5799
a(Vmultiplayer
p5800
g3
tp5801
a(Vmode
p5802
g3
tp5803
aa(lp5804
(Vwhen
p5805
g3
tp5806
a(Vwas
p5807
g3
tp5808
a(VStarbucks
p5809
VORGANIZATION
p5810
tp5811
a(Vfounded
p5812
g3
tp5813
aa(lp5814
(Vhow
p5815
g3
tp5816
a(Vmuch
p5817
g3
tp5818
a(Vmoney
p5819
g3
tp5820
a(Vin
p5821
g3
tp5822
a(Vdamages
p5823
g3
tp5824
a(Vdid
p5825
g3
tp5826
a(Vthe
p5827
g3
tp5828
a(V1904
p5829
g3
tp5830
a(VToronto
p5831
VLOCATION
p5832
tp5833
a(Vfire
p5834
g3
tp5835
a(Vcost
p5836
g3
tp5837
aa(lp5838
(Vwhat
p5839
g3
tp5840
a(Vnewspapers
p5841
g3
tp5842
a(Vdoes
p5843
g3
tp5844
a(VCarnegie
p5845
VPERSON
p5846
tp5847
a(VMellon
p5848
VPERSON
p5849
tp5850
a(Vpublish
p5851
g3
tp5852
aa(lp5853
(Vhow
p5854
g3
tp5855
a(Vmany
p5856
g3
tp5857
a(Vschools
p5858
g3
tp5859
a(Vare
p5860
g3
tp5861
a(Vin
p5862
g3
tp5863
a(Vthe
p5864
g3
tp5865
a(Vschool
p5866
g3
tp5867
a(Vdistrict
p5868
g3
tp5869
a(Vof
p5870
g3
tp5871
a(VPhiladelphia
p5872
VLOCATION
p5873
tp5874
aa(lp5875
(Vwhat
p5876
g3
tp5877
a(Vrehab
p5878
g3
tp5879
a(Vfacilities
p5880
g3
tp5881
a(Vhas
p5882
g3
tp5883
a(VJerry
p5884
VPERSON
p5885
tp5886
a(VGarcia
p5887
VPERSON
p5888
tp5889
a(Vgone
p5890
g3
tp5891
a(Vto
p5892
g3
tp5893
aa(lp5894
(Vhow
p5895
g3
tp5896
a(Vmany
p5897
g3
tp5898
a(VPeabody
p5899
g3
tp5900
a(Vaward
p5901
g3
tp5902
a(Vwinners
p5903
g3
tp5904
a(Vare
p5905
g3
tp5906
a(Vthere
p5907
g3
tp5908
aa(lp5909
(Vhow
p5910
g3
tp5911
a(Vmany
p5912
g3
tp5913
a(Vgames
p5914
g3
tp5915
a(Vare
p5916
g3
tp5917
a(Vthere
p5918
g3
tp5919
a(Vfor
p5920
g3
tp5921
a(VNintendo
p5922
g3
tp5923
a(VDS
p5924
g3
tp5925
aa(lp5926
(Vwho
p5927
g3
tp5928
a(Vinvented
p5929
g3
tp5930
a(VScrabble
p5931
g3
tp5932
aa(lp5933
(Vwhere
p5934
g3
tp5935
a(Vwas
p5936
g3
tp5937
a(Vthe
p5938
g3
tp5939
a(Varmory
p5940
g3
tp5941
a(Vshow
p5942
g3
tp5943
a(Vexhibited
p5944
g3
tp5945
aa(lp5946
(Vwhat
p5947
g3
tp5948
a(Vstadium
p5949
g3
tp5950
a(Vdo
p5951
g3
tp5952
a(Vthe
p5953
g3
tp5954
a(VPhillies
p5955
VORGANIZATION
p5956
tp5957
a(Vplay
p5958
g3
tp5959
a(Vin
p5960
g3
tp5961
aa(lp5962
(Vwho
p5963
g3
tp5964
a(Vwas
p5965
g3
tp5966
a(Vthe
p5967
g3
tp5968
a(Vdirector
p5969
g3
tp5970
a(Vof
p5971
g3
tp5972
a(Vthe
p5973
g3
tp5974
a(Vnutty
p5975
g3
tp5976
a(Vprofessor
p5977
g3
tp5978
aa(lp5979
(Vwhat
p5980
g3
tp5981
a(Vis
p5982
g3
tp5983
a(Vthe
p5984
g3
tp5985
a(Vspin
p5986
g3
tp5987
a(Vof
p5988
g3
tp5989
a(g15
g3
tp5990
a(Vpositron
p5991
g3
tp5992
aa(lp5993
(Vhow
p5994
g3
tp5995
a(Vmany
p5996
g3
tp5997
a(Vbrands
p5998
g3
tp5999
a(Vdoes
p6000
g3
tp6001
a(VSara
p6002
VPERSON
p6003
tp6004
a(VLee
p6005
VPERSON
p6006
tp6007
a(Vown
p6008
g3
tp6009
aa(lp6010
(Vwho
p6011
g3
tp6012
a(Vwas
p6013
g3
tp6014
a(Vthe
p6015
g3
tp6016
a(V22nd
p6017
g3
tp6018
a(Vpresident
p6019
g3
tp6020
aa(lp6021
(Vwhat
p6022
g3
tp6023
a(Vgenre
p6024
g3
tp6025
a(Vis
p6026
g3
tp6027
a(Vthe
p6028
g3
tp6029
a(Vhound
p6030
g3
tp6031
a(Vof
p6032
g3
tp6033
a(Vthe
p6034
g3
tp6035
a(Vbaskervilles
p6036
g3
tp6037
aa(lp6038
(Vwhat
p6039
g3
tp6040
a(Vis
p6041
g3
tp6042
a(Vthe
p6043
g3
tp6044
a(Vdry
p6045
g3
tp6046
a(Vmass
p6047
g3
tp6048
a(Vof
p6049
g3
tp6050
a(Vthe
p6051
g3
tp6052
a(VHubble
p6053
g3
tp6054
a(Vspace
p6055
g3
tp6056
a(Vtelescope
p6057
g3
tp6058
aa(lp6059
(Vwhat
p6060
g3
tp6061
a(Vare
p6062
g3
tp6063
a(Vsome
p6064
g3
tp6065
a(Vexamples
p6066
g3
tp6067
a(Vof
p6068
g3
tp6069
a(g15
g3
tp6070
a(Vroad
p6071
g3
tp6072
a(Vbike
p6073
g3
tp6074
aa(lp6075
(Vwhat
p6076
g3
tp6077
a(Vparticles
p6078
g3
tp6079
a(Vare
p6080
g3
tp6081
a(Vin
p6082
g3
tp6083
a(Vthe
p6084
g3
tp6085
a(Vlepton
p6086
g3
tp6087
a(Vfamily
p6088
g3
tp6089
aa(lp6090
(Vwhat
p6091
g3
tp6092
a(Vcategory
p6093
g3
tp6094
a(Vdoes
p6095
g3
tp6096
a(Vthe
p6097
g3
tp6098
a(Vfilm
p6099
g3
tp6100
a(Vdomain
p6101
g3
tp6102
a(Vbelong
p6103
g3
tp6104
a(Vto
p6105
g3
tp6106
aa(lp6107
(Vwhat
p6108
g3
tp6109
a(Vrock
p6110
g3
tp6111
a(Vis
p6112
g3
tp6113
a(Vgruta
p6114
g3
tp6115
a(Vdas
p6116
g3
tp6117
a(Vtorres
p6118
g3
tp6119
a(Vmade
p6120
g3
tp6121
a(Vof
p6122
g3
tp6123
aa(lp6124
(Vwhat
p6125
g3
tp6126
a(Vprocessor
p6127
g3
tp6128
a(Vdid
p6129
g3
tp6130
a(Vthe
p6131
g3
tp6132
a(VApple
p6133
g3
tp6134
a(Vii
p6135
g3
tp6136
a(Vuse
p6137
g3
tp6138
aa(lp6139
(Vwhen
p6140
g3
tp6141
a(Vis
p6142
g3
tp6143
a(VJerry
p6144
VPERSON
p6145
tp6146
a(VSeinfeld
p6147
VPERSON
p6148
tp6149
a(V's
p6150
g3
tp6151
a(Vbirthday
p6152
g3
tp6153
aa(lp6154
(Vwhat
p6155
g3
tp6156
a(Vlanguage
p6157
g3
tp6158
a(Vis
p6159
g3
tp6160
a(Vtagliablog
p6161
g3
tp6162
a(Vin
p6163
g3
tp6164
aa(lp6165
(Vwho
p6166
g3
tp6167
a(Vproduced
p6168
g3
tp6169
a(Vthe
p6170
g3
tp6171
a(Vthree
p6172
g3
tp6173
a(Vdoctors
p6174
g3
tp6175
aa(lp6176
(Vwho
p6177
g3
tp6178
a(Vmanufactured
p6179
g3
tp6180
a(Vthe
p6181
g3
tp6182
a(Vspace
p6183
g3
tp6184
a(Vshuttle
p6185
g3
tp6186
a(Vdiscovery
p6187
g3
tp6188
aa(lp6189
(Vwhat
p6190
g3
tp6191
a(Vis
p6192
g3
tp6193
a(Vthe
p6194
g3
tp6195
a(Vpopulation
p6196
g3
tp6197
a(Vof
p6198
g3
tp6199
a(VAsia
p6200
VLOCATION
p6201
tp6202
aa(lp6203
(Vhow
p6204
g3
tp6205
a(Vmany
p6206
g3
tp6207
a(Vareas
p6208
g3
tp6209
a(Vwere
p6210
g3
tp6211
a(Vaffected
p6212
g3
tp6213
a(Vby
p6214
g3
tp6215
a(Vhurricane
p6216
g3
tp6217
a(VIvan
p6218
VPERSON
p6219
tp6220
aa(lp6221
(Vwhen
p6222
g3
tp6223
a(Vwas
p6224
g3
tp6225
a(Vkid_s
p6226
g3
tp6227
a(Vcorner
p6228
g3
tp6229
a(Vfirst
p6230
g3
tp6231
a(Vbroadcast
p6232
g3
tp6233
aa(lp6234
(Vwhat
p6235
g3
tp6236
a(Vis
p6237
g3
tp6238
a(Vcurrency
p6239
g3
tp6240
a(Vcode
p6241
g3
tp6242
a(Vfor
p6243
g3
tp6244
a(Vthe
p6245
g3
tp6246
a(Vmexican
p6247
g3
tp6248
a(Vpeso
p6249
g3
tp6250
aa(lp6251
(Vwhat
p6252
g3
tp6253
a(Vlanguages
p6254
g3
tp6255
a(Vuse
p6256
g3
tp6257
a(Vbengali
p6258
g3
tp6259
a(Vscript
p6260
g3
tp6261
aa(lp6262
(Vhow
p6263
g3
tp6264
a(Vtall
p6265
g3
tp6266
a(Vis
p6267
g3
tp6268
a(VMount
p6269
VLOCATION
p6270
tp6271
a(VEverest
p6272
VLOCATION
p6273
tp6274
aa(lp6275
(Vwho
p6276
g3
tp6277
a(Vare
p6278
g3
tp6279
a(Vthe
p6280
g3
tp6281
a(Vhosts
p6282
g3
tp6283
a(Vof
p6284
g3
tp6285
a(Vcar
p6286
g3
tp6287
a(Vtalk
p6288
g3
tp6289
aa(lp6290
(Vwhere
p6291
g3
tp6292
a(Vwas
p6293
g3
tp6294
a(VHenry
p6295
VPERSON
p6296
tp6297
a(VIII
p6298
VPERSON
p6299
tp6300
a(Vburied
p6301
g3
tp6302
aa(lp6303
(Vwho
p6304
g3
tp6305
a(Vmanufactures
p6306
g3
tp6307
a(Vthe
p6308
g3
tp6309
a(Vt-38
p6310
g3
tp6311
a(Vtalon
p6312
g3
tp6313
aa(lp6314
(Vwhat
p6315
g3
tp6316
a(Vaward
p6317
g3
tp6318
a(Vdoes
p6319
g3
tp6320
a(Vthe
p6321
g3
tp6322
a(Vroyal
p6323
g3
tp6324
a(Vinstitute
p6325
g3
tp6326
a(Vof
p6327
g3
tp6328
a(Vbritish
p6329
g3
tp6330
a(Varchitects
p6331
g3
tp6332
a(Vpresent
p6333
g3
tp6334
aa(lp6335
(Vhow
p6336
g3
tp6337
a(Vmany
p6338
g3
tp6339
a(Vorders
p6340
g3
tp6341
a(Vdid
p6342
g3
tp6343
a(Vqueen
p6344
g3
tp6345
a(VVictoria
p6346
VPERSON
p6347
tp6348
a(Vfound
p6349
g3
tp6350
aa(lp6351
(Vwhat
p6352
g3
tp6353
a(Vwas
p6354
g3
tp6355
a(VRobert
p6356
VPERSON
p6357
tp6358
a(VOppenheimer
p6359
VPERSON
p6360
tp6361
a(V's
p6362
g3
tp6363
a(Vrole
p6364
g3
tp6365
a(Vin
p6366
g3
tp6367
a(Vthe
p6368
g3
tp6369
a(VManhattan
p6370
VLOCATION
p6371
tp6372
a(Vproject
p6373
g3
tp6374
aa(lp6375
(Vwho
p6376
g3
tp6377
a(Vare
p6378
g3
tp6379
a(Vthe
p6380
g3
tp6381
a(Vplayers
p6382
g3
tp6383
a(Vcurrently
p6384
g3
tp6385
a(Von
p6386
g3
tp6387
a(Vthe
p6388
g3
tp6389
a(VLos
p6390
VORGANIZATION
p6391
tp6392
a(VAngeles
p6393
VORGANIZATION
p6394
tp6395
a(VDodgers
p6396
VORGANIZATION
p6397
tp6398
aa(lp6399
(Vwhat
p6400
g3
tp6401
a(Vreligion
p6402
g3
tp6403
a(Vdid
p6404
g3
tp6405
a(VMartin
p6406
VPERSON
p6407
tp6408
a(VLuther
p6409
VPERSON
p6410
tp6411
a(Vfound
p6412
g3
tp6413
aa(lp6414
(Vwhat
p6415
g3
tp6416
a(Vcharacter
p6417
g3
tp6418
a(Vwas
p6419
g3
tp6420
a(Vborn
p6421
g3
tp6422
a(Vin
p6423
g3
tp6424
a(VGotham
p6425
VLOCATION
p6426
tp6427
a(Vcity
p6428
g3
tp6429
aa(lp6430
(Vhow
p6431
g3
tp6432
a(Vmuch
p6433
g3
tp6434
a(Vprotein
p6435
g3
tp6436
a(Vis
p6437
g3
tp6438
a(Vin
p6439
g3
tp6440
a(Vquinoa
p6441
g3
tp6442
aa(lp6443
(Vwhen
p6444
g3
tp6445
a(Vwas
p6446
g3
tp6447
a(Vthe
p6448
g3
tp6449
a(Vmovie
p6450
g3
tp6451
a(Vbig
p6452
g3
tp6453
a(Vdaddy
p6454
g3
tp6455
a(Vreleased
p6456
g3
tp6457
aa(lp6458
(Vwhat
p6459
g3
tp6460
a(Vcity
p6461
g3
tp6462
a(Vhosted
p6463
g3
tp6464
a(Vthe
p6465
g3
tp6466
a(V1948
p6467
g3
tp6468
a(Vsummer
p6469
g3
tp6470
a(Volympics
p6471
g3
tp6472
aa(lp6473
(Vhow
p6474
g3
tp6475
a(Vmany
p6476
g3
tp6477
a(Vbeers
p6478
g3
tp6479
a(Vare
p6480
g3
tp6481
a(Vthere
p6482
g3
tp6483
a(Von
p6484
g3
tp6485
a(Vfreebase
p6486
g3
tp6487
aa(lp6488
(Vwhen
p6489
g3
tp6490
a(Vwas
p6491
g3
tp6492
a(VTarget
p6493
g3
tp6494
a(Vfounded
p6495
g3
tp6496
aa(lp6497
(Vhow
p6498
g3
tp6499
a(Vmany
p6500
g3
tp6501
a(Vcountries
p6502
g3
tp6503
a(Vuse
p6504
g3
tp6505
a(VUK
p6506
VLOCATION
p6507
tp6508
a(Vmoney
p6509
g3
tp6510
aa(lp6511
(Vwhat
p6512
g3
tp6513
a(Vare
p6514
g3
tp6515
a(VColumbia
p6516
VORGANIZATION
p6517
tp6518
a(VUniversity
p6519
VORGANIZATION
p6520
tp6521
a(V's
p6522
g3
tp6523
a(Vcolors
p6524
g3
tp6525
aa(lp6526
(Vwhat
p6527
g3
tp6528
a(Vinstrument
p6529
g3
tp6530
a(Vdid
p6531
g3
tp6532
a(VLightnin
p6533
VPERSON
p6534
tp6535
a(g2015
g3
tp6536
a(VHopkins
p6537
VPERSON
p6538
tp6539
a(Vplay
p6540
g3
tp6541
aa(lp6542
(Vwhat
p6543
g3
tp6544
a(Vare
p6545
g3
tp6546
a(Vthe
p6547
g3
tp6548
a(Vpractices
p6549
g3
tp6550
a(Vof
p6551
g3
tp6552
a(Vsikhism
p6553
g3
tp6554
aa(lp6555
(Vhow
p6556
g3
tp6557
a(Vmany
p6558
g3
tp6559
a(Vpeople
p6560
g3
tp6561
a(Vblog
p6562
g3
tp6563
a(Von
p6564
g3
tp6565
a(Vbeyond
p6566
g3
tp6567
a(Vrobson
p6568
g3
tp6569
aa(lp6570
(Vhow
p6571
g3
tp6572
a(Vmany
p6573
g3
tp6574
a(Vindustries
p6575
g3
tp6576
a(Vdoes
p6577
g3
tp6578
a(VWalmart
p6579
VORGANIZATION
p6580
tp6581
a(Vconsist
p6582
g3
tp6583
a(Vof
p6584
g3
tp6585
aa(lp6586
(Vwhat
p6587
g3
tp6588
a(Vis
p6589
g3
tp6590
a(Vthe
p6591
g3
tp6592
a(Vpopulation
p6593
g3
tp6594
a(Vin
p6595
g3
tp6596
a(VIowa
p6597
VLOCATION
p6598
tp6599
aa(lp6600
(Vwhere
p6601
g3
tp6602
a(Vdoes
p6603
g3
tp6604
a(Vthe
p6605
g3
tp6606
a(Vmarket-frankford
p6607
g3
tp6608
a(Vline
p6609
g3
tp6610
a(Vstop
p6611
g3
tp6612
aa(lp6613
(Vwhat
p6614
g3
tp6615
a(Vare
p6616
g3
tp6617
a(Vthe
p6618
g3
tp6619
a(Vsubclasses
p6620
g3
tp6621
a(Vof
p6622
g3
tp6623
a(Vthe
p6624
g3
tp6625
a(Vboson
p6626
g3
tp6627
a(Vclass
p6628
g3
tp6629
aa(lp6630
(Vhow
p6631
g3
tp6632
a(Vlong
p6633
g3
tp6634
a(Vis
p6635
g3
tp6636
a(Vthe
p6637
g3
tp6638
a(VGolden
p6639
VLOCATION
p6640
tp6641
a(VGate
p6642
VLOCATION
p6643
tp6644
a(Vbridge
p6645
g3
tp6646
aa(lp6647
(Vhow
p6648
g3
tp6649
a(Vmany
p6650
g3
tp6651
a(Vboats
p6652
g3
tp6653
a(Vdoes
p6654
g3
tp6655
a(Vthe
p6656
g3
tp6657
a(Vroyal
p6658
g3
tp6659
a(Vnavy
p6660
g3
tp6661
a(Vown
p6662
g3
tp6663
aa(lp6664
(Vwhere
p6665
g3
tp6666
a(Vwas
p6667
g3
tp6668
a(VLuke
p6669
VPERSON
p6670
tp6671
a(VSkywalker
p6672
VPERSON
p6673
tp6674
a(Vborn
p6675
g3
tp6676
aa(lp6677
(Vwho
p6678
g3
tp6679
a(Vwas
p6680
g3
tp6681
a(Vthe
p6682
g3
tp6683
a(Vstory
p6684
g3
tp6685
a(Vof
p6686
g3
tp6687
a(Vcharlie_s
p6688
g3
tp6689
a(Vangels
p6690
g3
tp6691
a(Vby
p6692
g3
tp6693
aa(lp6694
(Vwhat
p6695
g3
tp6696
a(Vwas
p6697
g3
tp6698
a(Vthe
p6699
g3
tp6700
a(VManhattan
p6701
VLOCATION
p6702
tp6703
a(Vproject
p6704
g3
tp6705
a(Vabout
p6706
g3
tp6707
aa(lp6708
(Vwhat
p6709
g3
tp6710
a(Vparty
p6711
g3
tp6712
a(Vdid
p6713
g3
tp6714
a(VGrover
p6715
VPERSON
p6716
tp6717
a(VCleveland
p6718
VPERSON
p6719
tp6720
a(Vbelong
p6721
g3
tp6722
a(Vto
p6723
g3
tp6724
aa(lp6725
(Vwhat
p6726
g3
tp6727
a(Vis
p6728
g3
tp6729
a(Vthe
p6730
g3
tp6731
a(Vpassenger
p6732
g3
tp6733
a(Vcapacity
p6734
g3
tp6735
a(Vof
p6736
g3
tp6737
a(g15
g3
tp6738
a(VCessna
p6739
VORGANIZATION
p6740
tp6741
a(VCitation
p6742
VORGANIZATION
p6743
tp6744
a(VX
p6745
VORGANIZATION
p6746
tp6747
aa(lp6748
(Vwhen
p6749
g3
tp6750
a(Vwas
p6751
g3
tp6752
a(VPanasonic
p6753
VORGANIZATION
p6754
tp6755
a(Vcorporation
p6756
g3
tp6757
a(Vfounded
p6758
g3
tp6759
aa(lp6760
(Vwho
p6761
g3
tp6762
a(Vgot
p6763
g3
tp6764
a(Vthe
p6765
g3
tp6766
a(Vgold
p6767
g3
tp6768
a(Vmedal
p6769
g3
tp6770
a(Vin
p6771
g3
tp6772
a(Vmen_s
p6773
g3
tp6774
a(Vsingles
p6775
g3
tp6776
a(Vtennis
p6777
g3
tp6778
a(Vat
p6779
g3
tp6780
a(Vthe
p6781
g3
tp6782
a(V1896
p6783
g3
tp6784
a(Vsummer
p6785
g3
tp6786
a(Volympics
p6787
g3
tp6788
aa(lp6789
(Vin
p6790
g3
tp6791
a(Vwhat
p6792
g3
tp6793
a(Vyear
p6794
g3
tp6795
a(Vdid
p6796
g3
tp6797
a(Vharry
p6798
g3
tp6799
a(Vpotter
p6800
g3
tp6801
a(Vand
p6802
g3
tp6803
a(Vthe
p6804
g3
tp6805
a(Vgoblet
p6806
g3
tp6807
a(Vof
p6808
g3
tp6809
a(Vfire
p6810
g3
tp6811
a(Vwin
p6812
g3
tp6813
a(Vthe
p6814
g3
tp6815
a(Vhugo
p6816
g3
tp6817
a(Vaward
p6818
g3
tp6819
a(Vfor
p6820
g3
tp6821
a(Vbest
p6822
g3
tp6823
a(Vnovel
p6824
g3
tp6825
aa(lp6826
(Vhow
p6827
g3
tp6828
a(Vmany
p6829
g3
tp6830
a(Vdinosaur
p6831
g3
tp6832
a(Vspecies
p6833
g3
tp6834
a(Vare
p6835
g3
tp6836
a(Vthere
p6837
g3
tp6838
a(Vin
p6839
g3
tp6840
a(Vnorth
p6841
g3
tp6842
a(Vamerica
p6843
g3
tp6844
aa(lp6845
(Vwhat
p6846
g3
tp6847
a(Vis
p6848
g3
tp6849
a(Vthe
p6850
g3
tp6851
a(Vparent
p6852
g3
tp6853
a(Vdisease
p6854
g3
tp6855
a(Vof
p6856
g3
tp6857
a(g15
g3
tp6858
a(Vstroke
p6859
g3
tp6860
aa(lp6861
(Vwho
p6862
g3
tp6863
a(Vdirected
p6864
g3
tp6865
a(V13
p6866
g3
tp6867
a(Vgoing
p6868
g3
tp6869
a(Von
p6870
g3
tp6871
a(V30
p6872
g3
tp6873
aa(lp6874
(Vwhat
p6875
g3
tp6876
a(Vteam
p6877
g3
tp6878
a(Vdoes
p6879
g3
tp6880
a(VDennis
p6881
VPERSON
p6882
tp6883
a(VBergkamp
p6884
VPERSON
p6885
tp6886
a(Vplay
p6887
g3
tp6888
a(Vfor
p6889
g3
tp6890
aa(lp6891
(Vin
p6892
g3
tp6893
a(Vhow
p6894
g3
tp6895
a(Vmany
p6896
g3
tp6897
a(Vmilitary
p6898
g3
tp6899
a(Vconflicts
p6900
g3
tp6901
a(Vdid
p6902
g3
tp6903
a(VMussolini
p6904
VPERSON
p6905
tp6906
a(Vcommand
p6907
g3
tp6908
aa(lp6909
(Vwhat
p6910
g3
tp6911
a(Vstructures
p6912
g3
tp6913
a(Vdid
p6914
g3
tp6915
a(VFrank
p6916
VPERSON
p6917
tp6918
a(VLloyd
p6919
VPERSON
p6920
tp6921
a(Vwright
p6922
g3
tp6923
a(Vdesign
p6924
g3
tp6925
aa(lp6926
(Vin
p6927
g3
tp6928
a(Vwhat
p6929
g3
tp6930
a(Vtime
p6931
g3
tp6932
a(Vzone
p6933
g3
tp6934
a(Vis
p6935
g3
tp6936
a(VIllinois
p6937
VLOCATION
p6938
tp6939
aa(lp6940
(Vwho
p6941
g3
tp6942
a(Vare
p6943
g3
tp6944
a(Vthe
p6945
g3
tp6946
a(Vmain
p6947
g3
tp6948
a(Vcast
p6949
g3
tp6950
a(Vmembers
p6951
g3
tp6952
a(Vof
p6953
g3
tp6954
a(Vsesame
p6955
g3
tp6956
a(Vstreet
p6957
g3
tp6958
aa(lp6959
(Vwho
p6960
g3
tp6961
a(Vare
p6962
g3
tp6963
a(Vthe
p6964
g3
tp6965
a(Vcharacters
p6966
g3
tp6967
a(Vin
p6968
g3
tp6969
a(VTo
p6970
g3
tp6971
a(VKill
p6972
g3
tp6973
a(g15
g3
tp6974
a(VMockingbird
p6975
g3
tp6976
aa(lp6977
(Vwho
p6978
g3
tp6979
a(Vare
p6980
g3
tp6981
a(Vthe
p6982
g3
tp6983
a(Vstudents
p6984
g3
tp6985
a(Vof
p6986
g3
tp6987
a(VBruce
p6988
VPERSON
p6989
tp6990
a(VLee
p6991
VPERSON
p6992
tp6993
aa(lp6994
(Vhow
p6995
g3
tp6996
a(Vtall
p6997
g3
tp6998
a(Vwas
p6999
g3
tp7000
a(Vseabiscuit
p7001
g3
tp7002
aa(lp7003
(Vwho
p7004
g3
tp7005
a(Vwon
p7006
g3
tp7007
a(V<
p7008
g3
tp7009
a(Vuhammad
p7010
g3
tp7011
a(VAli
p7012
VPERSON
p7013
tp7014
a(Vvs.
p7015
g3
tp7016
a(VJoe
p7017
VPERSON
p7018
tp7019
a(VFrazier
p7020
VPERSON
p7021
tp7022
a(VII
p7023
VPERSON
p7024
tp7025
aa(lp7026
(Vwhat
p7027
g3
tp7028
a(Vis
p7029
g3
tp7030
a(Vthe
p7031
g3
tp7032
a(Vengine
p7033
g3
tp7034
a(Vin
p7035
g3
tp7036
a(g15
g3
tp7037
a(V2010
p7038
g3
tp7039
a(VFerrari
p7040
VLOCATION
p7041
tp7042
a(VCalifornia
p7043
VLOCATION
p7044
tp7045
aa(lp7046
(Vhow
p7047
g3
tp7048
a(Vmany
p7049
g3
tp7050
a(Vother
p7051
g3
tp7052
a(Vnames
p7053
g3
tp7054
a(Vis
p7055
g3
tp7056
a(VPanasonic
p7057
VORGANIZATION
p7058
tp7059
a(Vcorporation
p7060
g3
tp7061
a(Vknown
p7062
g3
tp7063
a(Vby
p7064
g3
tp7065
aa(lp7066
(Vwhat
p7067
g3
tp7068
a(Vgenre
p7069
g3
tp7070
a(Vdid
p7071
g3
tp7072
a(VLil
p7073
VPERSON
p7074
tp7075
a(VHardin
p7076
VPERSON
p7077
tp7078
a(VArmstrong
p7079
VPERSON
p7080
tp7081
a(Vrepresent
p7082
g3
tp7083
aa(lp7084
(Vwhat
p7085
g3
tp7086
a(Vis
p7087
g3
tp7088
a(Vcurrency
p7089
g3
tp7090
a(Vcode
p7091
g3
tp7092
a(Vfor
p7093
g3
tp7094
a(Vthe
p7095
g3
tp7096
a(Vjapanese
p7097
g3
tp7098
a(Vyen
p7099
g3
tp7100
aa(lp7101
(Vwhat
p7102
g3
tp7103
a(Vwas
p7104
g3
tp7105
a(Vthe
p7106
g3
tp7107
a(Vfawlty
p7108
g3
tp7109
a(Vtowers
p7110
g3
tp7111
a(Vepisode
p7112
g3
tp7113
a(Vafter
p7114
g3
tp7115
a(Vthe
p7116
g3
tp7117
a(Vpsychiatrist
p7118
g3
tp7119
aa(lp7120
(Vwho
p7121
g3
tp7122
a(Vis
p7123
g3
tp7124
a(Vthe
p7125
g3
tp7126
a(Vpresident
p7127
g3
tp7128
a(Vof
p7129
g3
tp7130
a(VGAP
p7131
g3
tp7132
a(g68
g3
tp7133
a(Vinc
p7134
g3
tp7135
a(g489
g3
tp7136
aa(lp7137
(Vwhat
p7138
g3
tp7139
a(Vchemical
p7140
g3
tp7141
a(Vseries
p7142
g3
tp7143
a(Vis
p7144
g3
tp7145
a(Vtungsten
p7146
g3
tp7147
a(Vin
p7148
g3
tp7149
aa(lp7150
(Vhow
p7151
g3
tp7152
a(Vmany
p7153
g3
tp7154
a(Vworks
p7155
g3
tp7156
a(Vhave
p7157
g3
tp7158
a(Vbeen
p7159
g3
tp7160
a(Vset
p7161
g3
tp7162
a(Von
p7163
g3
tp7164
a(Vthe
p7165
g3
tp7166
a(Vmoon
p7167
g3
tp7168
aa(lp7169
(Vwhen
p7170
g3
tp7171
a(Vwas
p7172
g3
tp7173
a(VJcpenney
p7174
VORGANIZATION
p7175
tp7176
a(Vfounded
p7177
g3
tp7178
aa(lp7179
(Vwhat
p7180
g3
tp7181
a(Vis
p7182
g3
tp7183
a(Vthe
p7184
g3
tp7185
a(Vsetting
p7186
g3
tp7187
a(Vof
p7188
g3
tp7189
a(Vthe
p7190
g3
tp7191
a(Vmagician_s
p7192
g3
tp7193
a(Vnephew
p7194
g3
tp7195
aa(lp7196
(Vwho
p7197
g3
tp7198
a(Vproduces
p7199
g3
tp7200
a(Vmeet
p7201
g3
tp7202
a(Vthe
p7203
g3
tp7204
a(Vpress
p7205
g3
tp7206
aa(lp7207
(Vwhen
p7208
g3
tp7209
a(Vdid
p7210
g3
tp7211
a(VJack
p7212
VPERSON
p7213
tp7214
a(VAlbertson
p7215
VPERSON
p7216
tp7217
a(Vdie
p7218
VPERSON
p7219
tp7220
aa(lp7221
(Vwhat
p7222
g3
tp7223
a(Vtv
p7224
g3
tp7225
a(Vprograms
p7226
g3
tp7227
a(Vhas
p7228
g3
tp7229
a(VHugh
p7230
VPERSON
p7231
tp7232
a(VLaurie
p7233
VPERSON
p7234
tp7235
a(Vcreated
p7236
g3
tp7237
aa(lp7238
(Vhow
p7239
g3
tp7240
a(Vmany
p7241
g3
tp7242
a(Vbreeds
p7243
g3
tp7244
a(Vare
p7245
g3
tp7246
a(Vin
p7247
g3
tp7248
a(Vthe
p7249
g3
tp7250
a(Vsporting
p7251
g3
tp7252
a(Vgroup
p7253
g3
tp7254
a(Vof
p7255
g3
tp7256
a(Vthe
p7257
g3
tp7258
a(VAmerican
p7259
VORGANIZATION
p7260
tp7261
a(VKennel
p7262
VORGANIZATION
p7263
tp7264
a(VClub
p7265
VORGANIZATION
p7266
tp7267
aa(lp7268
(Vhow
p7269
g3
tp7270
a(Vmany
p7271
g3
tp7272
a(Vvisitors
p7273
g3
tp7274
a(Vdoes
p7275
g3
tp7276
a(VMammoth
p7277
VLOCATION
p7278
tp7279
a(VCave
p7280
VLOCATION
p7281
tp7282
a(VNational
p7283
VLOCATION
p7284
tp7285
a(VPark
p7286
VLOCATION
p7287
tp7288
a(Vget
p7289
g3
tp7290
a(Vin
p7291
g3
tp7292
a(g15
g3
tp7293
a(Vyear
p7294
g3
tp7295
aa(lp7296
(Vhow
p7297
g3
tp7298
a(Vmany
p7299
g3
tp7300
a(Vanimals
p7301
g3
tp7302
a(Vare
p7303
g3
tp7304
a(Vthere
p7305
g3
tp7306
a(Vat
p7307
g3
tp7308
a(Vthe
p7309
g3
tp7310
a(VLondon
p7311
VLOCATION
p7312
tp7313
a(Vzoo
p7314
g3
tp7315
aa(lp7316
(Vwhere
p7317
g3
tp7318
a(Vis
p7319
g3
tp7320
a(VIndependence
p7321
g3
tp7322
a(VHall
p7323
g3
tp7324
a(Vlocated
p7325
g3
tp7326
aa(lp7327
(Vwhen
p7328
g3
tp7329
a(Vwas
p7330
g3
tp7331
a(VMark
p7332
VPERSON
p7333
tp7334
a(VMcKinney
p7335
VPERSON
p7336
tp7337
a(Vborn
p7338
g3
tp7339
aa(lp7340
(Vwhen
p7341
g3
tp7342
a(Vwere
p7343
g3
tp7344
a(VRitz
p7345
VPERSON
p7346
tp7347
a(Vcrackers
p7348
g3
tp7349
a(Vintroduced
p7350
g3
tp7351
aa(lp7352
(Vwhen
p7353
g3
tp7354
a(Vwas
p7355
g3
tp7356
a(VTostitos
p7357
g3
tp7358
a(Vintroduced
p7359
g3
tp7360
aa(lp7361
(Vwhat
p7362
g3
tp7363
a(Vare
p7364
g3
tp7365
a(Vsome
p7366
g3
tp7367
a(Vperiodicals
p7368
g3
tp7369
a(Von
p7370
g3
tp7371
a(Vcomputer
p7372
g3
tp7373
a(Vscience
p7374
g3
tp7375
aa(lp7376
(Vin
p7377
g3
tp7378
a(Vwhat
p7379
g3
tp7380
a(Vyear
p7381
g3
tp7382
a(Vdid
p7383
g3
tp7384
a(VMotorola
p7385
VORGANIZATION
p7386
tp7387
a(Vhave
p7388
g3
tp7389
a(Vthe
p7390
g3
tp7391
a(Vmost
p7392
g3
tp7393
a(Vrevenue
p7394
g3
tp7395
aa(lp7396
(Vhow
p7397
g3
tp7398
a(Vmany
p7399
g3
tp7400
a(Vother
p7401
g3
tp7402
a(Vnames
p7403
g3
tp7404
a(Vis
p7405
g3
tp7406
a(Vprostate
p7407
g3
tp7408
a(Vcancer
p7409
g3
tp7410
a(Vknown
p7411
g3
tp7412
a(Vas
p7413
g3
tp7414
aa(lp7415
(Vwho
p7416
g3
tp7417
a(Vare
p7418
g3
tp7419
a(Vthe
p7420
g3
tp7421
a(Vcreators
p7422
g3
tp7423
a(Vof
p7424
g3
tp7425
a(VTeenage
p7426
g3
tp7427
a(VMutant
p7428
g3
tp7429
a(VNinja
p7430
g3
tp7431
a(VTurtles
p7432
g3
tp7433
aa(lp7434
(Vwho
p7435
g3
tp7436
a(Vproposed
p7437
g3
tp7438
a(Vthe
p7439
g3
tp7440
a(Vfifth
p7441
g3
tp7442
a(Vamendment
p7443
g3
tp7444
aa(lp7445
(Vwhat
p7446
g3
tp7447
a(Vprogramming
p7448
g3
tp7449
a(Vlanguages
p7450
g3
tp7451
a(Vwere
p7452
g3
tp7453
a(Vused
p7454
g3
tp7455
a(Vfor
p7456
g3
tp7457
a(VAOL
p7458
VORGANIZATION
p7459
tp7460
a(Vinstant
p7461
g3
tp7462
a(Vmessenger
p7463
g3
tp7464
aa(lp7465
(Vhow
p7466
g3
tp7467
a(Vmany
p7468
g3
tp7469
a(Vawards
p7470
g3
tp7471
a(Vdid
p7472
g3
tp7473
a(Vsesame
p7474
g3
tp7475
a(Vstreet
p7476
g3
tp7477
a(Vwin
p7478
g3
tp7479
aa(lp7480
(Vin
p7481
g3
tp7482
a(Vwhat
p7483
g3
tp7484
a(Vdivision
p7485
g3
tp7486
a(Vare
p7487
g3
tp7488
a(Vthe
p7489
g3
tp7490
a(VSt.
p7491
VORGANIZATION
p7492
tp7493
a(VLouis
p7494
VORGANIZATION
p7495
tp7496
a(VCardinals
p7497
VORGANIZATION
p7498
tp7499
aa(lp7500
(Vwhat
p7501
g3
tp7502
a(Vare
p7503
g3
tp7504
a(Vthe
p7505
g3
tp7506
a(Vdna
p7507
g3
tp7508
a(Vcodons
p7509
g3
tp7510
a(Vof
p7511
g3
tp7512
a(Vglutamine
p7513
g3
tp7514
aa(lp7515
(Vhow
p7516
g3
tp7517
a(Vmany
p7518
g3
tp7519
a(VUS
p7520
VLOCATION
p7521
tp7522
a(VSupreme
p7523
g3
tp7524
a(Vcourt
p7525
g3
tp7526
a(Vcases
p7527
g3
tp7528
a(Vhave
p7529
g3
tp7530
a(Vthere
p7531
g3
tp7532
a(Vbeen
p7533
g3
tp7534
aa(lp7535
(Vwho
p7536
g3
tp7537
a(Vis
p7538
g3
tp7539
a(Vcurrently
p7540
g3
tp7541
a(Vnumber
p7542
g3
tp7543
a(V6
p7544
g3
tp7545
a(Von
p7546
g3
tp7547
a(Vthe
p7548
g3
tp7549
a(VWashington
p7550
VORGANIZATION
p7551
tp7552
a(VWizards
p7553
VORGANIZATION
p7554
tp7555
aa(lp7556
(Vwhat
p7557
g3
tp7558
a(Vmakes
p7559
g3
tp7560
a(Vdoes
p7561
g3
tp7562
a(VFord
p7563
VORGANIZATION
p7564
tp7565
a(Vhave
p7566
g3
tp7567
aa(lp7568
(Vwhat
p7569
g3
tp7570
a(Vare
p7571
g3
tp7572
a(Vsome
p7573
g3
tp7574
a(Vfilms
p7575
g3
tp7576
a(Von
p7577
g3
tp7578
a(Vthe
p7579
g3
tp7580
a(VApollo
p7581
g3
tp7582
a(V11
p7583
g3
tp7584
a(Vmission
p7585
g3
tp7586
aa(lp7587
(Vwhat
p7588
g3
tp7589
a(Vare
p7590
g3
tp7591
a(Vsome
p7592
g3
tp7593
a(Vbooks
p7594
g3
tp7595
a(Vabout
p7596
g3
tp7597
a(Vart
p7598
g3
tp7599
a(Vdeco
p7600
g3
tp7601
aa(lp7602
(Vwhat
p7603
g3
tp7604
a(Vis
p7605
g3
tp7606
a(Vthe
p7607
g3
tp7608
a(Vofficial
p7609
g3
tp7610
a(Vlanguage
p7611
g3
tp7612
a(Vof
p7613
g3
tp7614
a(VMauritania
p7615
VLOCATION
p7616
tp7617
aa(lp7618
(Vwhat
p7619
g3
tp7620
a(Vcities
p7621
g3
tp7622
a(Vdoes
p7623
g3
tp7624
a(Vus
p7625
g3
tp7626
a(VInterstate
p7627
g3
tp7628
a(V5
p7629
g3
tp7630
a(Vpass
p7631
g3
tp7632
aa(lp7633
(Vhow
p7634
g3
tp7635
a(Vmany
p7636
g3
tp7637
a(Vpeople
p7638
g3
tp7639
a(Vcollect
p7640
g3
tp7641
a(Vautomobiles
p7642
g3
tp7643
aa(lp7644
(Vhow
p7645
g3
tp7646
a(Vmany
p7647
g3
tp7648
a(Vparent
p7649
g3
tp7650
a(Vtypes
p7651
g3
tp7652
a(Vdoes
p7653
g3
tp7654
a(Vigneous
p7655
g3
tp7656
a(Vrock
p7657
g3
tp7658
a(Vhave
p7659
g3
tp7660
aa(lp7661
(Vwhat
p7662
g3
tp7663
a(Vis
p7664
g3
tp7665
a(Vthe
p7666
g3
tp7667
a(Vpiston
p7668
g3
tp7669
a(Vconfiguration
p7670
g3
tp7671
a(Vof
p7672
g3
tp7673
a(g15
g3
tp7674
a(VFord
p7675
VORGANIZATION
p7676
tp7677
a(Vmodel
p7678
g3
tp7679
a(Vt
p7680
g3
tp7681
a(Vengine
p7682
g3
tp7683
aa(lp7684
(Vwhat
p7685
g3
tp7686
a(Vdigital
p7687
g3
tp7688
a(Vcameras
p7689
g3
tp7690
a(Vtake
p7691
g3
tp7692
a(Van
p7693
g3
tp7694
a(Vsdhc
p7695
g3
tp7696
a(Vcard
p7697
g3
tp7698
aa(lp7699
(Vwhere
p7700
g3
tp7701
a(Vis
p7702
g3
tp7703
a(Vthe
p7704
g3
tp7705
a(VUSS
p7706
g3
tp7707
a(VAlabama
p7708
g3
tp7709
a(Vcurrently
p7710
g3
tp7711
a(Vmoored
p7712
g3
tp7713
aa(lp7714
(Vwhat
p7715
g3
tp7716
a(Vare
p7717
g3
tp7718
a(Vthe
p7719
g3
tp7720
a(Vdivisions
p7721
g3
tp7722
a(Vof
p7723
g3
tp7724
a(Vthe
p7725
g3
tp7726
a(Vwestern
p7727
g3
tp7728
a(Vconference
p7729
g3
tp7730
a(Vof
p7731
g3
tp7732
a(Vthe
p7733
g3
tp7734
a(VNHL
p7735
VORGANIZATION
p7736
tp7737
aa(lp7738
(Vwhat
p7739
g3
tp7740
a(Vwere
p7741
g3
tp7742
a(Vthe
p7743
g3
tp7744
a(Vhighest
p7745
g3
tp7746
a(Vwind
p7747
g3
tp7748
a(Vspeeds
p7749
g3
tp7750
a(Vin
p7751
g3
tp7752
a(Vhurricane
p7753
g3
tp7754
a(VKatrina
p7755
g3
tp7756
aa(lp7757
(Vhow
p7758
g3
tp7759
a(Vlong
p7760
g3
tp7761
a(Voverall
p7762
g3
tp7763
a(Vis
p7764
g3
tp7765
a(Vthe
p7766
g3
tp7767
a(Vtahina
p7768
g3
tp7769
aa(lp7770
(Vwhen
p7771
g3
tp7772
a(Vwas
p7773
g3
tp7774
a(Vthe
p7775
g3
tp7776
a(Vmark
p7777
g3
tp7778
a(Vvii
p7779
g3
tp7780
a(Vmonorail
p7781
g3
tp7782
a(Vintroduced
p7783
g3
tp7784
aa(lp7785
(Vwhere
p7786
g3
tp7787
a(Vis
p7788
g3
tp7789
a(VWalden
p7790
VLOCATION
p7791
tp7792
a(Vpond
p7793
g3
tp7794
a(Vlocated
p7795
g3
tp7796
aa(lp7797
(Vwhat
p7798
g3
tp7799
a(Vdiseases
p7800
g3
tp7801
a(Vis
p7802
g3
tp7803
a(Vfatigue
p7804
g3
tp7805
a(g15
g3
tp7806
a(Vsymptom
p7807
g3
tp7808
a(Vof
p7809
g3
tp7810
aa(lp7811
(Vwhat
p7812
g3
tp7813
a(Vrock
p7814
g3
tp7815
a(Vformations
p7816
g3
tp7817
a(Vformed
p7818
g3
tp7819
a(Vin
p7820
g3
tp7821
a(Vthe
p7822
g3
tp7823
a(Vbarremian
p7824
g3
tp7825
a(Vperiod
p7826
g3
tp7827
aa(lp7828
(Vwhat
p7829
g3
tp7830
a(Vis
p7831
g3
tp7832
a(VJcpenney
p7833
VORGANIZATION
p7834
tp7835
a(V's
p7836
g3
tp7837
a(Voperating
p7838
g3
tp7839
a(Vincome
p7840
g3
tp7841
aa(lp7842
(Vwhat
p7843
g3
tp7844
a(Vtypes
p7845
g3
tp7846
a(Vof
p7847
g3
tp7848
a(Vjudaism
p7849
g3
tp7850
a(Vare
p7851
g3
tp7852
a(Vthere
p7853
g3
tp7854
aa(lp7855
(Vhow
p7856
g3
tp7857
a(Vmany
p7858
g3
tp7859
a(Vfilm
p7860
g3
tp7861
a(Vperformances
p7862
g3
tp7863
a(Vdid
p7864
g3
tp7865
a(VRon
p7866
VPERSON
p7867
tp7868
a(VGlass
p7869
VPERSON
p7870
tp7871
a(Vdo
p7872
g3
tp7873
aa(lp7874
(Vwhere
p7875
g3
tp7876
a(Vwas
p7877
g3
tp7878
a(Vthe
p7879
g3
tp7880
a(VUSS
p7881
g3
tp7882
a(Vconstitution
p7883
g3
tp7884
a(Vbuilt
p7885
g3
tp7886
aa(lp7887
(Vwhat
p7888
g3
tp7889
a(Vtreatments
p7890
g3
tp7891
a(Vare
p7892
g3
tp7893
a(Vthere
p7894
g3
tp7895
a(Vfor
p7896
g3
tp7897
a(Vleukemia
p7898
g3
tp7899
aa(lp7900
(Vwhat
p7901
g3
tp7902
a(Vkind
p7903
g3
tp7904
a(Vof
p7905
g3
tp7906
a(Vwebsite
p7907
g3
tp7908
a(Vis
p7909
g3
tp7910
a(VBing
p7911
VPERSON
p7912
tp7913
aa(lp7914
(Vwhen
p7915
g3
tp7916
a(Vdid
p7917
g3
tp7918
a(Vthe
p7919
g3
tp7920
a(Vstandard
p7921
g3
tp7922
a(Vschool
p7923
g3
tp7924
a(Vbroadcast
p7925
g3
tp7926
a(Vstart
p7927
g3
tp7928
a(Vproduction
p7929
g3
tp7930
aa(lp7931
(Vwhat
p7932
g3
tp7933
a(Vare
p7934
g3
tp7935
a(Vthe
p7936
g3
tp7937
a(Vrides
p7938
g3
tp7939
a(Vat
p7940
g3
tp7941
a(Vsix
p7942
g3
tp7943
a(Vflags
p7944
g3
tp7945
a(Vamerica
p7946
g3
tp7947
aa(lp7948
(Vwhere
p7949
g3
tp7950
a(Vdid
p7951
g3
tp7952
a(VOmarion
p7953
VPERSON
p7954
tp7955
a(V's
p7956
g3
tp7957
a(Vmusical
p7958
g3
tp7959
a(Vcareer
p7960
g3
tp7961
a(Vbegin
p7962
g3
tp7963
aa(lp7964
(Vhow
p7965
g3
tp7966
a(Vmany
p7967
g3
tp7968
a(Vtracks
p7969
g3
tp7970
a(Vhas
p7971
g3
tp7972
a(Vthe
p7973
g3
tp7974
a(Vband
p7975
g3
tp7976
a(Vrecorded
p7977
g3
tp7978
aa(lp7979
(Vwhat
p7980
g3
tp7981
a(Varticles
p7982
g3
tp7983
a(Vare
p7984
g3
tp7985
a(Vin
p7986
g3
tp7987
a(Vthe
p7988
g3
tp7989
a(VJuly
p7990
g3
tp7991
a(V1967
p7992
g3
tp7993
a(Vissue
p7994
g3
tp7995
a(Vof
p7996
g3
tp7997
a(Vfrontier
p7998
g3
tp7999
a(Vtimes
p8000
g3
tp8001
aa(lp8002
(Vwhat
p8003
g3
tp8004
a(Vspecies
p8005
g3
tp8006
a(Vis
p8007
g3
tp8008
a(VSpock
p8009
VPERSON
p8010
tp8011
aa(lp8012
(Vhow
p8013
g3
tp8014
a(Vmany
p8015
g3
tp8016
a(Vknights
p8017
g3
tp8018
a(Vof
p8019
g3
tp8020
a(Vthe
p8021
g3
tp8022
a(Vgarter
p8023
g3
tp8024
a(Vdid
p8025
g3
tp8026
a(Vthe
p8027
g3
tp8028
a(Vorder
p8029
g3
tp8030
a(Vof
p8031
g3
tp8032
a(Vthe
p8033
g3
tp8034
a(Vgarter
p8035
g3
tp8036
a(Vhave
p8037
g3
tp8038
aa(lp8039
(Vwhen
p8040
g3
tp8041
a(Vdid
p8042
g3
tp8043
a(Vcharlie_s
p8044
g3
tp8045
a(Vangels
p8046
g3
tp8047
a(Vcome
p8048
g3
tp8049
a(Vout
p8050
g3
tp8051
aa(lp8052
(Vat
p8053
g3
tp8054
a(Vwhat
p8055
g3
tp8056
a(Vage
p8057
g3
tp8058
a(Vto
p8059
g3
tp8060
a(Vkids
p8061
g3
tp8062
a(Vusually
p8063
g3
tp8064
a(Vstart
p8065
g3
tp8066
a(Vsecond
p8067
g3
tp8068
a(Vgrade
p8069
g3
tp8070
aa(lp8071
(Vwhen
p8072
g3
tp8073
a(Vwas
p8074
g3
tp8075
a(VYosemite
p8076
g3
tp8077
a(Vnational
p8078
g3
tp8079
a(Vpark
p8080
g3
tp8081
a(Vdesignated
p8082
g3
tp8083
a(Vas
p8084
g3
tp8085
a(g15
g3
tp8086
a(Vprotected
p8087
g3
tp8088
a(Vplace
p8089
g3
tp8090
aa(lp8091
(Vwhat
p8092
g3
tp8093
a(Vsubstancs
p8094
g3
tp8095
a(Vhas
p8096
g3
tp8097
a(VRobert
p8098
VPERSON
p8099
tp8100
a(VDowney
p8101
VPERSON
p8102
tp8103
a(Vjr
p8104
g3
tp8105
a(Vabused
p8106
g3
tp8107
aa(lp8108
(Vwhat
p8109
g3
tp8110
a(Vdid
p8111
g3
tp8112
a(VElizabeth
p8113
VPERSON
p8114
tp8115
a(VII
p8116
VPERSON
p8117
tp8118
a(Vcollect
p8119
g3
tp8120
aa(lp8121
(Vwho
p8122
g3
tp8123
a(Vowned
p8124
g3
tp8125
a(VDoritos
p8126
g3
tp8127
aa(lp8128
(Vhow
p8129
g3
tp8130
a(Vmany
p8131
g3
tp8132
a(Vsub-types
p8133
g3
tp8134
a(Vof
p8135
g3
tp8136
a(Vmetamorphic
p8137
g3
tp8138
a(Vrock
p8139
g3
tp8140
a(Vare
p8141
g3
tp8142
a(Vthere
p8143
g3
tp8144
aa(lp8145
(Vwhat
p8146
g3
tp8147
a(Vspecies
p8148
g3
tp8149
a(Vis
p8150
g3
tp8151
a(Vthe
p8152
g3
tp8153
a(Vdoctor
p8154
g3
tp8155
aa(lp8156
(Vwhen
p8157
g3
tp8158
a(Vdid
p8159
g3
tp8160
a(Vchips
p8161
g3
tp8162
a(Vahoy
p8163
g3
tp8164
a(Vdebut
p8165
g3
tp8166
aa(lp8167
(Vwhat
p8168
g3
tp8169
a(Vis
p8170
g3
tp8171
a(Vthe
p8172
g3
tp8173
a(Vprice
p8174
g3
tp8175
a(Vof
p8176
g3
tp8177
a(g15
g3
tp8178
a(V2012
p8179
g3
tp8180
a(VJeep
p8181
g3
tp8182
a(VWrangler
p8183
g3
tp8184
a(Vsport
p8185
g3
tp8186
aa(lp8187
(Vhow
p8188
g3
tp8189
a(Vmany
p8190
g3
tp8191
a(Vnominations
p8192
g3
tp8193
a(Vdid
p8194
g3
tp8195
a(Vnutty
p8196
g3
tp8197
a(Vprofessor
p8198
g3
tp8199
a(Vhave
p8200
g3
tp8201
aa(lp8202
(Vwhat
p8203
g3
tp8204
a(Vcompanies
p8205
g3
tp8206
a(Vproduce
p8207
g3
tp8208
a(Vsmartphones
p8209
g3
tp8210
aa(lp8211
(Vhow
p8212
g3
tp8213
a(Vmany
p8214
g3
tp8215
a(Vfrench
p8216
g3
tp8217
a(Voperas
p8218
g3
tp8219
a(Vare
p8220
g3
tp8221
a(Vthere
p8222
g3
tp8223
aa(lp8224
(Vwhat
p8225
g3
tp8226
a(Vis
p8227
g3
tp8228
a(Vthe
p8229
g3
tp8230
a(Vpopulation
p8231
g3
tp8232
a(Vof
p8233
g3
tp8234
a(Vthe
p8235
g3
tp8236
a(Vpeople
p8237
g3
tp8238
a(Von
p8239
g3
tp8240
a(Vthe
p8241
g3
tp8242
a(Vearth
p8243
g3
tp8244
aa(lp8245
(Vwhat
p8246
g3
tp8247
a(Vopera
p8248
g3
tp8249
a(Vdid
p8250
g3
tp8251
a(VJonathan
p8252
VPERSON
p8253
tp8254
a(VMiller
p8255
VPERSON
p8256
tp8257
a(Vdirect
p8258
g3
tp8259
aa(lp8260
(Vwhat
p8261
g3
tp8262
a(Vare
p8263
g3
tp8264
a(Vsome
p8265
g3
tp8266
a(Vtypes
p8267
g3
tp8268
a(Vof
p8269
g3
tp8270
a(Vhats
p8271
g3
tp8272
aa(lp8273
(Vwhen
p8274
g3
tp8275
a(Vwas
p8276
g3
tp8277
a(Vscope
p8278
g3
tp8279
a(Vintroduced
p8280
g3
tp8281
aa(lp8282
(Vwhat
p8283
g3
tp8284
a(Vaward
p8285
g3
tp8286
a(Vdid
p8287
g3
tp8288
a(VJack
p8289
VPERSON
p8290
tp8291
a(VAlbertson
p8292
VPERSON
p8293
tp8294
a(Vwin
p8295
g3
tp8296
a(Vin
p8297
g3
tp8298
a(V1968
p8299
g3
tp8300
aa(lp8301
(Vwho
p8302
g3
tp8303
a(Vmakes
p8304
g3
tp8305
a(Vup
p8306
g3
tp8307
a(Vtomkat
p8308
g3
tp8309
aa(lp8310
(Vwhat
p8311
g3
tp8312
a(Varea
p8313
g3
tp8314
a(Vof
p8315
g3
tp8316
a(VDisneyland
p8317
VLOCATION
p8318
tp8319
a(Vis
p8320
g3
tp8321
a(Vspace
p8322
g3
tp8323
a(Vmountain
p8324
g3
tp8325
a(Vin
p8326
g3
tp8327
aa(lp8328
(Vwho
p8329
g3
tp8330
a(Vwas
p8331
g3
tp8332
a(Vthe
p8333
g3
tp8334
a(Vmusic
p8335
g3
tp8336
a(Vby
p8337
g3
tp8338
a(Vin
p8339
g3
tp8340
a(VTitanic
p8341
g3
tp8342
aa(lp8343
(Vwhat
p8344
g3
tp8345
a(Vmilitary
p8346
g3
tp8347
a(Vbranches
p8348
g3
tp8349
a(Vuse
p8350
g3
tp8351
a(Vthe
p8352
g3
tp8353
a(Vf-5
p8354
g3
tp8355
a(Vfreedom
p8356
g3
tp8357
a(Vfighter
p8358
g3
tp8359
aa(lp8360
(Vwhat
p8361
g3
tp8362
a(Vare
p8363
g3
tp8364
a(Vthe
p8365
g3
tp8366
a(Vcauses
p8367
g3
tp8368
a(Vof
p8369
g3
tp8370
a(Vsyphilis
p8371
g3
tp8372
aa(lp8373
(Vwhat
p8374
g3
tp8375
a(Vgenre
p8376
g3
tp8377
a(Vof
p8378
g3
tp8379
a(Vmusic
p8380
g3
tp8381
a(Vis
p8382
g3
tp8383
a(Vb12
p8384
g3
tp8385
aa(lp8386
(Vwho
p8387
g3
tp8388
a(Vdesigns
p8389
g3
tp8390
a(Vfor
p8391
g3
tp8392
a(Vbill
p8393
g3
tp8394
a(Vblass
p8395
g3
tp8396
a(Vlimited
p8397
g3
tp8398
aa(lp8399
(Vwhen
p8400
g3
tp8401
a(Vdid
p8402
g3
tp8403
a(Vjohn
p8404
g3
tp8405
a(Vf
p8406
g3
tp8407
a(Vkennedy
p8408
g3
tp8409
a(Vdie
p8410
g3
tp8411
aa(lp8412
(Vwho
p8413
g3
tp8414
a(Vwas
p8415
g3
tp8416
a(Vvice
p8417
g3
tp8418
a(Vpresident
p8419
g3
tp8420
a(Vto
p8421
g3
tp8422
a(Vwoodrow
p8423
g3
tp8424
a(Vwilson
p8425
g3
tp8426
aa(lp8427
(Vwhen
p8428
g3
tp8429
a(Vwas
p8430
g3
tp8431
a(Vborders
p8432
g3
tp8433
a(Vfounded
p8434
g3
tp8435
aa(lp8436
(Vwho
p8437
g3
tp8438
a(Vfought
p8439
g3
tp8440
a(Vin
p8441
g3
tp8442
a(Vthe
p8443
g3
tp8444
a(Vthe
p8445
g3
tp8446
a(Vbattle
p8447
g3
tp8448
a(Vof
p8449
g3
tp8450
a(Vthe
p8451
g3
tp8452
a(Vchampions
p8453
g3
tp8454
aa(lp8455
(Vwho
p8456
g3
tp8457
a(Vwas
p8458
g3
tp8459
a(Vthe
p8460
g3
tp8461
a(Vcohost
p8462
g3
tp8463
a(Vin
p8464
g3
tp8465
a(V1993
p8466
g3
tp8467
a(Von
p8468
g3
tp8469
a(Vcbs
p8470
g3
tp8471
a(Vevening
p8472
g3
tp8473
a(Vnews
p8474
g3
tp8475
aa(lp8476
(Vfor
p8477
g3
tp8478
a(Vwhat
p8479
g3
tp8480
a(Valbums
p8481
g3
tp8482
a(Vdid
p8483
g3
tp8484
a(Vbarack
p8485
g3
tp8486
a(Vobama
p8487
g3
tp8488
a(Vwin
p8489
g3
tp8490
a(g15
g3
tp8491
a(Vgrammy
p8492
g3
tp8493
a(Vaward
p8494
g3
tp8495
a(Vfor
p8496
g3
tp8497
a(Vbest
p8498
g3
tp8499
a(Vspoken
p8500
g3
tp8501
a(Vword
p8502
g3
tp8503
a(Valbum
p8504
g3
tp8505
aa(lp8506
(Vhow
p8507
g3
tp8508
a(Vmany
p8509
g3
tp8510
a(Vother
p8511
g3
tp8512
a(Vnames
p8513
g3
tp8514
a(Vis
p8515
g3
tp8516
a(Vomarion
p8517
g3
tp8518
a(Vknown
p8519
g3
tp8520
a(Vby
p8521
g3
tp8522
aa(lp8523
(Vwhat
p8524
g3
tp8525
a(Vpercent
p8526
g3
tp8527
a(Valcohol
p8528
g3
tp8529
a(Vis
p8530
g3
tp8531
a(g15
g3
tp8532
a(Vg.h
p8533
g3
tp8534
a(g489
g3
tp8535
a(Vmumm
p8536
g3
tp8537
a(Vcordon
p8538
g3
tp8539
a(Vrouge
p8540
g3
tp8541
a(Vbrut
p8542
g3
tp8543
aa(lp8544
(Vhow
p8545
g3
tp8546
a(Vmany
p8547
g3
tp8548
a(Vcountries
p8549
g3
tp8550
a(Vuse
p8551
g3
tp8552
a(Vthe
p8553
g3
tp8554
a(Vindian
p8555
g3
tp8556
a(Vrupee
p8557
g3
tp8558
aa(lp8559
(Vwhen
p8560
g3
tp8561
a(Vwas
p8562
g3
tp8563
a(Vthe
p8564
g3
tp8565
a(Vuss
p8566
g3
tp8567
a(Vcroaker
p8568
g3
tp8569
a(Vlaunched
p8570
g3
tp8571
aa(lp8572
(Vwho
p8573
g3
tp8574
a(Vis
p8575
g3
tp8576
a(Vthe
p8577
g3
tp8578
a(Vproducer
p8579
g3
tp8580
a(Vfor
p8581
g3
tp8582
a(V13
p8583
g3
tp8584
a(Vgoing
p8585
g3
tp8586
a(Von
p8587
g3
tp8588
a(V30
p8589
g3
tp8590
aa(lp8591
(Vwhat
p8592
g3
tp8593
a(Vis
p8594
g3
tp8595
a(Vthe
p8596
g3
tp8597
a(Vaustralian
p8598
g3
tp8599
a(Vdollar
p8600
g3
tp8601
a(Vcode
p8602
g3
tp8603
aa(lp8604
(Vwho
p8605
g3
tp8606
a(Vcomposed
p8607
g3
tp8608
a(Vthe
p8609
g3
tp8610
a(Vsong
p8611
g3
tp8612
a(Vship
p8613
g3
tp8614
a(Vof
p8615
g3
tp8616
a(Vfools
p8617
g3
tp8618
aa(lp8619
(Vwhat
p8620
g3
tp8621
a(Vare
p8622
g3
tp8623
a(Vsome
p8624
g3
tp8625
a(Vadaptations
p8626
g3
tp8627
a(Vof
p8628
g3
tp8629
a(Vthe
p8630
g3
tp8631
a(Vwonderful
p8632
g3
tp8633
a(Vwizard
p8634
g3
tp8635
a(Vof
p8636
g3
tp8637
a(Voz
p8638
g3
tp8639
aa(lp8640
(Vwhat
p8641
g3
tp8642
a(Vgeneration
p8643
g3
tp8644
a(Vof
p8645
g3
tp8646
a(Vmatter
p8647
g3
tp8648
a(Vis
p8649
g3
tp8650
a(g15
g3
tp8651
a(Vdown
p8652
g3
tp8653
a(Vquark
p8654
g3
tp8655
aa(lp8656
(Vwhat
p8657
g3
tp8658
a(Vis
p8659
g3
tp8660
a(Vthe
p8661
g3
tp8662
a(Vmax
p8663
g3
tp8664
a(Vspeed
p8665
g3
tp8666
a(Vof
p8667
g3
tp8668
a(Vkingda
p8669
g3
tp8670
a(Vka
p8671
g3
tp8672
aa(lp8673
(Vwhat
p8674
g3
tp8675
a(Vis
p8676
g3
tp8677
a(Vron
p8678
g3
tp8679
a(Vglass
p8680
g3
tp8681
a(V's
p8682
g3
tp8683
a(Vplace
p8684
g3
tp8685
a(Vof
p8686
g3
tp8687
a(Vbirth
p8688
g3
tp8689
aa(lp8690
(Vwho
p8691
g3
tp8692
a(Vwas
p8693
g3
tp8694
a(Vrolling
p8695
g3
tp8696
a(Vstones
p8697
g3
tp8698
a(g2015
g3
tp8699
a(Vgreatest
p8700
g3
tp8701
a(Vguitarist
p8702
g3
tp8703
a(Vof
p8704
g3
tp8705
a(Vall
p8706
g3
tp8707
a(Vtime
p8708
g3
tp8709
a(Vin
p8710
g3
tp8711
a(V2003
p8712
g3
tp8713
aa(lp8714
(Vwhat
p8715
g3
tp8716
a(Vreligion
p8717
g3
tp8718
a(Vwas
p8719
g3
tp8720
a(Vpablo
p8721
g3
tp8722
a(Vpicasso
p8723
g3
tp8724
aa(lp8725
(Vwho
p8726
g3
tp8727
a(Vis
p8728
g3
tp8729
a(Vthe
p8730
g3
tp8731
a(Vowner
p8732
g3
tp8733
a(Vof
p8734
g3
tp8735
a(Veasy
p8736
g3
tp8737
a(Vcheese
p8738
g3
tp8739
aa(lp8740
(Vwhich
p8741
g3
tp8742
a(Vcharacters
p8743
g3
tp8744
a(Vare
p8745
g3
tp8746
a(Vplayable
p8747
g3
tp8748
a(Vin
p8749
g3
tp8750
a(Vsonic
p8751
g3
tp8752
a(Vrush
p8753
g3
tp8754
aa(lp8755
(Vwho
p8756
g3
tp8757
a(Vcreated
p8758
g3
tp8759
a(Vthe
p8760
g3
tp8761
a(Vrunaways
p8762
g3
tp8763
a(Vcomic
p8764
g3
tp8765
a(Vbook
p8766
g3
tp8767
a(Vseries
p8768
g3
tp8769
aa(lp8770
(Vwhat
p8771
g3
tp8772
a(Vtextiles
p8773
g3
tp8774
a(Vare
p8775
g3
tp8776
a(Vmade
p8777
g3
tp8778
a(Vfrom
p8779
g3
tp8780
a(Vcotton
p8781
g3
tp8782
aa(lp8783
(Vwhat
p8784
g3
tp8785
a(Vis
p8786
g3
tp8787
a(Vthe
p8788
g3
tp8789
a(Vtheme
p8790
g3
tp8791
a(Vsong
p8792
g3
tp8793
a(Vof
p8794
g3
tp8795
a(Vsesame
p8796
g3
tp8797
a(Vstreet
p8798
g3
tp8799
aa(lp8800
(Vwhat
p8801
g3
tp8802
a(Vmovies
p8803
g3
tp8804
a(Vwon
p8805
g3
tp8806
a(Vthe
p8807
g3
tp8808
a(Vgolden
p8809
g3
tp8810
a(Vglobe
p8811
g3
tp8812
a(Vaward
p8813
g3
tp8814
a(Vfor
p8815
g3
tp8816
a(Vbest
p8817
g3
tp8818
a(Vdrama
p8819
g3
tp8820
a(Vfilm
p8821
g3
tp8822
aa(lp8823
(Vwhat
p8824
g3
tp8825
a(Vare
p8826
g3
tp8827
a(Vthe
p8828
g3
tp8829
a(Vcauses
p8830
g3
tp8831
a(Vof
p8832
g3
tp8833
a(g15
g3
tp8834
a(Vheart
p8835
g3
tp8836
a(Vattack
p8837
g3
tp8838
aa(lp8839
(Vhow
p8840
g3
tp8841
a(Vmany
p8842
g3
tp8843
a(Vmain
p8844
g3
tp8845
a(Vcharacters
p8846
g3
tp8847
a(Vdid
p8848
g3
tp8849
a(Vcharlie_s
p8850
g3
tp8851
a(Vangels
p8852
g3
tp8853
a(Vhave
p8854
g3
tp8855
aa(lp8856
(Vwhat
p8857
g3
tp8858
a(Vship
p8859
g3
tp8860
a(Vclass
p8861
g3
tp8862
a(Vis
p8863
g3
tp8864
a(Vthe
p8865
g3
tp8866
a(Vuss
p8867
g3
tp8868
a(Vcobia
p8869
g3
tp8870
aa(lp8871
(Vhow
p8872
g3
tp8873
a(Vmany
p8874
g3
tp8875
a(Vtv
p8876
g3
tp8877
a(Vshows
p8878
g3
tp8879
a(Vdid
p8880
g3
tp8881
a(Vjerry
p8882
g3
tp8883
a(Vseinfeld
p8884
g3
tp8885
a(Vproduce
p8886
g3
tp8887
aa(lp8888
(Vwhat
p8889
g3
tp8890
a(Vrock
p8891
g3
tp8892
a(Vformations
p8893
g3
tp8894
a(Vare
p8895
g3
tp8896
a(Vmade
p8897
g3
tp8898
a(Vof
p8899
g3
tp8900
a(Vquartzite
p8901
g3
tp8902
aa(lp8903
(Vwhat
p8904
g3
tp8905
a(Vis
p8906
g3
tp8907
a(Vrna
p8908
g3
tp8909
a(Vbinding
p8910
g3
tp8911
aa(lp8912
(Vwhen
p8913
g3
tp8914
a(Vdid
p8915
g3
tp8916
a(Vthe
p8917
g3
tp8918
a(Vband
p8919
g3
tp8920
a(Vmassive
p8921
g3
tp8922
a(Vattack
p8923
g3
tp8924
a(Vform
p8925
g3
tp8926
aa(lp8927
(Vwhen
p8928
g3
tp8929
a(Vis
p8930
g3
tp8931
a(Vthe
p8932
g3
tp8933
a(Vrestoration
p8934
g3
tp8935
a(Vof
p8936
g3
tp8937
a(Vthe
p8938
g3
tp8939
a(Vrijksmuseum
p8940
g3
tp8941
a(Vsupposed
p8942
g3
tp8943
a(Vto
p8944
g3
tp8945
a(Vfinish
p8946
g3
tp8947
aa(lp8948
(Vwho
p8949
g3
tp8950
a(Vfounded
p8951
g3
tp8952
a(Vgsusa
p8953
g3
tp8954
aa(lp8955
(Vhow
p8956
g3
tp8957
a(Vmany
p8958
g3
tp8959
a(Vproducts
p8960
g3
tp8961
a(Vhas
p8962
g3
tp8963
a(Vmattel
p8964
g3
tp8965
a(Vproduced
p8966
g3
tp8967
aa(lp8968
(Vwhen
p8969
g3
tp8970
a(Vwas
p8971
g3
tp8972
a(Vtechvibes
p8973
g3
tp8974
a(Vstarted
p8975
g3
tp8976
aa(lp8977
(Vwho
p8978
g3
tp8979
a(Vwon
p8980
g3
tp8981
a(Vthe
p8982
g3
tp8983
a(V1964
p8984
g3
tp8985
a(Vunited
p8986
g3
tp8987
a(Vstates
p8988
g3
tp8989
a(Vpresidential
p8990
g3
tp8991
a(Velection
p8992
g3
tp8993
aa(lp8994
(Vhow
p8995
g3
tp8996
a(Vmany
p8997
g3
tp8998
a(Vcountries
p8999
g3
tp9000
a(Vare
p9001
g3
tp9002
a(Vwithin
p9003
g3
tp9004
a(Vnorth
p9005
g3
tp9006
a(Vamerica
p9007
g3
tp9008
aa(lp9009
(Vhow
p9010
g3
tp9011
a(Vmany
p9012
g3
tp9013
a(Vfilms
p9014
g3
tp9015
a(Vare
p9016
g3
tp9017
a(Vthere
p9018
g3
tp9019
a(Von
p9020
g3
tp9021
a(Vantarctica
p9022
g3
tp9023
aa(lp9024
(Vwhen
p9025
g3
tp9026
a(Vwas
p9027
g3
tp9028
a(Vthe
p9029
g3
tp9030
a(Vgreen
p9031
g3
tp9032
a(Vparty
p9033
g3
tp9034
a(Vfounded
p9035
g3
tp9036
aa(lp9037
(Vwhen
p9038
g3
tp9039
a(Vdid
p9040
g3
tp9041
a(Vthe
p9042
g3
tp9043
a(Vprincetown
p9044
g3
tp9045
a(Vrailway
p9046
g3
tp9047
a(Vclose
p9048
g3
tp9049
aa(lp9050
(Vwho
p9051
g3
tp9052
a(Vare
p9053
g3
tp9054
a(Vthe
p9055
g3
tp9056
a(Vcharacters
p9057
g3
tp9058
a(Vin
p9059
g3
tp9060
a(Vpeanuts
p9061
g3
tp9062
aa(lp9063
(Vhow
p9064
g3
tp9065
a(Vmuch
p9066
g3
tp9067
a(Vdanish
p9068
g3
tp9069
a(Vkroner
p9070
g3
tp9071
a(Vis
p9072
g3
tp9073
a(g15
g3
tp9074
a(Vus
p9075
g3
tp9076
a(Vdollar
p9077
g3
tp9078
a(Vworth
p9079
g3
tp9080
aa(lp9081
(Vwhat
p9082
g3
tp9083
a(Vseries
p9084
g3
tp9085
a(Vis
p9086
g3
tp9087
a(g15
g3
tp9088
a(Vwrinkle
p9089
g3
tp9090
a(Vin
p9091
g3
tp9092
a(Vtime
p9093
g3
tp9094
a(g15
g3
tp9095
a(Vpart
p9096
g3
tp9097
a(Vof
p9098
g3
tp9099
aa(lp9100
(Vhow
p9101
g3
tp9102
a(Vmany
p9103
g3
tp9104
a(Vsoccer
p9105
g3
tp9106
a(Vplayers
p9107
g3
tp9108
a(Vare
p9109
g3
tp9110
a(Vgoalkeepers
p9111
g3
tp9112
aa(lp9113
(Vwhat
p9114
g3
tp9115
a(Vsoftware
p9116
g3
tp9117
a(Vhas
p9118
g3
tp9119
a(Voracle
p9120
g3
tp9121
a(Vdesigned
p9122
g3
tp9123
aa(lp9124
(Vhow
p9125
g3
tp9126
a(Vmuch
p9127
g3
tp9128
a(Vtime
p9129
g3
tp9130
a(Vdid
p9131
g3
tp9132
a(Valan
p9133
g3
tp9134
a(Vshepard
p9135
g3
tp9136
a(Vspend
p9137
g3
tp9138
a(Vin
p9139
g3
tp9140
a(Vspace
p9141
g3
tp9142
aa(lp9143
(Vhow
p9144
g3
tp9145
a(Vmany
p9146
g3
tp9147
a(Vhockey
p9148
g3
tp9149
a(Vplayers
p9150
g3
tp9151
a(Vplay
p9152
g3
tp9153
a(Vcenter
p9154
g3
tp9155
aa(lp9156
(Vwho
p9157
g3
tp9158
a(Vis
p9159
g3
tp9160
a(Vwells
p9161
g3
tp9162
a(Vfargo
p9163
g3
tp9164
a(V's
p9165
g3
tp9166
a(Vsupplier
p9167
g3
tp9168
aa(lp9169
(Vwho
p9170
g3
tp9171
a(Vwere
p9172
g3
tp9173
a(Vthe
p9174
g3
tp9175
a(Vmembers
p9176
g3
tp9177
a(Vof
p9178
g3
tp9179
a(Vthe
p9180
g3
tp9181
a(Vsoul
p9182
g3
tp9183
a(Vstirrers
p9184
g3
tp9185
aa(lp9186
(Vwhere
p9187
g3
tp9188
a(Vdo
p9189
g3
tp9190
a(Vthe
p9191
g3
tp9192
a(Vdenver
p9193
g3
tp9194
a(Vspurs
p9195
g3
tp9196
a(Vplay
p9197
g3
tp9198
aa(lp9199
(Vwho
p9200
g3
tp9201
a(Vwon
p9202
g3
tp9203
a(Vbest
p9204
g3
tp9205
a(Vmovie
p9206
g3
tp9207
a(Vof
p9208
g3
tp9209
a(V2010
p9210
g3
tp9211
aa(lp9212
(Vwhat
p9213
g3
tp9214
a(Vhospitals
p9215
g3
tp9216
a(Vspecialize
p9217
g3
tp9218
a(Vin
p9219
g3
tp9220
a(Vcardiology
p9221
g3
tp9222
aa(lp9223
(Vwhen
p9224
g3
tp9225
a(Vwas
p9226
g3
tp9227
a(Vhank
p9228
g3
tp9229
a(Vaaron
p9230
g3
tp9231
a(Vinducted
p9232
g3
tp9233
a(Vinto
p9234
g3
tp9235
a(Vthe
p9236
g3
tp9237
a(Vhall
p9238
g3
tp9239
a(Vof
p9240
g3
tp9241
a(Vfame
p9242
g3
tp9243
aa(lp9244
(Vwhat
p9245
g3
tp9246
a(Vblog
p9247
g3
tp9248
a(Vdoes
p9249
g3
tp9250
a(Vrobert
p9251
g3
tp9252
a(Vscoble
p9253
g3
tp9254
a(Vwrite
p9255
g3
tp9256
aa(lp9257
(Vwhen
p9258
g3
tp9259
a(Vwas
p9260
g3
tp9261
a(Vgirl
p9262
g3
tp9263
a(Vscouts
p9264
g3
tp9265
a(Vof
p9266
g3
tp9267
a(Vthe
p9268
g3
tp9269
a(Vusa
p9270
g3
tp9271
a(Vfounded
p9272
g3
tp9273
aa(lp9274
(Vwhat
p9275
g3
tp9276
a(Vis
p9277
g3
tp9278
a(Vthe
p9279
g3
tp9280
a(Vatomic
p9281
g3
tp9282
a(Vnumber
p9283
g3
tp9284
a(Vof
p9285
g3
tp9286
a(Vsilicon
p9287
g3
tp9288
aa(lp9289
(Vwhen
p9290
g3
tp9291
a(Vdid
p9292
g3
tp9293
a(Vthe
p9294
g3
tp9295
a(Vrenaissance
p9296
g3
tp9297
a(Vbegin
p9298
g3
tp9299
aa(lp9300
(Vwhat
p9301
g3
tp9302
a(Vyear
p9303
g3
tp9304
a(Vwas
p9305
g3
tp9306
a(Vdanny
p9307
g3
tp9308
a(Vdevito
p9309
g3
tp9310
a(Vborn
p9311
g3
tp9312
aa(lp9313
(Vhow
p9314
g3
tp9315
a(Vmuch
p9316
g3
tp9317
a(Vdid
p9318
g3
tp9319
a(Vtransformers
p9320
g3
tp9321
a(Vcost
p9322
g3
tp9323
a(Vto
p9324
g3
tp9325
a(Vproduce
p9326
g3
tp9327
aa(lp9328
(Vwhere
p9329
g3
tp9330
a(Vis
p9331
g3
tp9332
a(Vthe
p9333
g3
tp9334
a(Vguardian
p9335
g3
tp9336
a(Vcirculated
p9337
g3
tp9338
aa(lp9339
(Vwhat
p9340
g3
tp9341
a(Vtype
p9342
g3
tp9343
a(Vof
p9344
g3
tp9345
a(Vbeer
p9346
g3
tp9347
a(Vis
p9348
g3
tp9349
a(Vmiller
p9350
g3
tp9351
a(Vlite
p9352
g3
tp9353
aa(lp9354
(Vwhat
p9355
g3
tp9356
a(Vis
p9357
g3
tp9358
a(Vthe
p9359
g3
tp9360
a(Vtemperature
p9361
g3
tp9362
a(Vof
p9363
g3
tp9364
a(Vpolaris
p9365
g3
tp9366
aa(lp9367
(Vwhat
p9368
g3
tp9369
a(Vare
p9370
g3
tp9371
a(Vdave
p9372
g3
tp9373
a(Vgrohl
p9374
g3
tp9375
a(V's
p9376
g3
tp9377
a(Vmusical
p9378
g3
tp9379
a(Vgenres
p9380
g3
tp9381
aa(lp9382
(Vwhat
p9383
g3
tp9384
a(Vis
p9385
g3
tp9386
a(Vcurrency
p9387
g3
tp9388
a(Vcode
p9389
g3
tp9390
a(Vfor
p9391
g3
tp9392
a(Vthe
p9393
g3
tp9394
a(Vsingapore
p9395
g3
tp9396
a(Vdollar
p9397
g3
tp9398
aa(lp9399
(Vwhat
p9400
g3
tp9401
a(Vmovies
p9402
g3
tp9403
a(Vwon
p9404
g3
tp9405
a(Vascap
p9406
g3
tp9407
a(Vfilm
p9408
g3
tp9409
a(Vand
p9410
g3
tp9411
a(Vtelevision
p9412
g3
tp9413
a(Vmusic
p9414
g3
tp9415
a(Vawards
p9416
g3
tp9417
a(Vfor
p9418
g3
tp9419
a(Vmost
p9420
g3
tp9421
a(Vperformed
p9422
g3
tp9423
a(Vsongs
p9424
g3
tp9425
a(Vfrom
p9426
g3
tp9427
a(Vmotion
p9428
g3
tp9429
a(Vpictures
p9430
g3
tp9431
aa(lp9432
(Vwhat
p9433
g3
tp9434
a(Vis
p9435
g3
tp9436
a(Vthe
p9437
g3
tp9438
a(Vscientific
p9439
g3
tp9440
a(Vname
p9441
g3
tp9442
a(Vfor
p9443
g3
tp9444
a(g15
g3
tp9445
a(Vhorse
p9446
g3
tp9447
aa(lp9448
(Vwhat
p9449
g3
tp9450
a(Vartists
p9451
g3
tp9452
a(Vare
p9453
g3
tp9454
a(Vinfluenced
p9455
g3
tp9456
a(Vby
p9457
g3
tp9458
a(Vlead
p9459
g3
tp9460
a(Vbelly
p9461
g3
tp9462
aa(lp9463
(Vhow
p9464
g3
tp9465
a(Vmany
p9466
g3
tp9467
a(Vfilm
p9468
g3
tp9469
a(Vproductions
p9470
g3
tp9471
a(Vdid
p9472
g3
tp9473
a(Vhayden
p9474
g3
tp9475
a(Vpanettiere
p9476
g3
tp9477
a(Vappear
p9478
g3
tp9479
a(Vin
p9480
g3
tp9481
aa(lp9482
(Vwhat
p9483
g3
tp9484
a(Vis
p9485
g3
tp9486
a(Vcurrency
p9487
g3
tp9488
a(Vcode
p9489
g3
tp9490
a(Vfor
p9491
g3
tp9492
a(Vthe
p9493
g3
tp9494
a(Vswedish
p9495
g3
tp9496
a(Vkrona
p9497
g3
tp9498
aa(lp9499
(Vwho
p9500
g3
tp9501
a(Vcoaches
p9502
g3
tp9503
a(Vthe
p9504
g3
tp9505
a(Vtoronto
p9506
g3
tp9507
a(Vmaple
p9508
g3
tp9509
a(Vleafs
p9510
g3
tp9511
aa(lp9512
(Vwho
p9513
g3
tp9514
a(Vwas
p9515
g3
tp9516
a(Vtitanic
p9517
g3
tp9518
a(Vproduced
p9519
g3
tp9520
a(Vby
p9521
g3
tp9522
aa(lp9523
(Vhow
p9524
g3
tp9525
a(Vmany
p9526
g3
tp9527
a(Vtopics
p9528
g3
tp9529
a(Vare
p9530
g3
tp9531
a(Vequivalent
p9532
g3
tp9533
a(Vto
p9534
g3
tp9535
a(Vcitytownvillage
p9536
g3
tp9537
aa(lp9538
(Vwhat
p9539
g3
tp9540
a(Vare
p9541
g3
tp9542
a(Vsome
p9543
g3
tp9544
a(Vcajun
p9545
g3
tp9546
a(Vdishes
p9547
g3
tp9548
aa(lp9549
(Vwho
p9550
g3
tp9551
a(Vdid
p9552
g3
tp9553
a(Vthe
p9554
g3
tp9555
a(Vcover
p9556
g3
tp9557
a(Vart
p9558
g3
tp9559
a(Vfor
p9560
g3
tp9561
a(Vbatman
p9562
g3
tp9563
a(V#
p9564
g3
tp9565
a(V477
p9566
g3
tp9567
aa(lp9568
(Vhow
p9569
g3
tp9570
a(Vmany
p9571
g3
tp9572
a(Vcountries
p9573
g3
tp9574
a(Vuse
p9575
g3
tp9576
a(Veuros
p9577
g3
tp9578
aa(lp9579
(Vhow
p9580
g3
tp9581
a(Vmany
p9582
g3
tp9583
a(Vstorms
p9584
g3
tp9585
a(Vwere
p9586
g3
tp9587
a(Vin
p9588
g3
tp9589
a(Vthe
p9590
g3
tp9591
a(V2005
p9592
g3
tp9593
a(Vatlantic
p9594
g3
tp9595
a(Vhurricane
p9596
g3
tp9597
a(Vseason
p9598
g3
tp9599
aa(lp9600
(Vwhat
p9601
g3
tp9602
a(Vwas
p9603
g3
tp9604
a(Vthe
p9605
g3
tp9606
a(Vstrongest
p9607
g3
tp9608
a(Vstorm
p9609
g3
tp9610
a(Vin
p9611
g3
tp9612
a(Vthe
p9613
g3
tp9614
a(V1992
p9615
g3
tp9616
a(Vatlantic
p9617
g3
tp9618
a(Vhurricane
p9619
g3
tp9620
a(Vseason
p9621
g3
tp9622
aa(lp9623
(Vwhen
p9624
g3
tp9625
a(Vdid
p9626
g3
tp9627
a(Vthe
p9628
g3
tp9629
a(Vapple
p9630
g3
tp9631
a(g5171
g3
tp9632
a(Vstop
p9633
g3
tp9634
a(Vbeing
p9635
g3
tp9636
a(Vsold
p9637
g3
tp9638
aa(lp9639
(Vwho
p9640
g3
tp9641
a(Vhas
p9642
g3
tp9643
a(Vheld
p9644
g3
tp9645
a(Vthe
p9646
g3
tp9647
a(Vtitle
p9648
g3
tp9649
a(Vof
p9650
g3
tp9651
a(Vwba
p9652
g3
tp9653
a(Vworld
p9654
g3
tp9655
a(Vchampion
p9656
g3
tp9657
aa(lp9658
(Vwho
p9659
g3
tp9660
a(Vstudied
p9661
g3
tp9662
a(Vmartial
p9663
g3
tp9664
a(Varts
p9665
g3
tp9666
a(Vunder
p9667
g3
tp9668
a(Vyip
p9669
g3
tp9670
a(Vman
p9671
g3
tp9672
aa(lp9673
(Vhow
p9674
g3
tp9675
a(Vmany
p9676
g3
tp9677
a(Vlosses
p9678
g3
tp9679
a(Vhas
p9680
g3
tp9681
a(Vsean
p9682
g3
tp9683
a(Vmiller
p9684
g3
tp9685
a(Vhad
p9686
g3
tp9687
a(Vin
p9688
g3
tp9689
a(Vhis
p9690
g3
tp9691
a(Vcareer
p9692
g3
tp9693
aa(lp9694
(Vwho
p9695
g3
tp9696
a(Vwrote
p9697
g3
tp9698
a(Vtravels
p9699
g3
tp9700
a(Vwith
p9701
g3
tp9702
a(Vmy
p9703
g3
tp9704
a(Vcello
p9705
g3
tp9706
aa(lp9707
(Vwho
p9708
g3
tp9709
a(Vwere
p9710
g3
tp9711
a(Vthe
p9712
g3
tp9713
a(Vparents
p9714
g3
tp9715
a(Vof
p9716
g3
tp9717
a(Vferdinand
p9718
g3
tp9719
a(Vii
p9720
g3
tp9721
aa(lp9722
(Vwho
p9723
g3
tp9724
a(Voperates
p9725
g3
tp9726
a(Vthe
p9727
g3
tp9728
a(Vsilver
p9729
g3
tp9730
a(Vstar
p9731
g3
tp9732
a(Vrailway
p9733
g3
tp9734
aa(lp9735
(Vwhat
p9736
g3
tp9737
a(Vlabels
p9738
g3
tp9739
a(Vdoes
p9740
g3
tp9741
a(Vsarah
p9742
g3
tp9743
a(Vjessica
p9744
g3
tp9745
a(Vparker
p9746
g3
tp9747
a(Vwear
p9748
g3
tp9749
aa(lp9750
(Vwhat
p9751
g3
tp9752
a(Vawards
p9753
g3
tp9754
a(Vhas
p9755
g3
tp9756
a(Vlost
p9757
g3
tp9758
a(Vwon
p9759
g3
tp9760
aa(lp9761
(Vwhat
p9762
g3
tp9763
a(Vingredients
p9764
g3
tp9765
a(Vare
p9766
g3
tp9767
a(Vin
p9768
g3
tp9769
a(Vitalian
p9770
g3
tp9771
a(Vcuisine
p9772
g3
tp9773
aa(lp9774
(Vwhat
p9775
g3
tp9776
a(Vis
p9777
g3
tp9778
a(Vthe
p9779
g3
tp9780
a(Vmax
p9781
g3
tp9782
a(Vspeed
p9783
g3
tp9784
a(Vof
p9785
g3
tp9786
a(g15
g3
tp9787
a(Vcollins
p9788
g3
tp9789
a(Vclass
p9790
g3
tp9791
a(Vsubmarine
p9792
g3
tp9793
aa(lp9794
(Vwhat
p9795
g3
tp9796
a(Vcountry
p9797
g3
tp9798
a(Vdoes
p9799
g3
tp9800
a(Vthe
p9801
g3
tp9802
a(Vroyal
p9803
g3
tp9804
a(Vnavy
p9805
g3
tp9806
a(Vbelong
p9807
g3
tp9808
a(Vto
p9809
g3
tp9810
aa(lp9811
(Vwho
p9812
g3
tp9813
a(Vplayed
p9814
g3
tp9815
a(Vin
p9816
g3
tp9817
a(Vthe
p9818
g3
tp9819
a(V1973
p9820
g3
tp9821
a(Vfa
p9822
g3
tp9823
a(Vcup
p9824
g3
tp9825
a(Vfinal
p9826
g3
tp9827
aa(lp9828
(Vhow
p9829
g3
tp9830
a(Vmany
p9831
g3
tp9832
a(Vteams
p9833
g3
tp9834
a(Vdid
p9835
g3
tp9836
a(Vjim
p9837
g3
tp9838
a(Vthorpe
p9839
g3
tp9840
a(Vplay
p9841
g3
tp9842
a(Vfor
p9843
g3
tp9844
aa(lp9845
(Vwhat
p9846
g3
tp9847
a(Vare
p9848
g3
tp9849
a(Vsacred
p9850
g3
tp9851
a(Vsites
p9852
g3
tp9853
a(Vin
p9854
g3
tp9855
a(Vsunni
p9856
g3
tp9857
a(Vislam
p9858
g3
tp9859
aa(lp9860
(Vwho
p9861
g3
tp9862
a(Vproduced
p9863
g3
tp9864
a(Vcountry
p9865
g3
tp9866
a(Vtime
p9867
g3
tp9868
aa(lp9869
(Vwhat
p9870
g3
tp9871
a(Vare
p9872
g3
tp9873
a(Vsome
p9874
g3
tp9875
a(Vgerman
p9876
g3
tp9877
a(Vbeers
p9878
g3
tp9879
aa(lp9880
(Vwhat
p9881
g3
tp9882
a(Vis
p9883
g3
tp9884
a(Vthe
p9885
g3
tp9886
a(Vcurrency
p9887
g3
tp9888
a(Vcode
p9889
g3
tp9890
a(Vfor
p9891
g3
tp9892
a(Vthe
p9893
g3
tp9894
a(Vindonesian
p9895
g3
tp9896
a(Vrupiah
p9897
g3
tp9898
aa(lp9899
(Vwhat
p9900
g3
tp9901
a(Vis
p9902
g3
tp9903
a(Vsarah
p9904
VPERSON
p9905
tp9906
a(Vjessica
p9907
VPERSON
p9908
tp9909
a(Vparker
p9910
VPERSON
p9911
tp9912
a(V's
p9913
g3
tp9914
a(Vhobby
p9915
g3
tp9916
aa(lp9917
(Vwhat
p9918
g3
tp9919
a(Vfictional
p9920
g3
tp9921
a(Vcharacters
p9922
g3
tp9923
a(Vhave
p9924
g3
tp9925
a(Vattended
p9926
g3
tp9927
a(Voxford
p9928
g3
tp9929
aa(lp9930
(Vhow
p9931
g3
tp9932
a(Vmany
p9933
g3
tp9934
a(Vpeople
p9935
g3
tp9936
a(Vdied
p9937
g3
tp9938
a(Vin
p9939
g3
tp9940
a(Vthe
p9941
g3
tp9942
a(Vboston
p9943
g3
tp9944
a(Vmolasses
p9945
g3
tp9946
a(Vdisaster
p9947
g3
tp9948
aa(lp9949
(Vwhat
p9950
g3
tp9951
a(Vposition
p9952
g3
tp9953
a(Vdoes
p9954
g3
tp9955
a(Vkeyon
p9956
g3
tp9957
a(Vdooling
p9958
g3
tp9959
a(Vplay
p9960
g3
tp9961
aa(lp9962
(Vhow
p9963
g3
tp9964
a(Vmany
p9965
g3
tp9966
a(Voscar
p9967
g3
tp9968
a(Vshows
p9969
g3
tp9970
a(Vdid
p9971
g3
tp9972
a(Vfrank
p9973
g3
tp9974
a(Vsinatra
p9975
g3
tp9976
a(Vhost
p9977
g3
tp9978
aa(lp9979
(Vwhere
p9980
g3
tp9981
a(Vwas
p9982
g3
tp9983
a(Vthe
p9984
g3
tp9985
a(Vcross
p9986
g3
tp9987
a(Vof
p9988
g3
tp9989
a(Vgold
p9990
g3
tp9991
a(Vspeech
p9992
g3
tp9993
a(Vpresented
p9994
g3
tp9995
aa(lp9996
(Vwhen
p9997
g3
tp9998
a(Vdid
p9999
g3
tp10000
a(Vhurricane
p10001
g3
tp10002
a(Vandrew
p10003
g3
tp10004
a(Vform
p10005
g3
tp10006
aa(lp10007
(Vwho
p10008
g3
tp10009
a(Vdesigned
p10010
g3
tp10011
a(Vthe
p10012
g3
tp10013
a(Vrolls-royce
p10014
g3
tp10015
a(Vwelland
p10016
g3
tp10017
aa(lp10018
(Vhow
p10019
g3
tp10020
a(Vmany
p10021
g3
tp10022
a(Vcancer
p10023
g3
tp10024
a(Vcenters
p10025
g3
tp10026
a(Vare
p10027
g3
tp10028
a(Vcomprehensive
p10029
g3
tp10030
aa(lp10031
(Vhow
p10032
g3
tp10033
a(Vmany
p10034
g3
tp10035
a(Valbums
p10036
g3
tp10037
a(Vhas
p10038
g3
tp10039
a(Vfleet
p10040
g3
tp10041
a(Vfoxes
p10042
g3
tp10043
a(Vreleased
p10044
g3
tp10045
aa(lp10046
(Vwhat
p10047
g3
tp10048
a(Vis
p10049
g3
tp10050
a(Vthe
p10051
g3
tp10052
a(Vearth
p10053
g3
tp10054
a(V's
p10055
g3
tp10056
a(Varea
p10057
g3
tp10058
aa(lp10059
(Vhow
p10060
g3
tp10061
a(Vmany
p10062
g3
tp10063
a(Vother
p10064
g3
tp10065
a(Vnames
p10066
g3
tp10067
a(Vare
p10068
g3
tp10069
a(Vthere
p10070
g3
tp10071
a(Vfor
p10072
g3
tp10073
a(Vthe
p10074
g3
tp10075
a(Vusa_s
p10076
g3
tp10077
a(Vcurrency
p10078
g3
tp10079
aa(lp10080
(Vwho
p10081
g3
tp10082
a(Vhas
p10083
g3
tp10084
a(Vportrayed
p10085
g3
tp10086
a(Vjames
p10087
g3
tp10088
a(Vbond
p10089
g3
tp10090
a(Vin
p10091
g3
tp10092
a(Vfilm
p10093
g3
tp10094
aa(lp10095
(Vwhat
p10096
g3
tp10097
a(Vis
p10098
g3
tp10099
a(Vthe
p10100
g3
tp10101
a(Vslogan
p10102
g3
tp10103
a(Vof
p10104
g3
tp10105
a(Vbmw
p10106
g3
tp10107
aa(lp10108
(Vwhen
p10109
g3
tp10110
a(Vdid
p10111
g3
tp10112
a(Vrobin
p10113
g3
tp10114
a(Vwilliams
p10115
g3
tp10116
a(Vstop
p10117
g3
tp10118
a(Vabusing
p10119
g3
tp10120
a(Vcocaine
p10121
g3
tp10122
aa(lp10123
(Vhow
p10124
g3
tp10125
a(Vtall
p10126
g3
tp10127
a(Vis
p10128
g3
tp10129
a(Vthe
p10130
g3
tp10131
a(Vyou
p10132
g3
tp10133
a(Vonly
p10134
g3
tp10135
a(Vlive
p10136
g3
tp10137
a(Vonce
p10138
g3
tp10139
a(Vimage
p10140
g3
tp10141
aa(lp10142
(Vwhat
p10143
g3
tp10144
a(Vis
p10145
g3
tp10146
a(Vthe
p10147
g3
tp10148
a(Vvoltage
p10149
g3
tp10150
a(Vof
p10151
g3
tp10152
a(g15
g3
tp10153
a(Vaa
p10154
g3
tp10155
a(Valkaline
p10156
g3
tp10157
a(Vbattery
p10158
g3
tp10159
aa(lp10160
(Vhow
p10161
g3
tp10162
a(Vmany
p10163
g3
tp10164
a(Vstages
p10165
g3
tp10166
a(Vof
p10167
g3
tp10168
a(Vbreast
p10169
g3
tp10170
a(Vcancer
p10171
g3
tp10172
a(Vare
p10173
g3
tp10174
a(Vthere
p10175
g3
tp10176
aa(lp10177
(Vwhat
p10178
g3
tp10179
a(Vlanguages
p10180
g3
tp10181
a(Vare
p10182
g3
tp10183
a(Vspoken
p10184
g3
tp10185
a(Vin
p10186
g3
tp10187
a(Vfirefly
p10188
g3
tp10189
aa(lp10190
(Vwhen
p10191
g3
tp10192
a(Vwas
p10193
g3
tp10194
a(Vthe
p10195
g3
tp10196
a(Vfrida
p10197
g3
tp10198
a(Vkahlo
p10199
g3
tp10200
a(Vexhibit
p10201
g3
tp10202
a(Vat
p10203
g3
tp10204
a(Vthe
p10205
g3
tp10206
a(Vphiladelphia
p10207
g3
tp10208
a(Vart
p10209
g3
tp10210
a(Vmuseum
p10211
g3
tp10212
aa(lp10213
(Vwhen
p10214
g3
tp10215
a(Vwas
p10216
g3
tp10217
a(Vstove
p10218
g3
tp10219
a(Vtop
p10220
g3
tp10221
a(Vstuffing
p10222
g3
tp10223
a(Vintroduced
p10224
g3
tp10225
aa(lp10226
(Vhow
p10227
g3
tp10228
a(Vmany
p10229
g3
tp10230
a(Vunits
p10231
g3
tp10232
a(Vdoes
p10233
g3
tp10234
a(Vthe
p10235
g3
tp10236
a(Vus
p10237
g3
tp10238
a(Varmy
p10239
g3
tp10240
a(Vhave
p10241
g3
tp10242
aa(lp10243
(Vwho
p10244
g3
tp10245
a(Vwas
p10246
g3
tp10247
a(Vthe
p10248
g3
tp10249
a(Vnutty
p10250
g3
tp10251
a(Vprofessor
p10252
g3
tp10253
a(Vproduced
p10254
g3
tp10255
a(Vby
p10256
g3
tp10257
aa(lp10258
(Vhow
p10259
g3
tp10260
a(Vmany
p10261
g3
tp10262
a(Vdocumentaries
p10263
g3
tp10264
a(Vare
p10265
g3
tp10266
a(Vthere
p10267
g3
tp10268
a(Von
p10269
g3
tp10270
a(Vnetflix
p10271
g3
tp10272
aa(lp10273
(Vwho
p10274
g3
tp10275
a(Vare
p10276
g3
tp10277
a(Vthe
p10278
g3
tp10279
a(Vcurrent
p10280
g3
tp10281
a(Vsenators
p10282
g3
tp10283
a(Vof
p10284
g3
tp10285
a(Vcolorado
p10286
g3
tp10287
aa(lp10288
(Vhow
p10289
g3
tp10290
a(Vmany
p10291
g3
tp10292
a(Vsongs
p10293
g3
tp10294
a(Vare
p10295
g3
tp10296
a(Vthere
p10297
g3
tp10298
a(Vfor
p10299
g3
tp10300
a(Vguitar
p10301
g3
tp10302
a(Vhero
p10303
g3
tp10304
a(g1158
g3
tp10305
a(Vaerosmith
p10306
g3
tp10307
aa(lp10308
(Vwhat
p10309
g3
tp10310
a(Vis
p10311
g3
tp10312
a(Vlamarcus
p10313
g3
tp10314
a(Valdridge
p10315
g3
tp10316
a(V's
p10317
g3
tp10318
a(Vnumber
p10319
g3
tp10320
aa(lp10321
(Vwhat
p10322
g3
tp10323
a(Vare
p10324
g3
tp10325
a(Vthe
p10326
g3
tp10327
a(Vsub-types
p10328
g3
tp10329
a(Vof
p10330
g3
tp10331
a(Vcoal
p10332
g3
tp10333
aa(lp10334
(Vhow
p10335
g3
tp10336
a(Vmany
p10337
g3
tp10338
a(Vbooks
p10339
g3
tp10340
a(Vare
p10341
g3
tp10342
a(Vthere
p10343
g3
tp10344
a(Vwritten
p10345
g3
tp10346
a(Von
p10347
g3
tp10348
a(Vcomputer
p10349
g3
tp10350
a(Vprogramming
p10351
g3
tp10352
aa(lp10353
(Vwhere
p10354
g3
tp10355
a(Vdid
p10356
g3
tp10357
a(Vthe
p10358
g3
tp10359
a(Vrolling
p10360
g3
tp10361
a(Vstones
p10362
g3
tp10363
a(V2009
p10364
g3
tp10365
a(Vconcert
p10366
g3
tp10367
a(Vtour
p10368
g3
tp10369
a(Vtake
p10370
g3
tp10371
a(Vplace
p10372
g3
tp10373
aa(lp10374
(Vwhat
p10375
g3
tp10376
a(Vis
p10377
g3
tp10378
a(Vthe
p10379
g3
tp10380
a(Velectric
p10381
g3
tp10382
a(Vcharge
p10383
g3
tp10384
a(Vof
p10385
g3
tp10386
a(g15
g3
tp10387
a(Vproton
p10388
g3
tp10389
aa(lp10390
(Vwhen
p10391
g3
tp10392
a(Vwas
p10393
g3
tp10394
a(Vmacintosh
p10395
g3
tp10396
a(Vintroduced
p10397
g3
tp10398
aa(lp10399
(Vhow
p10400
g3
tp10401
a(Vmany
p10402
g3
tp10403
a(Vworks
p10404
g3
tp10405
a(Vdid
p10406
g3
tp10407
a(Vmozart
p10408
g3
tp10409
a(Vdedicate
p10410
g3
tp10411
a(Vto
p10412
g3
tp10413
a(Vjoseph
p10414
g3
tp10415
a(Vhaydn
p10416
g3
tp10417
aa(lp10418
(Vwhat
p10419
g3
tp10420
a(Vis
p10421
g3
tp10422
a(Vthe
p10423
g3
tp10424
a(Vsubject
p10425
g3
tp10426
a(Vof
p10427
g3
tp10428
a(V13
p10429
g3
tp10430
a(Vgoing
p10431
g3
tp10432
a(Von
p10433
g3
tp10434
a(V30
p10435
g3
tp10436
aa(lp10437
(Vwho
p10438
g3
tp10439
a(Vhas
p10440
g3
tp10441
a(Vinfluenced
p10442
g3
tp10443
a(Vstephen
p10444
g3
tp10445
a(Vfry
p10446
g3
tp10447
aa(lp10448
(Vwho
p10449
g3
tp10450
a(Vis
p10451
g3
tp10452
a(Vthe
p10453
g3
tp10454
a(Vcostume
p10455
g3
tp10456
a(Vdesigner
p10457
g3
tp10458
a(Vfor
p10459
g3
tp10460
a(Vbruce
p10461
g3
tp10462
a(Valmighty
p10463
g3
tp10464
aa(lp10465
(Vwho
p10466
g3
tp10467
a(Vwrote
p10468
g3
tp10469
a(Vthe
p10470
g3
tp10471
a(Vepisode
p10472
g3
tp10473
a(Vstraight
p10474
g3
tp10475
a(Vand
p10476
g3
tp10477
a(Vtrue
p10478
g3
tp10479
a(Vof
p10480
g3
tp10481
a(Vthe
p10482
g3
tp10483
a(Vwire
p10484
g3
tp10485
aa.