(lp0
(lp1
(Vhow
p2
VO
p3
tp4
a(Vmany
p5
g3
tp6
a(Vtv
p7
g3
tp8
a(Vprograms
p9
g3
tp10
a(Vdid
p11
g3
tp12
a(VDanny
p13
VPERSON
p14
tp15
a(VdeVito
p16
VPERSON
p17
tp18
a(Vproduce
p19
g3
tp20
aa(lp21
(Vhow
p22
g3
tp23
a(Vmany
p24
g3
tp25
a(Vcountries
p26
g3
tp27
a(Vare
p28
g3
tp29
a(Vin
p30
g3
tp31
a(VSouth
p32
VLOCATION
p33
tp34
a(VAmerica
p35
VLOCATION
p36
tp37
aa(lp38
(Vwhat
p39
g3
tp40
a(Vproduct
p41
g3
tp42
a(Vlines
p43
g3
tp44
a(Vdoes
p45
g3
tp46
a(ViPod
p47
g3
tp48
a(Vinclude
p49
g3
tp50
aa(lp51
(Vwhen
p52
g3
tp53
a(Vwas
p54
g3
tp55
a(Vstarry
p56
g3
tp57
a(Vnight
p58
g3
tp59
a(Vpainted
p60
g3
tp61
aa(lp62
(Vwhen
p63
g3
tp64
a(Vwas
p65
g3
tp66
a(VInterstate
p67
g3
tp68
a(V579
p69
g3
tp70
a(Vformed
p71
g3
tp72
aa(lp73
(Vwhat
p74
g3
tp75
a(Varea
p76
g3
tp77
a(Vdid
p78
g3
tp79
a(Vthe
p80
g3
tp81
a(Vmeiji
p82
g3
tp83
a(Vconstitution
p84
g3
tp85
a(Vgovern
p86
g3
tp87
aa(lp88
(Vwho
p89
g3
tp90
a(Vis
p91
g3
tp92
a(Vthe
p93
g3
tp94
a(Vlyricist
p95
g3
tp96
a(Vfor
p97
g3
tp98
a(Vspamalot
p99
g3
tp100
aa(lp101
(Vwhat
p102
g3
tp103
a(Vis
p104
g3
tp105
a(VYahoo
p106
g3
tp107
a(V!
p108
g3
tp109
a(V's
p110
g3
tp111
a(Vslogan
p112
g3
tp113
aa(lp114
(Vwhat
p115
g3
tp116
a(Vis
p117
g3
tp118
a(Vthe
p119
g3
tp120
a(Vpopulation
p121
g3
tp122
a(Vof
p123
g3
tp124
a(VBelgium
p125
VLOCATION
p126
tp127
aa(lp128
(Vwho
p129
g3
tp130
a(Vis
p131
g3
tp132
a(Vthe
p133
g3
tp134
a(Vfounder
p135
g3
tp136
a(Vof
p137
g3
tp138
a(Vsavealot
p139
g3
tp140
aa(lp141
(Vwhat
p142
g3
tp143
a(Vlibrary
p144
g3
tp145
a(Vsystem
p146
g3
tp147
a(Vis
p148
g3
tp149
a(Vthe
p150
g3
tp151
a(Vsunset
p152
g3
tp153
a(Vbranch
p154
g3
tp155
a(Vlibrary
p156
g3
tp157
a(Vin
p158
g3
tp159
aa(lp160
(Vwhere
p161
g3
tp162
a(Vwas
p163
g3
tp164
a(Vthe
p165
g3
tp166
a(V3
p167
g3
tp168
a(Vjuno
p169
g3
tp170
a(Vasteroid
p171
g3
tp172
a(Vdiscovered
p173
g3
tp174
aa(lp175
(Vwhat
p176
g3
tp177
a(Vis
p178
g3
tp179
a(Vthe
p180
g3
tp181
a(Vpopulation
p182
g3
tp183
a(Vof
p184
g3
tp185
a(VEurope
p186
VLOCATION
p187
tp188
aa(lp189
(Vwhat
p190
g3
tp191
a(Vweight
p192
g3
tp193
a(Vclass
p194
g3
tp195
a(Vwas
p196
g3
tp197
a(Vthe
p198
g3
tp199
a(Vfight
p200
g3
tp201
a(Vof
p202
g3
tp203
a(Vthe
p204
g3
tp205
a(Vcentury
p206
g3
tp207
aa(lp208
(Vwho
p209
g3
tp210
a(Vdesigned
p211
g3
tp212
a(VPac-man
p213
g3
tp214
aa(lp215
(Vwhen
p216
g3
tp217
a(Vwas
p218
g3
tp219
a(Vthe
p220
g3
tp221
a(Vorder
p222
g3
tp223
a(Vof
p224
g3
tp225
a(VSaint
p226
g3
tp227
a(VMichael
p228
VPERSON
p229
tp230
a(Vfounded
p231
g3
tp232
aa(lp233
(Vwhat
p234
g3
tp235
a(Vis
p236
g3
tp237
a(Vthe
p238
g3
tp239
a(Vcollection
p240
g3
tp241
a(Vof
p242
g3
tp243
a(Vpostcards
p244
g3
tp245
a(Vcalled
p246
g3
tp247
aa(lp248
(Vwhat
p249
g3
tp250
a(Vyear
p251
g3
tp252
a(Vwas
p253
g3
tp254
a(VRon
p255
VPERSON
p256
tp257
a(VGlass
p258
VPERSON
p259
tp260
a(Van
p261
g3
tp262
a(Vaward
p263
g3
tp264
a(Vnominee
p265
g3
tp266
aa(lp267
(Vwhat
p268
g3
tp269
a(V's
p270
g3
tp271
a(Vthe
p272
g3
tp273
a(Vhorsepower
p274
g3
tp275
a(Vof
p276
g3
tp277
a(Van
p278
g3
tp279
a(Valluminum-alloy
p280
g3
tp281
a(Vv6
p282
g3
tp283
a(Vengine
p284
g3
tp285
aa(lp286
(Vwhat
p287
g3
tp288
a(Vcauses
p289
g3
tp290
a(Vprostate
p291
g3
tp292
a(Vcancer
p293
g3
tp294
aa(lp295
(Vwhen
p296
g3
tp297
a(Vwas
p298
g3
tp299
a(Vthe
p300
g3
tp301
a(ViPhone
p302
g3
tp303
a(Vintroduced
p304
g3
tp305
aa(lp306
(Vin
p307
g3
tp308
a(Vwhat
p309
g3
tp310
a(Vmartial
p311
g3
tp312
a(Vart
p313
g3
tp314
a(Vdoes
p315
g3
tp316
a(VChristopher
p317
VPERSON
p318
tp319
a(VAdams
p320
VPERSON
p321
tp322
a(Vhave
p323
g3
tp324
a(Va
p325
g3
tp326
a(Vblack
p327
g3
tp328
a(Vbelt
p329
g3
tp330
aa(lp331
(Vwho
p332
g3
tp333
a(Vwas
p334
g3
tp335
a(Vthe
p336
g3
tp337
a(Vlibrettist
p338
g3
tp339
a(Vfor
p340
g3
tp341
a(Vthe
p342
g3
tp343
a(Vmagic
p344
g3
tp345
a(Vflute
p346
g3
tp347
aa(lp348
(Vwhat
p349
g3
tp350
a(Vepisode
p351
g3
tp352
a(Vof
p353
g3
tp354
a(Vsnl
p355
g3
tp356
a(Vdid
p357
g3
tp358
a(VBen
p359
VPERSON
p360
tp361
a(VStiller
p362
VPERSON
p363
tp364
a(Vhost
p365
g3
tp366
aa(lp367
(Vwho
p368
g3
tp369
a(Vcreated
p370
g3
tp371
a(Vthe
p372
g3
tp373
a(Vphilosopher_s
p374
g3
tp375
a(Vstone
p376
g3
tp377
aa(lp378
(Vhow
p379
g3
tp380
a(Vmany
p381
g3
tp382
a(Vorganizations
p383
g3
tp384
a(Vare
p385
g3
tp386
a(Vin
p387
g3
tp388
a(Vthe
p389
g3
tp390
a(Vautomobile
p391
g3
tp392
a(Vindustry
p393
g3
tp394
aa(lp395
(Vwhat
p396
g3
tp397
a(Vwas
p398
g3
tp399
a(VProcter
p400
VORGANIZATION
p401
tp402
a(V&
p403
VORGANIZATION
p404
tp405
a(VGamble
p406
VORGANIZATION
p407
tp408
a(V's
p409
g3
tp410
a(Vnet
p411
g3
tp412
a(Vprofit
p413
g3
tp414
a(Vin
p415
g3
tp416
a(V1955
p417
g3
tp418
aa(lp419
(Vwhat
p420
g3
tp421
a(Vis
p422
g3
tp423
a(Vcurrency
p424
g3
tp425
a(Vcode
p426
g3
tp427
a(Vfor
p428
g3
tp429
a(VUK
p430
VLOCATION
p431
tp432
a(Vcurrency
p433
g3
tp434
aa(lp435
(Vwhat
p436
g3
tp437
a(V's
p438
g3
tp439
a(Vthe
p440
g3
tp441
a(Vsymbol
p442
g3
tp443
a(Vfor
p444
g3
tp445
a(Vmercury
p446
g3
tp447
aa(lp448
(Vwhat
p449
g3
tp450
a(Vis
p451
g3
tp452
a(VJerry
p453
VPERSON
p454
tp455
a(VSeinfeld
p456
VPERSON
p457
tp458
a(Vreligion
p459
g3
tp460
aa(lp461
(Vhow
p462
g3
tp463
a(Vbig
p464
g3
tp465
a(Vis
p466
g3
tp467
a(Vthe
p468
g3
tp469
a(Vscreen
p470
g3
tp471
a(Von
p472
g3
tp473
a(g325
g3
tp474
a(VNikon
p475
VORGANIZATION
p476
tp477
a(VCoolpix
p478
VORGANIZATION
p479
tp480
a(VS50
p481
g3
tp482
aa(lp483
(Vhow
p484
g3
tp485
a(Vmany
p486
g3
tp487
a(Vspeeches
p488
g3
tp489
a(Vdid
p490
g3
tp491
a(VWinston
p492
VPERSON
p493
tp494
a(VChurchill
p495
VPERSON
p496
tp497
a(Vgive
p498
g3
tp499
aa(lp500
(Vhow
p501
g3
tp502
a(Vmany
p503
g3
tp504
a(Vreligions
p505
g3
tp506
a(Vuse
p507
g3
tp508
a(Vthe
p509
g3
tp510
a(Vbible
p511
g3
tp512
aa(lp513
(Vwhat
p514
g3
tp515
a(Vis
p516
g3
tp517
a(Vthe
p518
g3
tp519
a(Vcapital
p520
g3
tp521
a(Vof
p522
g3
tp523
a(VIceland
p524
VLOCATION
p525
tp526
aa(lp527
(Vwhat
p528
g3
tp529
a(Vpublic
p530
g3
tp531
a(Vtransportation
p532
g3
tp533
a(Vis
p534
g3
tp535
a(Vthere
p536
g3
tp537
a(Vin
p538
g3
tp539
a(VTokyo
p540
VLOCATION
p541
tp542
aa(lp543
(Vwhat
p544
g3
tp545
a(Vis
p546
g3
tp547
a(VEurope
p548
VLOCATION
p549
tp550
a(V's
p551
g3
tp552
a(Varea
p553
g3
tp554
aa(lp555
(Vhow
p556
g3
tp557
a(Vmany
p558
g3
tp559
a(Vplayers
p560
g3
tp561
a(Vare
p562
g3
tp563
a(Vin
p564
g3
tp565
a(Vthe
p566
g3
tp567
a(Vcurrent
p568
g3
tp569
a(Vroster
p570
g3
tp571
a(Vof
p572
g3
tp573
a(Vthe
p574
g3
tp575
a(VNew
p576
VORGANIZATION
p577
tp578
a(VYork
p579
VORGANIZATION
p580
tp581
a(VMets
p582
VORGANIZATION
p583
tp584
aa(lp585
(Vwhat
p586
g3
tp587
a(Vare
p588
g3
tp589
a(Vthe
p590
g3
tp591
a(Vtreatments
p592
g3
tp593
a(Vof
p594
g3
tp595
a(Vprostate
p596
g3
tp597
a(Vcancer
p598
g3
tp599
aa(lp600
(Vwhere
p601
g3
tp602
a(Vwas
p603
g3
tp604
a(Vthe
p605
g3
tp606
a(Vpeseta
p607
g3
tp608
a(Vused
p609
g3
tp610
a(Vas
p611
g3
tp612
a(Vcurrency
p613
g3
tp614
aa(lp615
(Vwhat
p616
g3
tp617
a(Vis
p618
g3
tp619
a(Vthe
p620
g3
tp621
a(Vcurrency
p622
g3
tp623
a(Vcode
p624
g3
tp625
a(Vfor
p626
g3
tp627
a(Vthe
p628
g3
tp629
a(Vspanish
p630
g3
tp631
a(Vpeseta
p632
g3
tp633
aa(lp634
(Vhow
p635
g3
tp636
a(Vmany
p637
g3
tp638
a(Vawards
p639
g3
tp640
a(Vdid
p641
g3
tp642
a(Vbig
p643
g3
tp644
a(Vdaddy
p645
g3
tp646
a(Vwin
p647
g3
tp648
aa(lp649
(Vwhat
p650
g3
tp651
a(Vbridges
p652
g3
tp653
a(Vgo
p654
g3
tp655
a(Vover
p656
g3
tp657
a(Vthe
p658
g3
tp659
a(VSan
p660
VLOCATION
p661
tp662
a(VFrancisco
p663
VLOCATION
p664
tp665
a(VBay
p666
VLOCATION
p667
tp668
aa(lp669
(Vhow
p670
g3
tp671
a(Vmany
p672
g3
tp673
a(Vnotable
p674
g3
tp675
a(Vpeople
p676
g3
tp677
a(Vdied
p678
g3
tp679
a(Vby
p680
g3
tp681
a(Vpoisoning
p682
g3
tp683
aa(lp684
(Vwhat
p685
g3
tp686
a(Vparks
p687
g3
tp688
a(Vare
p689
g3
tp690
a(Vin
p691
g3
tp692
a(Vthe
p693
g3
tp694
a(Vcanadian
p695
g3
tp696
a(Vnational
p697
g3
tp698
a(Vparks
p699
g3
tp700
a(Vsystem
p701
g3
tp702
aa(lp703
(Vwho
p704
g3
tp705
a(Vinstructed
p706
g3
tp707
a(VSteven
p708
VPERSON
p709
tp710
a(VSeagal
p711
VPERSON
p712
tp713
aa(lp714
(Vwhen
p715
g3
tp716
a(Vdid
p717
g3
tp718
a(Vthe
p719
g3
tp720
a(Vlast
p721
g3
tp722
a(Vepisode
p723
g3
tp724
a(Vof
p725
g3
tp726
a(Vsix
p727
g3
tp728
a(Vfeet
p729
g3
tp730
a(Vunder
p731
g3
tp732
a(Vair
p733
g3
tp734
aa(lp735
(Vhow
p736
g3
tp737
a(Vmany
p738
g3
tp739
a(Vmajor
p740
g3
tp741
a(Vevents
p742
g3
tp743
a(Vhappened
p744
g3
tp745
a(Vin
p746
g3
tp747
a(VAustralia
p748
VLOCATION
p749
tp750
aa(lp751
(Vhow
p752
g3
tp753
a(Vmany
p754
g3
tp755
a(Vreligions
p756
g3
tp757
a(Vbelieve
p758
g3
tp759
a(Vin
p760
g3
tp761
a(Vreincarnation
p762
g3
tp763
aa(lp764
(Vwhat
p765
g3
tp766
a(Vother
p767
g3
tp768
a(Vtitles
p769
g3
tp770
a(Vdoes
p771
g3
tp772
a(V13
p773
g3
tp774
a(Vgoing
p775
g3
tp776
a(Von
p777
g3
tp778
a(V30
p779
g3
tp780
a(Vhave
p781
g3
tp782
aa(lp783
(Vhow
p784
g3
tp785
a(Vmany
p786
g3
tp787
a(Vwriting
p788
g3
tp789
a(Vsystems
p790
g3
tp791
a(Vare
p792
g3
tp793
a(Vused
p794
g3
tp795
a(Vin
p796
g3
tp797
a(Vjapanese
p798
g3
tp799
aa(lp800
(Vwho
p801
g3
tp802
a(Vis
p803
g3
tp804
a(Vthe
p805
g3
tp806
a(Vceo
p807
g3
tp808
a(Vof
p809
g3
tp810
a(VSavealot
p811
VLOCATION
p812
tp813
aa(lp814
(Vwhat
p815
g3
tp816
a(Vstarts
p817
g3
tp818
a(Vare
p819
g3
tp820
a(Vin
p821
g3
tp822
a(Vursa
p823
g3
tp824
a(Vminor
p825
g3
tp826
aa(lp827
(Vhow
p828
g3
tp829
a(Vmany
p830
g3
tp831
a(Vconferences
p832
g3
tp833
a(Vhave
p834
g3
tp835
a(Vbeen
p836
g3
tp837
a(Vheld
p838
g3
tp839
a(Vat
p840
g3
tp841
a(Vthe
p842
g3
tp843
a(VLos
p844
VLOCATION
p845
tp846
a(VAngeles
p847
VLOCATION
p848
tp849
a(Vconvention
p850
g3
tp851
a(Vcenter
p852
g3
tp853
aa(lp854
(Vwhen
p855
g3
tp856
a(Vwas
p857
g3
tp858
a(Vdiet
p859
g3
tp860
a(VMountain
p861
g3
tp862
a(VDew
p863
g3
tp864
a(Vcreated
p865
g3
tp866
aa(lp867
(Vwhat
p868
g3
tp869
a(Vare
p870
g3
tp871
a(Vsome
p872
g3
tp873
a(Vmountain
p874
g3
tp875
a(Vbike
p876
g3
tp877
a(Vmodels
p878
g3
tp879
aa(lp880
(Vhow
p881
g3
tp882
a(Vmany
p883
g3
tp884
a(Vfilms
p885
g3
tp886
a(Vhas
p887
g3
tp888
a(VJulie
p889
VPERSON
p890
tp891
a(VAndrews
p892
VPERSON
p893
tp894
a(Vbeen
p895
g3
tp896
a(Vin
p897
g3
tp898
aa(lp899
(Vwho
p900
g3
tp901
a(Vdesigned
p902
g3
tp903
a(Vthe
p904
g3
tp905
a(Vcostumes
p906
g3
tp907
a(Vfor
p908
g3
tp909
a(Valice
p910
g3
tp911
a(Vin
p912
g3
tp913
a(Vwonderland
p914
g3
tp915
aa(lp916
(Vwhat
p917
g3
tp918
a(Vmountain
p919
g3
tp920
a(Vrange
p921
g3
tp922
a(Vis
p923
g3
tp924
a(VKing
p925
g3
tp926
a(VEdward
p927
VPERSON
p928
tp929
a(VPeak
p930
VPERSON
p931
tp932
a(Vin
p933
g3
tp934
aa(lp935
(Vwhat
p936
g3
tp937
a(Vare
p938
g3
tp939
a(Vsome
p940
g3
tp941
a(Vhotels
p942
g3
tp943
a(Vin
p944
g3
tp945
a(VVancouver
p946
VLOCATION
p947
tp948
aa(lp949
(Vwhat
p950
g3
tp951
a(Vyear
p952
g3
tp953
a(Vwere
p954
g3
tp955
a(Vthe
p956
g3
tp957
a(VNY
p958
VORGANIZATION
p959
tp960
a(VYankees
p961
VORGANIZATION
p962
tp963
a(Vfounded
p964
g3
tp965
aa(lp966
(Vhow
p967
g3
tp968
a(Vmany
p969
g3
tp970
a(Vnational
p971
g3
tp972
a(Vparks
p973
g3
tp974
a(Vdoes
p975
g3
tp976
a(Vthe
p977
g3
tp978
a(Vnational
p979
g3
tp980
a(Vwildlife
p981
g3
tp982
a(Vrefuge
p983
g3
tp984
a(Vhave
p985
g3
tp986
aa(lp987
(Vhow
p988
g3
tp989
a(Vmany
p990
g3
tp991
a(Vactors
p992
g3
tp993
a(Vuse
p994
g3
tp995
a(Vtheir
p996
g3
tp997
a(Vmiddle
p998
g3
tp999
a(Vname
p1000
g3
tp1001
a(Vor
p1002
g3
tp1003
a(Vinitial
p1004
g3
tp1005
aa(lp1006
(Vwhere
p1007
g3
tp1008
a(Vis
p1009
g3
tp1010
a(VFry_s
p1011
g3
tp1012
a(Vturkish
p1013
g3
tp1014
a(Vdelight
p1015
g3
tp1016
a(Vsold
p1017
g3
tp1018
aa(lp1019
(Vwho
p1020
g3
tp1021
a(Vinvented
p1022
g3
tp1023
a(VKoolaid
p1024
g3
tp1025
aa(lp1026
(Vwhen
p1027
g3
tp1028
a(Vwas
p1029
g3
tp1030
a(VDoritos
p1031
g3
tp1032
a(Vproduced
p1033
g3
tp1034
aa(lp1035
(Vhow
p1036
g3
tp1037
a(Vmany
p1038
g3
tp1039
a(Vcountries
p1040
g3
tp1041
a(Vuse
p1042
g3
tp1043
a(Vthe
p1044
g3
tp1045
a(Vspanish
p1046
g3
tp1047
a(Vpeseta
p1048
g3
tp1049
aa(lp1050
(Vwhen
p1051
g3
tp1052
a(Vwas
p1053
g3
tp1054
a(Vthe
p1055
g3
tp1056
a(VPencarrow
p1057
VPERSON
p1058
tp1059
a(Vhead
p1060
g3
tp1061
a(Vlighthouse
p1062
g3
tp1063
a(Vfirst
p1064
g3
tp1065
a(Vlit
p1066
g3
tp1067
aa(lp1068
(Vwhat
p1069
g3
tp1070
a(Vtitles
p1071
g3
tp1072
a(Vdoes
p1073
g3
tp1074
a(Vthe
p1075
g3
tp1076
a(VWorld
p1077
VORGANIZATION
p1078
tp1079
a(VBoxing
p1080
VORGANIZATION
p1081
tp1082
a(VAssociation
p1083
VORGANIZATION
p1084
tp1085
a(Vhave
p1086
g3
tp1087
aa(lp1088
(Vhow
p1089
g3
tp1090
a(Vmany
p1091
g3
tp1092
a(Vspecies
p1093
g3
tp1094
a(Vdoes
p1095
g3
tp1096
a(Vthe
p1097
g3
tp1098
a(VSan
p1099
g3
tp1100
a(VFrancisco
p1101
g3
tp1102
a(VZoo
p1103
g3
tp1104
a(Vhave
p1105
g3
tp1106
aa(lp1107
(Vwhat
p1108
g3
tp1109
a(Vround
p1110
g3
tp1111
a(Vdid
p1112
g3
tp1113
a(Vthrilla
p1114
g3
tp1115
a(Vin
p1116
g3
tp1117
a(VManila
p1118
VLOCATION
p1119
tp1120
a(Vend
p1121
g3
tp1122
aa(lp1123
(Vwhat
p1124
g3
tp1125
a(Vis
p1126
g3
tp1127
a(Vpycon
p1128
g3
tp1129
a(Vabout
p1130
g3
tp1131
aa(lp1132
(Vhow
p1133
g3
tp1134
a(Vmany
p1135
g3
tp1136
a(Vworks
p1137
g3
tp1138
a(Vhave
p1139
g3
tp1140
a(Vbeen
p1141
g3
tp1142
a(Vlost
p1143
g3
tp1144
a(Vdue
p1145
g3
tp1146
a(Vto
p1147
g3
tp1148
a(Vtheft
p1149
g3
tp1150
aa(lp1151
(Vwhat
p1152
g3
tp1153
a(Varmed
p1154
g3
tp1155
a(Vforces
p1156
g3
tp1157
a(Vdoes
p1158
g3
tp1159
a(VThailand
p1160
VLOCATION
p1161
tp1162
a(Vhave
p1163
g3
tp1164
aa(lp1165
(Vwhat
p1166
g3
tp1167
a(Vmartial
p1168
g3
tp1169
a(Varts
p1170
g3
tp1171
a(Vdoes
p1172
g3
tp1173
a(VChris
p1174
VPERSON
p1175
tp1176
a(VMaden
p1177
VPERSON
p1178
tp1179
a(Vpractice
p1180
g3
tp1181
aa(lp1182
(Vwhen
p1183
g3
tp1184
a(Vwas
p1185
g3
tp1186
a(Vkoolaid
p1187
g3
tp1188
a(Vinvented
p1189
g3
tp1190
aa(lp1191
(Vwhat
p1192
g3
tp1193
a(Vyear
p1194
g3
tp1195
a(Vdid
p1196
g3
tp1197
a(Vsgt
p1198
g3
tp1199
a(V.
p1200
g3
tp1201
a(Vpepper
p1202
g3
tp1203
a(V's
p1204
g3
tp1205
a(Vlonely
p1206
g3
tp1207
a(Vhearts
p1208
g3
tp1209
a(Vclub
p1210
g3
tp1211
a(Vband
p1212
g3
tp1213
a(Vwin
p1214
g3
tp1215
a(g325
g3
tp1216
a(Vgrammy
p1217
g3
tp1218
aa(lp1219
(Vhow
p1220
g3
tp1221
a(Vmany
p1222
g3
tp1223
a(Vislands
p1224
g3
tp1225
a(Vare
p1226
g3
tp1227
a(Vthere
p1228
g3
tp1229
a(Vin
p1230
g3
tp1231
a(VLake
p1232
VLOCATION
p1233
tp1234
a(VSuperior
p1235
VLOCATION
p1236
tp1237
aa(lp1238
(Vhow
p1239
g3
tp1240
a(Vmany
p1241
g3
tp1242
a(Vcountries
p1243
g3
tp1244
a(Vis
p1245
g3
tp1246
a(Vspanish
p1247
g3
tp1248
a(Vspoken
p1249
g3
tp1250
a(Vin
p1251
g3
tp1252
aa(lp1253
(Vwhen
p1254
g3
tp1255
a(Vwas
p1256
g3
tp1257
a(Vthe
p1258
g3
tp1259
a(VSS
p1260
g3
tp1261
a(VGreat
p1262
VLOCATION
p1263
tp1264
a(VBritain
p1265
VLOCATION
p1266
tp1267
a(Vestablished
p1268
g3
tp1269
a(Vas
p1270
g3
tp1271
a(g325
g3
tp1272
a(Vmuseum
p1273
g3
tp1274
aa(lp1275
(Vwhat
p1276
g3
tp1277
a(Vtype
p1278
g3
tp1279
a(Vof
p1280
g3
tp1281
a(Vrock
p1282
g3
tp1283
a(Vis
p1284
g3
tp1285
a(Vthe
p1286
g3
tp1287
a(VMarcellus
p1288
g3
tp1289
a(Vformation
p1290
g3
tp1291
aa(lp1292
(Vwhen
p1293
g3
tp1294
a(Vwas
p1295
g3
tp1296
a(Vcapri
p1297
g3
tp1298
a(Vsun
p1299
g3
tp1300
a(Vdeveloped
p1301
g3
tp1302
aa(lp1303
(Vwhen
p1304
g3
tp1305
a(Vwas
p1306
g3
tp1307
a(V300
p1308
g3
tp1309
a(Vreleased
p1310
g3
tp1311
aa(lp1312
(Vhow
p1313
g3
tp1314
a(Vmany
p1315
g3
tp1316
a(Vwins
p1317
g3
tp1318
a(Vdid
p1319
g3
tp1320
a(Vthe
p1321
g3
tp1322
a(VPhiladelphia
p1323
VORGANIZATION
p1324
tp1325
a(VEagles
p1326
VORGANIZATION
p1327
tp1328
a(Vhave
p1329
g3
tp1330
a(Vin
p1331
g3
tp1332
a(Vthe
p1333
g3
tp1334
a(V2008
p1335
g3
tp1336
a(VNFL
p1337
VORGANIZATION
p1338
tp1339
a(Vseason
p1340
g3
tp1341
aa(lp1342
(Vwhen
p1343
g3
tp1344
a(Vwas
p1345
g3
tp1346
a(Vbarbie
p1347
g3
tp1348
a(Vlaunched
p1349
g3
tp1350
aa(lp1351
(Vhow
p1352
g3
tp1353
a(Vmany
p1354
g3
tp1355
a(Vlibretti
p1356
g3
tp1357
a(Vdid
p1358
g3
tp1359
a(VWagner
p1360
VPERSON
p1361
tp1362
a(Vwrite
p1363
g3
tp1364
aa(lp1365
(Vwhat
p1366
g3
tp1367
a(Vis
p1368
g3
tp1369
a(Vbruce
p1370
g3
tp1371
a(Valmighty
p1372
g3
tp1373
a(Vrated
p1374
g3
tp1375
aa(lp1376
(Vwhere
p1377
g3
tp1378
a(Vwas
p1379
g3
tp1380
a(Vlady
p1381
g3
tp1382
a(Vwashington
p1383
g3
tp1384
a(Vbuilt
p1385
g3
tp1386
aa(lp1387
(Vhow
p1388
g3
tp1389
a(Vmany
p1390
g3
tp1391
a(Vdomains
p1392
g3
tp1393
a(Vare
p1394
g3
tp1395
a(Vin
p1396
g3
tp1397
a(Vthe
p1398
g3
tp1399
a(Vscience
p1400
g3
tp1401
a(g403
g3
tp1402
a(Vtechnology
p1403
g3
tp1404
a(Vcategory
p1405
g3
tp1406
aa(lp1407
(Vwhat
p1408
g3
tp1409
a(Vis
p1410
g3
tp1411
a(Vthe
p1412
g3
tp1413
a(Vbuilding
p1414
g3
tp1415
a(Vfunction
p1416
g3
tp1417
a(Vof
p1418
g3
tp1419
a(Vthe
p1420
g3
tp1421
a(VEiffel
p1422
g3
tp1423
a(Vtower
p1424
g3
tp1425
aa(lp1426
(Vhow
p1427
g3
tp1428
a(Vmany
p1429
g3
tp1430
a(Vchildren
p1431
g3
tp1432
a(Vdoes
p1433
g3
tp1434
a(VDanny
p1435
VPERSON
p1436
tp1437
a(VdeVito
p1438
VPERSON
p1439
tp1440
a(Vhave
p1441
g3
tp1442
aa(lp1443
(Vhow
p1444
g3
tp1445
a(Vmany
p1446
g3
tp1447
a(Vdifferent
p1448
g3
tp1449
a(Vindustries
p1450
g3
tp1451
a(Vare
p1452
g3
tp1453
a(Vthere
p1454
g3
tp1455
a(Vin
p1456
g3
tp1457
a(Vhome
p1458
g3
tp1459
a(Vdepot
p1460
g3
tp1461
aa(lp1462
(Vat
p1463
g3
tp1464
a(Vwhat
p1465
g3
tp1466
a(Vschool
p1467
g3
tp1468
a(Vwas
p1469
g3
tp1470
a(Vdelta
p1471
g3
tp1472
a(Vdelta
p1473
g3
tp1474
a(Vdelta
p1475
g3
tp1476
a(Vfounded
p1477
g3
tp1478
aa(lp1479
(Vin
p1480
g3
tp1481
a(Vwhat
p1482
g3
tp1483
a(Vseason
p1484
g3
tp1485
a(Vof
p1486
g3
tp1487
a(Vstargate
p1488
g3
tp1489
a(Vsg-1
p1490
g3
tp1491
a(Vis
p1492
g3
tp1493
a(Vthe
p1494
g3
tp1495
a(Vepisode
p1496
g3
tp1497
a(Vshow
p1498
g3
tp1499
a(Vand
p1500
g3
tp1501
a(Vtell
p1502
g3
tp1503
aa(lp1504
(Vwho
p1505
g3
tp1506
a(Vstarted
p1507
g3
tp1508
a(VStarbucks
p1509
VORGANIZATION
p1510
tp1511
aa(lp1512
(Vwho
p1513
g3
tp1514
a(Vis
p1515
g3
tp1516
a(Vthe
p1517
g3
tp1518
a(Vcaptain
p1519
g3
tp1520
a(Vof
p1521
g3
tp1522
a(Vthe
p1523
g3
tp1524
a(VEdmonton
p1525
VORGANIZATION
p1526
tp1527
a(VOilers
p1528
VORGANIZATION
p1529
tp1530
aa(lp1531
(Vwho
p1532
g3
tp1533
a(Vare
p1534
g3
tp1535
a(Vthe
p1536
g3
tp1537
a(Vfounders
p1538
g3
tp1539
a(Vof
p1540
g3
tp1541
a(VHome
p1542
g3
tp1543
a(VDepot
p1544
g3
tp1545
aa(lp1546
(Vwhat
p1547
g3
tp1548
a(Vare
p1549
g3
tp1550
a(Vthe
p1551
g3
tp1552
a(Vceltic
p1553
g3
tp1554
a(Vlanguages
p1555
g3
tp1556
aa(lp1557
(Vwhat
p1558
g3
tp1559
a(Vis
p1560
g3
tp1561
a(Vthe
p1562
g3
tp1563
a(Vstate
p1564
g3
tp1565
a(Vflower
p1566
g3
tp1567
a(Vof
p1568
g3
tp1569
a(VAlaska
p1570
VLOCATION
p1571
tp1572
aa(lp1573
(Vwhat
p1574
g3
tp1575
a(Vare
p1576
g3
tp1577
a(Vthe
p1578
g3
tp1579
a(Vtheme
p1580
g3
tp1581
a(Vareas
p1582
g3
tp1583
a(Vat
p1584
g3
tp1585
a(VDisneyland
p1586
VLOCATION
p1587
tp1588
aa(lp1589
(Vwhat
p1590
g3
tp1591
a(Vproduction
p1592
g3
tp1593
a(Vis
p1594
g3
tp1595
a(Vthe
p1596
g3
tp1597
a(VSopranos
p1598
g3
tp1599
a(Vcurrently
p1600
g3
tp1601
a(Vin
p1602
g3
tp1603
aa(lp1604
(Vwhere
p1605
g3
tp1606
a(Vdoes
p1607
g3
tp1608
a(Vthe
p1609
g3
tp1610
a(Vchow
p1611
g3
tp1612
a(Vchow
p1613
g3
tp1614
a(Voriginate
p1615
g3
tp1616
aa(lp1617
(Vwhat
p1618
g3
tp1619
a(Vposition
p1620
g3
tp1621
a(Vdid
p1622
g3
tp1623
a(VMike
p1624
VPERSON
p1625
tp1626
a(VSchmidt
p1627
VPERSON
p1628
tp1629
a(Vplay
p1630
g3
tp1631
aa(lp1632
(Vwhat
p1633
g3
tp1634
a(Vbreed
p1635
g3
tp1636
a(Vgroup
p1637
g3
tp1638
a(Vis
p1639
g3
tp1640
a(g325
g3
tp1641
a(Vshar
p1642
g3
tp1643
a(Vpei
p1644
g3
tp1645
a(Vin
p1646
g3
tp1647
a(Vthe
p1648
g3
tp1649
a(Vamerican
p1650
g3
tp1651
a(Vkennel
p1652
g3
tp1653
a(Vclub
p1654
g3
tp1655
aa(lp1656
(Vwhere
p1657
g3
tp1658
a(Vwas
p1659
g3
tp1660
a(Vpolonium
p1661
g3
tp1662
a(Vdiscovered
p1663
g3
tp1664
aa(lp1665
(Vhow
p1666
g3
tp1667
a(Vmany
p1668
g3
tp1669
a(Vepisodes
p1670
g3
tp1671
a(Vof
p1672
g3
tp1673
a(Vtaylor
p1674
g3
tp1675
a(Vmade
p1676
g3
tp1677
a(Vpiano
p1678
g3
tp1679
a(Vwere
p1680
g3
tp1681
a(Vthere
p1682
g3
tp1683
aa(lp1684
(Vwhat
p1685
g3
tp1686
a(Vrecord
p1687
g3
tp1688
a(Vlabel
p1689
g3
tp1690
a(Vwas
p1691
g3
tp1692
a(VAli
p1693
VPERSON
p1694
tp1695
a(VFarka
p1696
VPERSON
p1697
tp1698
a(VToure
p1699
VPERSON
p1700
tp1701
a(Vsigned
p1702
g3
tp1703
a(Vto
p1704
g3
tp1705
aa(lp1706
(Vwhat
p1707
g3
tp1708
a(Vteam
p1709
g3
tp1710
a(Vdoes
p1711
g3
tp1712
a(VRichard
p1713
VPERSON
p1714
tp1715
a(VHamilton
p1716
VPERSON
p1717
tp1718
a(Vplay
p1719
g3
tp1720
a(Vfor
p1721
g3
tp1722
aa(lp1723
(Vwhat
p1724
g3
tp1725
a(Vis
p1726
g3
tp1727
a(VAfrica
p1728
VLOCATION
p1729
tp1730
a(V's
p1731
g3
tp1732
a(Vpopulation
p1733
g3
tp1734
aa(lp1735
(Vwhat
p1736
g3
tp1737
a(Vare
p1738
g3
tp1739
a(Vthe
p1740
g3
tp1741
a(Visotopes
p1742
g3
tp1743
a(Vof
p1744
g3
tp1745
a(Vzinc
p1746
g3
tp1747
aa(lp1748
(Vwho
p1749
g3
tp1750
a(Vpublished
p1751
g3
tp1752
a(Vthe
p1753
g3
tp1754
a(Vamazing
p1755
g3
tp1756
a(Vspider-man
p1757
g3
tp1758
aa(lp1759
(Vhow
p1760
g3
tp1761
a(Vthick
p1762
g3
tp1763
a(Vis
p1764
g3
tp1765
a(Vthe
p1766
g3
tp1767
a(Valetsch
p1768
g3
tp1769
a(Vglacier
p1770
g3
tp1771
aa(lp1772
(Vwhen
p1773
g3
tp1774
a(Vwas
p1775
g3
tp1776
a(Vthe
p1777
g3
tp1778
a(Vrelease
p1779
g3
tp1780
a(Vdate
p1781
g3
tp1782
a(Vfor
p1783
g3
tp1784
a(VTitanic
p1785
g3
tp1786
aa(lp1787
(Vwhat
p1788
g3
tp1789
a(Vare
p1790
g3
tp1791
a(Vsome
p1792
g3
tp1793
a(Vresearch
p1794
g3
tp1795
a(Vonly
p1796
g3
tp1797
a(Vcancer
p1798
g3
tp1799
a(Vcenters
p1800
g3
tp1801
aa(lp1802
(Vwhat
p1803
g3
tp1804
a(Vis
p1805
g3
tp1806
a(Vthe
p1807
g3
tp1808
a(Vtheme
p1809
g3
tp1810
a(Vsong
p1811
g3
tp1812
a(Vof
p1813
g3
tp1814
a(Vfull
p1815
g3
tp1816
a(Vhouse
p1817
g3
tp1818
aa(lp1819
(Vhow
p1820
g3
tp1821
a(Vwas
p1822
g3
tp1823
a(VPluto
p1824
g3
tp1825
a(Vdiscovered
p1826
g3
tp1827
aa(lp1828
(Vwhat
p1829
g3
tp1830
a(Vversions
p1831
g3
tp1832
a(Vof
p1833
g3
tp1834
a(VMac
p1835
g3
tp1836
a(VOS
p1837
g3
tp1838
a(VX
p1839
g3
tp1840
a(Vis
p1841
g3
tp1842
a(VMozilla
p1843
g3
tp1844
a(VFirefox
p1845
g3
tp1846
a(Vcompatible
p1847
g3
tp1848
a(Vwith
p1849
g3
tp1850
aa(lp1851
(Vhow
p1852
g3
tp1853
a(Vmany
p1854
g3
tp1855
a(Vseasons
p1856
g3
tp1857
a(Vof
p1858
g3
tp1859
a(VSeinfeld
p1860
g3
tp1861
a(Vare
p1862
g3
tp1863
a(Vthere
p1864
g3
tp1865
aa(lp1866
(Vin
p1867
g3
tp1868
a(V1982
p1869
g3
tp1870
a(Vwho
p1871
g3
tp1872
a(Vwere
p1873
g3
tp1874
a(Vthe
p1875
g3
tp1876
a(Vprimetieme
p1877
g3
tp1878
a(VEmmy
p1879
g3
tp1880
a(Vaward
p1881
g3
tp1882
a(Vfor
p1883
g3
tp1884
a(Vcomedy
p1885
g3
tp1886
a(Vseries
p1887
g3
tp1888
a(Vnominees
p1889
g3
tp1890
aa(lp1891
(Vwhat
p1892
g3
tp1893
a(Vcompany
p1894
g3
tp1895
a(Vowns
p1896
g3
tp1897
a(Vnutter
p1898
g3
tp1899
a(Vbutter
p1900
g3
tp1901
aa(lp1902
(Vwhen
p1903
g3
tp1904
a(Vwas
p1905
g3
tp1906
a(VFacebook
p1907
VORGANIZATION
p1908
tp1909
a(Vlaunched
p1910
g3
tp1911
aa(lp1912
(Vwhat
p1913
g3
tp1914
a(Vposition
p1915
g3
tp1916
a(Vdoes
p1917
g3
tp1918
a(VCristiano
p1919
VPERSON
p1920
tp1921
a(VRonaldo
p1922
VPERSON
p1923
tp1924
a(Vplay
p1925
g3
tp1926
aa(lp1927
(Vhow
p1928
g3
tp1929
a(Vmany
p1930
g3
tp1931
a(Vgames
p1932
g3
tp1933
a(Vhas
p1934
g3
tp1935
a(VHasbro
p1936
VORGANIZATION
p1937
tp1938
a(Vpublished
p1939
g3
tp1940
aa(lp1941
(Vwhat
p1942
g3
tp1943
a(Vuniverse
p1944
g3
tp1945
a(Vis
p1946
g3
tp1947
a(Vthe
p1948
g3
tp1949
a(VLord
p1950
g3
tp1951
a(Vof
p1952
g3
tp1953
a(Vthe
p1954
g3
tp1955
a(VRings
p1956
g3
tp1957
a(Vset
p1958
g3
tp1959
a(Vin
p1960
g3
tp1961
aa(lp1962
(Vhow
p1963
g3
tp1964
a(Vmany
p1965
g3
tp1966
a(Vteams
p1967
g3
tp1968
a(Vparticipated
p1969
g3
tp1970
a(Vin
p1971
g3
tp1972
a(Vthe
p1973
g3
tp1974
a(V1979
p1975
g3
tp1976
a(Vcricket
p1977
g3
tp1978
a(Vworld
p1979
g3
tp1980
a(Vcup
p1981
g3
tp1982
aa(lp1983
(Vwhat
p1984
g3
tp1985
a(Vyear
p1986
g3
tp1987
a(Vwas
p1988
g3
tp1989
a(Vthe
p1990
g3
tp1991
a(Valbum
p1992
g3
tp1993
a(Vdecade
p1994
g3
tp1995
a(Vreleased
p1996
g3
tp1997
aa(lp1998
(Vhow
p1999
g3
tp2000
a(Vmany
p2001
g3
tp2002
a(Voperating
p2003
g3
tp2004
a(Vsystems
p2005
g3
tp2006
a(Vis
p2007
g3
tp2008
a(VAdobe
p2009
g3
tp2010
a(VFlash
p2011
g3
tp2012
a(Vcompatible
p2013
g3
tp2014
a(Vwith
p2015
g3
tp2016
aa(lp2017
(Vwhat
p2018
g3
tp2019
a(Vis
p2020
g3
tp2021
a(Vthe
p2022
g3
tp2023
a(Vpopulation
p2024
g3
tp2025
a(Vestimated
p2026
g3
tp2027
a(Vin
p2028
g3
tp2029
a(Vthe
p2030
g3
tp2031
a(Vworld
p2032
g3
tp2033
aa(lp2034
(Vhow
p2035
g3
tp2036
a(Vmany
p2037
g3
tp2038
a(Vtennis
p2039
g3
tp2040
a(Vevents
p2041
g3
tp2042
a(Vare
p2043
g3
tp2044
a(Vthere
p2045
g3
tp2046
a(Vat
p2047
g3
tp2048
a(Vthe
p2049
g3
tp2050
a(Volympics
p2051
g3
tp2052
aa(lp2053
(Vhow
p2054
g3
tp2055
a(Vmany
p2056
g3
tp2057
a(Vrna
p2058
g3
tp2059
a(Vcodons
p2060
g3
tp2061
a(Vdoes
p2062
g3
tp2063
a(Vglycine
p2064
g3
tp2065
a(Vhave
p2066
g3
tp2067
aa(lp2068
(Vwho
p2069
g3
tp2070
a(Vwas
p2071
g3
tp2072
a(Vcharlie_s
p2073
g3
tp2074
a(Vangels
p2075
g3
tp2076
a(Vproduced
p2077
g3
tp2078
a(Vby
p2079
g3
tp2080
aa(lp2081
(Vwho
p2082
g3
tp2083
a(Vcompleted
p2084
g3
tp2085
a(VMozart_s
p2086
g3
tp2087
a(Vrequiem
p2088
g3
tp2089
aa(lp2090
(Vhow
p2091
g3
tp2092
a(Vmany
p2093
g3
tp2094
a(Vteams
p2095
g3
tp2096
a(Vdid
p2097
g3
tp2098
a(VJoe
p2099
VPERSON
p2100
tp2101
a(VTorre
p2102
VPERSON
p2103
tp2104
a(Vmanage
p2105
g3
tp2106
aa(lp2107
(Vhow
p2108
g3
tp2109
a(Vmany
p2110
g3
tp2111
a(Vcricket
p2112
g3
tp2113
a(Vbowlers
p2114
g3
tp2115
a(Vuse
p2116
g3
tp2117
a(Vfast
p2118
g3
tp2119
a(Vbowling
p2120
g3
tp2121
aa(lp2122
(Vwho
p2123
g3
tp2124
a(Vdesigned
p2125
g3
tp2126
a(Vthe
p2127
g3
tp2128
a(Vgiant
p2129
g3
tp2130
a(Vdipper
p2131
g3
tp2132
aa(lp2133
(Vwhat
p2134
g3
tp2135
a(Vcharacters
p2136
g3
tp2137
a(Vare
p2138
g3
tp2139
a(Vin
p2140
g3
tp2141
a(Vsuper
p2142
g3
tp2143
a(Vmario
p2144
g3
tp2145
a(Vbros
p2146
g3
tp2147
aa(lp2148
(Vwhat
p2149
g3
tp2150
a(Vwas
p2151
g3
tp2152
a(VJohn
p2153
VPERSON
p2154
tp2155
a(VF
p2156
VPERSON
p2157
tp2158
a(VKennedy
p2159
VPERSON
p2160
tp2161
a(V's
p2162
g3
tp2163
a(Vcause
p2164
g3
tp2165
a(Vof
p2166
g3
tp2167
a(Vdeath
p2168
g3
tp2169
aa(lp2170
(Vwhat
p2171
g3
tp2172
a(Vis
p2173
g3
tp2174
a(Vthe
p2175
g3
tp2176
a(Vgenre
p2177
g3
tp2178
a(Vof
p2179
g3
tp2180
a(Vthe
p2181
g3
tp2182
a(Vskeptics
p2183
g3
tp2184
a(V'
p2185
g3
tp2186
a(Vguide
p2187
g3
tp2188
a(Vto
p2189
g3
tp2190
a(Vthe
p2191
g3
tp2192
a(Vuniverse
p2193
g3
tp2194
aa(lp2195
(Vhow
p2196
g3
tp2197
a(Vmany
p2198
g3
tp2199
a(Vemployees
p2200
g3
tp2201
a(Vdoes
p2202
g3
tp2203
a(VNintendo
p2204
VORGANIZATION
p2205
tp2206
a(Vhave
p2207
g3
tp2208
aa(lp2209
(Vhow
p2210
g3
tp2211
a(Vmany
p2212
g3
tp2213
a(Vtypes
p2214
g3
tp2215
a(Vof
p2216
g3
tp2217
a(Vcumulus
p2218
g3
tp2219
a(Vclouds
p2220
g3
tp2221
a(Vare
p2222
g3
tp2223
a(Vthere
p2224
g3
tp2225
aa(lp2226
(Vhow
p2227
g3
tp2228
a(Vmany
p2229
g3
tp2230
a(Vother
p2231
g3
tp2232
a(Vnames
p2233
g3
tp2234
a(Vis
p2235
g3
tp2236
a(VRon
p2237
g3
tp2238
a(VGlass
p2239
g3
tp2240
a(Vknown
p2241
g3
tp2242
a(Vby
p2243
g3
tp2244
aa(lp2245
(Vwhat
p2246
g3
tp2247
a(Vnumber
p2248
g3
tp2249
a(Vis
p2250
g3
tp2251
a(VRyan
p2252
VPERSON
p2253
tp2254
a(VCallahan
p2255
VPERSON
p2256
tp2257
a(Von
p2258
g3
tp2259
a(Vthe
p2260
g3
tp2261
a(Vnew
p2262
g3
tp2263
a(Vyork
p2264
g3
tp2265
a(Vrangers
p2266
g3
tp2267
aa(lp2268
(Vwhat
p2269
g3
tp2270
a(Vare
p2271
g3
tp2272
a(Vthe
p2273
g3
tp2274
a(Vchristian
p2275
g3
tp2276
a(Vholidays
p2277
g3
tp2278
aa(lp2279
(Vwho
p2280
g3
tp2281
a(Vdirected
p2282
g3
tp2283
a(VCharlie_s
p2284
g3
tp2285
a(Vangels
p2286
g3
tp2287
aa(lp2288
(Vwhat
p2289
g3
tp2290
a(Vwas
p2291
g3
tp2292
a(VJack
p2293
VPERSON
p2294
tp2295
a(VAlbertson
p2296
VPERSON
p2297
tp2298
a(V's
p2299
g3
tp2300
a(Vcause
p2301
g3
tp2302
a(Vof
p2303
g3
tp2304
a(Vdeath
p2305
g3
tp2306
aa(lp2307
(Vwhen
p2308
g3
tp2309
a(Vwas
p2310
g3
tp2311
a(Vthe
p2312
g3
tp2313
a(Vprinting
p2314
g3
tp2315
a(Vpress
p2316
g3
tp2317
a(Vinvented
p2318
g3
tp2319
aa(lp2320
(Vwhat
p2321
g3
tp2322
a(Vare
p2323
g3
tp2324
a(Vthe
p2325
g3
tp2326
a(Vneighborhoods
p2327
g3
tp2328
a(Vin
p2329
g3
tp2330
a(VNew
p2331
VLOCATION
p2332
tp2333
a(VYork
p2334
VLOCATION
p2335
tp2336
a(Vcity
p2337
g3
tp2338
aa(lp2339
(Vhow
p2340
g3
tp2341
a(Vmany
p2342
g3
tp2343
a(Vpeople
p2344
g3
tp2345
a(Vpractice
p2346
g3
tp2347
a(Vkarate
p2348
g3
tp2349
aa(lp2350
(Vwhat
p2351
g3
tp2352
a(Vis
p2353
g3
tp2354
a(Vthe
p2355
g3
tp2356
a(Varea
p2357
g3
tp2358
a(Vof
p2359
g3
tp2360
a(VSouth
p2361
VLOCATION
p2362
tp2363
a(VAmerica
p2364
VLOCATION
p2365
tp2366
aa(lp2367
(Vhow
p2368
g3
tp2369
a(Vmany
p2370
g3
tp2371
a(Vsites
p2372
g3
tp2373
a(Vare
p2374
g3
tp2375
a(Von
p2376
g3
tp2377
a(Vthe
p2378
g3
tp2379
a(Vnational
p2380
g3
tp2381
a(Vregister
p2382
g3
tp2383
a(Vof
p2384
g3
tp2385
a(Vhistoric
p2386
g3
tp2387
a(Vplaces
p2388
g3
tp2389
aa(lp2390
(Vwhat
p2391
g3
tp2392
a(Vfootball
p2393
g3
tp2394
a(Vteam
p2395
g3
tp2396
a(Vdoes
p2397
g3
tp2398
a(VAndy
p2399
VPERSON
p2400
tp2401
a(VReid
p2402
VPERSON
p2403
tp2404
a(Vcurrently
p2405
g3
tp2406
a(Vcoach
p2407
g3
tp2408
aa(lp2409
(Vhow
p2410
g3
tp2411
a(Vmany
p2412
g3
tp2413
a(Vprotected
p2414
g3
tp2415
a(Vsites
p2416
g3
tp2417
a(Vdoes
p2418
g3
tp2419
a(Vthe
p2420
g3
tp2421
a(VU.S.
p2422
VLOCATION
p2423
tp2424
a(Vnational
p2425
g3
tp2426
a(Vpark
p2427
g3
tp2428
a(Vservice
p2429
g3
tp2430
a(Vgovern
p2431
g3
tp2432
aa(lp2433
(Vwhat
p2434
g3
tp2435
a(Vwas
p2436
g3
tp2437
a(VViacom
p2438
VORGANIZATION
p2439
tp2440
a(V's
p2441
g3
tp2442
a(Vrevenue
p2443
g3
tp2444
a(Vin
p2445
g3
tp2446
a(V2009
p2447
g3
tp2448
aa(lp2449
(Vwhat
p2450
g3
tp2451
a(Visland
p2452
g3
tp2453
a(Vgroup
p2454
g3
tp2455
a(Vis
p2456
g3
tp2457
a(VJekyll
p2458
g3
tp2459
a(Visland
p2460
g3
tp2461
a(g325
g3
tp2462
a(Vpart
p2463
g3
tp2464
a(Vof
p2465
g3
tp2466
aa(lp2467
(Vhow
p2468
g3
tp2469
a(Vmany
p2470
g3
tp2471
a(Vchildren
p2472
g3
tp2473
a(Vdoes
p2474
g3
tp2475
a(VJerry
p2476
VPERSON
p2477
tp2478
a(VSeinfeld
p2479
VPERSON
p2480
tp2481
a(Vhave
p2482
g3
tp2483
aa(lp2484
(Vwhat
p2485
g3
tp2486
a(Vtype
p2487
g3
tp2488
a(Vof
p2489
g3
tp2490
a(Vorganism
p2491
g3
tp2492
a(Vwas
p2493
g3
tp2494
a(VLucy
p2495
VPERSON
p2496
tp2497
a(g325
g3
tp2498
a(Vfossil
p2499
g3
tp2500
a(Vof
p2501
g3
tp2502
aa(lp2503
(Vwhen
p2504
g3
tp2505
a(Vwas
p2506
g3
tp2507
a(Vcrystal
p2508
g3
tp2509
a(Vlight
p2510
g3
tp2511
a(Voriginally
p2512
g3
tp2513
a(Vmarketed
p2514
g3
tp2515
aa(lp2516
(Vhow
p2517
g3
tp2518
a(Vmany
p2519
g3
tp2520
a(Vpeople
p2521
g3
tp2522
a(Vride
p2523
g3
tp2524
a(Vthe
p2525
g3
tp2526
a(VLondon
p2527
VLOCATION
p2528
tp2529
a(Vunderground
p2530
g3
tp2531
a(Vdaily
p2532
g3
tp2533
aa(lp2534
(Vin
p2535
g3
tp2536
a(Vwhat
p2537
g3
tp2538
a(Vdisaster
p2539
g3
tp2540
a(Vwas
p2541
g3
tp2542
a(Vold
p2543
g3
tp2544
a(VSt
p2545
g3
tp2546
a(VPaul_s
p2547
g3
tp2548
a(Vcathedral
p2549
g3
tp2550
a(Vdestroyed
p2551
g3
tp2552
aa(lp2553
(Vwhat
p2554
g3
tp2555
a(Vinstruments
p2556
g3
tp2557
a(Vdid
p2558
g3
tp2559
a(VOmarion
p2560
VPERSON
p2561
tp2562
a(Vplay
p2563
g3
tp2564
aa(lp2565
(Vwhat
p2566
g3
tp2567
a(Vare
p2568
g3
tp2569
a(Vthe
p2570
g3
tp2571
a(Vbooks
p2572
g3
tp2573
a(Vin
p2574
g3
tp2575
a(Vthe
p2576
g3
tp2577
a(VChronicles
p2578
g3
tp2579
a(Vof
p2580
g3
tp2581
a(VNarnia
p2582
g3
tp2583
a(Vseries
p2584
g3
tp2585
aa(lp2586
(Vwhat
p2587
g3
tp2588
a(Vcharacters
p2589
g3
tp2590
a(Vare
p2591
g3
tp2592
a(Vfeatured
p2593
g3
tp2594
a(Vin
p2595
g3
tp2596
a(VBatman
p2597
g3
tp2598
a(V:
p2599
g3
tp2600
a(Vthe
p2601
g3
tp2602
a(VDark
p2603
g3
tp2604
a(Vknight
p2605
g3
tp2606
a(Vreturns
p2607
g3
tp2608
aa(lp2609
(Vwhat
p2610
g3
tp2611
a(Vwas
p2612
g3
tp2613
a(VHenry
p2614
VPERSON
p2615
tp2616
a(VVIII
p2617
VPERSON
p2618
tp2619
a(V's
p2620
g3
tp2621
a(Vroyal
p2622
g3
tp2623
a(Vline
p2624
g3
tp2625
aa(lp2626
(Vwhat
p2627
g3
tp2628
a(Vwas
p2629
g3
tp2630
a(Vthe
p2631
g3
tp2632
a(Vcost
p2633
g3
tp2634
a(Vof
p2635
g3
tp2636
a(Vbuilding
p2637
g3
tp2638
a(Vthe
p2639
g3
tp2640
a(VMagnum
p2641
g3
tp2642
a(Vxl-200
p2643
g3
tp2644
aa(lp2645
(Vhow
p2646
g3
tp2647
a(Vmany
p2648
g3
tp2649
a(Vcow
p2650
g3
tp2651
a(V's
p2652
g3
tp2653
a(Vmilk
p2654
g3
tp2655
a(Vcheeses
p2656
g3
tp2657
a(Vare
p2658
g3
tp2659
a(Vthere
p2660
g3
tp2661
aa(lp2662
(Vdid
p2663
g3
tp2664
a(Vthe
p2665
g3
tp2666
a(Vbig
p2667
g3
tp2668
a(Vbang
p2669
g3
tp2670
a(Vexhibit
p2671
g3
tp2672
a(Vat
p2673
g3
tp2674
a(Vthe
p2675
g3
tp2676
a(Vscience
p2677
g3
tp2678
a(Vmuseum
p2679
g3
tp2680
a(Vcost
p2681
g3
tp2682
a(Vmoney
p2683
g3
tp2684
aa(lp2685
(Vwhat
p2686
g3
tp2687
a(Vmovie
p2688
g3
tp2689
a(Vdid
p2690
g3
tp2691
a(VDanny
p2692
VPERSON
p2693
tp2694
a(VdeVito
p2695
VPERSON
p2696
tp2697
a(Vwin
p2698
g3
tp2699
a(Van
p2700
g3
tp2701
a(Vaward
p2702
g3
tp2703
a(Vfor
p2704
g3
tp2705
a(Vin
p2706
g3
tp2707
a(V1981
p2708
g3
tp2709
aa(lp2710
(Vwho
p2711
g3
tp2712
a(Vcoaches
p2713
g3
tp2714
a(Vthe
p2715
g3
tp2716
a(Vaustralian
p2717
g3
tp2718
a(Vcricket
p2719
g3
tp2720
a(Vteam
p2721
g3
tp2722
aa(lp2723
(Vwhat
p2724
g3
tp2725
a(Vare
p2726
g3
tp2727
a(Vthe
p2728
g3
tp2729
a(Vtexts
p2730
g3
tp2731
a(Vof
p2732
g3
tp2733
a(Vtaoism
p2734
g3
tp2735
aa(lp2736
(Vwho
p2737
g3
tp2738
a(Vwas
p2739
g3
tp2740
a(V8
p2741
g3
tp2742
a(Vmile
p2743
g3
tp2744
a(Vdirected
p2745
g3
tp2746
a(Vby
p2747
g3
tp2748
aa(lp2749
(Vhow
p2750
g3
tp2751
a(Vmany
p2752
g3
tp2753
a(Vtv
p2754
g3
tp2755
a(Vdid
p2756
g3
tp2757
a(VJerry
p2758
VPERSON
p2759
tp2760
a(VSeinfeld
p2761
VPERSON
p2762
tp2763
a(Vhave
p2764
g3
tp2765
a(g325
g3
tp2766
a(Vstarring
p2767
g3
tp2768
a(Vrole
p2769
g3
tp2770
a(Vin
p2771
g3
tp2772
aa(lp2773
(Vwhen
p2774
g3
tp2775
a(Vwas
p2776
g3
tp2777
a(VWalmart
p2778
VORGANIZATION
p2779
tp2780
a(Vfounded
p2781
g3
tp2782
aa(lp2783
(Vwho
p2784
g3
tp2785
a(Vused
p2786
g3
tp2787
a(Vto
p2788
g3
tp2789
a(Vbe
p2790
g3
tp2791
a(Vquarterback
p2792
g3
tp2793
a(Vfor
p2794
g3
tp2795
a(Vthe
p2796
g3
tp2797
a(VGreen
p2798
VORGANIZATION
p2799
tp2800
a(VBay
p2801
VORGANIZATION
p2802
tp2803
a(VPackers
p2804
VORGANIZATION
p2805
tp2806
aa(lp2807
(Vhow
p2808
g3
tp2809
a(Vmany
p2810
g3
tp2811
a(Vteams
p2812
g3
tp2813
a(Vare
p2814
g3
tp2815
a(Vin
p2816
g3
tp2817
a(Vthe
p2818
g3
tp2819
a(Vatlantic
p2820
g3
tp2821
a(Vdivision
p2822
g3
tp2823
a(Vof
p2824
g3
tp2825
a(Vthe
p2826
g3
tp2827
a(Veastern
p2828
g3
tp2829
a(Vconference
p2830
g3
tp2831
aa(lp2832
(Vhow
p2833
g3
tp2834
a(Vmany
p2835
g3
tp2836
a(Vradio
p2837
g3
tp2838
a(Vprograms
p2839
g3
tp2840
a(Vabout
p2841
g3
tp2842
a(Vscience
p2843
g3
tp2844
a(Vare
p2845
g3
tp2846
a(Vthere
p2847
g3
tp2848
aa(lp2849
(Vwhen
p2850
g3
tp2851
a(Vwas
p2852
g3
tp2853
a(Vthe
p2854
g3
tp2855
a(Vlatest
p2856
g3
tp2857
a(Vrelease
p2858
g3
tp2859
a(Vof
p2860
g3
tp2861
a(VMicrosoft
p2862
VORGANIZATION
p2863
tp2864
a(VWord
p2865
g3
tp2866
aa(lp2867
(Vwhat
p2868
g3
tp2869
a(Varchitectural
p2870
g3
tp2871
a(Vstyle
p2872
g3
tp2873
a(Vis
p2874
g3
tp2875
a(Vthe
p2876
g3
tp2877
a(VBrooklyn
p2878
VLOCATION
p2879
tp2880
a(VBridge
p2881
VLOCATION
p2882
tp2883
aa(lp2884
(Vhow
p2885
g3
tp2886
a(Vmany
p2887
g3
tp2888
a(Vtv
p2889
g3
tp2890
a(Vchannels
p2891
g3
tp2892
a(Vdoes
p2893
g3
tp2894
a(VNBC
p2895
VORGANIZATION
p2896
tp2897
a(Vown
p2898
g3
tp2899
aa(lp2900
(Vhow
p2901
g3
tp2902
a(Vmany
p2903
g3
tp2904
a(Vturbojet
p2905
g3
tp2906
a(Vengines
p2907
g3
tp2908
a(Vare
p2909
g3
tp2910
a(Vthere
p2911
g3
tp2912
aa(lp2913
(Vhow
p2914
g3
tp2915
a(Vmany
p2916
g3
tp2917
a(Vinversions
p2918
g3
tp2919
a(Vdoes
p2920
g3
tp2921
a(Vthe
p2922
g3
tp2923
a(Vmind
p2924
g3
tp2925
a(Veraser
p2926
g3
tp2927
a(Vhave
p2928
g3
tp2929
aa(lp2930
(Vwhen
p2931
g3
tp2932
a(Vwas
p2933
g3
tp2934
a(V13
p2935
g3
tp2936
a(Vgoing
p2937
g3
tp2938
a(Von
p2939
g3
tp2940
a(V30
p2941
g3
tp2942
a(Vreleased
p2943
g3
tp2944
aa(lp2945
(Vwhen
p2946
g3
tp2947
a(Vdid
p2948
g3
tp2949
a(VJohn
p2950
VPERSON
p2951
tp2952
a(VJ.
p2953
VPERSON
p2954
tp2955
a(VRaskob
p2956
VPERSON
p2957
tp2958
a(Vown
p2959
g3
tp2960
a(Vthe
p2961
g3
tp2962
a(Vempire
p2963
g3
tp2964
a(Vstate
p2965
g3
tp2966
a(Vbuilding
p2967
g3
tp2968
aa(lp2969
(Vwhat
p2970
g3
tp2971
a(Vwas
p2972
g3
tp2973
a(Vthe
p2974
g3
tp2975
a(Vdate
p2976
g3
tp2977
a(Vof
p2978
g3
tp2979
a(Vthe
p2980
g3
tp2981
a(Vfirst
p2982
g3
tp2983
a(Vsesame
p2984
g3
tp2985
a(Vstreet
p2986
g3
tp2987
a(Vepisode
p2988
g3
tp2989
a(Vaired
p2990
g3
tp2991
aa(lp2992
(Vwho
p2993
g3
tp2994
a(Vcreated
p2995
g3
tp2996
a(Vthe
p2997
g3
tp2998
a(Vfar
p2999
g3
tp3000
a(Vside
p3001
g3
tp3002
aa(lp3003
(Vwhat
p3004
g3
tp3005
a(Vconditions
p3006
g3
tp3007
a(Vhave
p3008
g3
tp3009
a(Vsymptoms
p3010
g3
tp3011
a(Vincluding
p3012
g3
tp3013
a(Vheadache
p3014
g3
tp3015
aa(lp3016
(Vwhat
p3017
g3
tp3018
a(Vgames
p3019
g3
tp3020
a(Vhas
p3021
g3
tp3022
a(VMacsoft
p3023
VORGANIZATION
p3024
tp3025
a(VGames
p3026
VORGANIZATION
p3027
tp3028
a(Vdeveloped
p3029
g3
tp3030
aa(lp3031
(Vare
p3032
g3
tp3033
a(Vlithium
p3034
g3
tp3035
a(Vbatteries
p3036
g3
tp3037
a(Vrechargable
p3038
g3
tp3039
aa(lp3040
(Vhow
p3041
g3
tp3042
a(Vmany
p3043
g3
tp3044
a(Vpeople
p3045
g3
tp3046
a(Vdied
p3047
g3
tp3048
a(Vof
p3049
g3
tp3050
a(g325
g3
tp3051
a(Vskiing
p3052
g3
tp3053
a(Vaccident
p3054
g3
tp3055
aa(lp3056
(Vwhat
p3057
g3
tp3058
a(Vdecision
p3059
g3
tp3060
a(Vdid
p3061
g3
tp3062
a(VManny
p3063
VPERSON
p3064
tp3065
a(VPacquiao
p3066
VPERSON
p3067
tp3068
a(Vvs.
p3069
g3
tp3070
a(VTimothy
p3071
VPERSON
p3072
tp3073
a(VBradley
p3074
VPERSON
p3075
tp3076
a(Vend
p3077
g3
tp3078
a(Vwith
p3079
g3
tp3080
aa(lp3081
(Vwhat
p3082
g3
tp3083
a(Vspirits
p3084
g3
tp3085
a(Vare
p3086
g3
tp3087
a(Vproduced
p3088
g3
tp3089
a(Vin
p3090
g3
tp3091
a(VKentucky
p3092
VLOCATION
p3093
tp3094
aa(lp3095
(Vwhen
p3096
g3
tp3097
a(Vwas
p3098
g3
tp3099
a(Vhome
p3100
g3
tp3101
a(Vdepot
p3102
g3
tp3103
a(Vfounded
p3104
g3
tp3105
aa(lp3106
(Vwhen
p3107
g3
tp3108
a(Vdid
p3109
g3
tp3110
a(VJapan
p3111
VLOCATION
p3112
tp3113
a(Vend
p3114
g3
tp3115
a(Vas
p3116
g3
tp3117
a(g325
g3
tp3118
a(Vmusical
p3119
g3
tp3120
a(Vgroup
p3121
g3
tp3122
aa(lp3123
(Vwhat
p3124
g3
tp3125
a(Vanimal
p3126
g3
tp3127
a(Vdoes
p3128
g3
tp3129
a(Vmarscapone
p3130
g3
tp3131
a(Vcheese
p3132
g3
tp3133
a(Vcome
p3134
g3
tp3135
a(Vfrom
p3136
g3
tp3137
aa(lp3138
(Vwho
p3139
g3
tp3140
a(Vwas
p3141
g3
tp3142
a(VTitanic
p3143
g3
tp3144
a(Vdirected
p3145
g3
tp3146
a(Vby
p3147
g3
tp3148
aa(lp3149
(Vwhat
p3150
g3
tp3151
a(Vmatches
p3152
g3
tp3153
a(Vhave
p3154
g3
tp3155
a(Vhad
p3156
g3
tp3157
a(Vthe
p3158
g3
tp3159
a(VWBC
p3160
VORGANIZATION
p3161
tp3162
a(Vworld
p3163
g3
tp3164
a(Vchampion
p3165
g3
tp3166
a(Vtitle
p3167
g3
tp3168
a(Vat
p3169
g3
tp3170
a(Vstake
p3171
g3
tp3172
aa(lp3173
(Vhow
p3174
g3
tp3175
a(Vmany
p3176
g3
tp3177
a(Vpeople
p3178
g3
tp3179
a(Vplayed
p3180
g3
tp3181
a(Vin
p3182
g3
tp3183
a(Vthe
p3184
g3
tp3185
a(V2010
p3186
g3
tp3187
a(VFIFA
p3188
VORGANIZATION
p3189
tp3190
a(Vworld
p3191
g3
tp3192
a(Vcup
p3193
g3
tp3194
a(Vfinal
p3195
g3
tp3196
aa(lp3197
(Vhow
p3198
g3
tp3199
a(Vmany
p3200
g3
tp3201
a(Vcelebrities
p3202
g3
tp3203
a(Vhave
p3204
g3
tp3205
a(Vabused
p3206
g3
tp3207
a(Vcocaine
p3208
g3
tp3209
aa(lp3210
(Vwhat
p3211
g3
tp3212
a(Vare
p3213
g3
tp3214
a(Vthe
p3215
g3
tp3216
a(Vlines
p3217
g3
tp3218
a(Vof
p3219
g3
tp3220
a(Vthe
p3221
g3
tp3222
a(VNew
p3223
VLOCATION
p3224
tp3225
a(VYork
p3226
VLOCATION
p3227
tp3228
a(VCity
p3229
VLOCATION
p3230
tp3231
a(Vsubway
p3232
g3
tp3233
aa(lp3234
(Vwhen
p3235
g3
tp3236
a(Vwas
p3237
g3
tp3238
a(Vcap'n
p3239
g3
tp3240
a(Vcrunch
p3241
g3
tp3242
a(Vintroduced
p3243
g3
tp3244
aa(lp3245
(Vwhen
p3246
g3
tp3247
a(Vwas
p3248
g3
tp3249
a(Voxygen
p3250
g3
tp3251
a(Vdiscovered
p3252
g3
tp3253
aa(lp3254
(Vwhen
p3255
g3
tp3256
a(Vdid
p3257
g3
tp3258
a(Veasy
p3259
g3
tp3260
a(Vaces
p3261
g3
tp3262
a(Vstop
p3263
g3
tp3264
a(Vbeing
p3265
g3
tp3266
a(Vproduced
p3267
g3
tp3268
aa(lp3269
(Vwhat
p3270
g3
tp3271
a(Vteam
p3272
g3
tp3273
a(Vdoes
p3274
g3
tp3275
a(VMike
p3276
VPERSON
p3277
tp3278
a(VBabcock
p3279
VPERSON
p3280
tp3281
a(Vcoach
p3282
g3
tp3283
aa(lp3284
(Vhow
p3285
g3
tp3286
a(Vmany
p3287
g3
tp3288
a(Vengineers
p3289
g3
tp3290
a(Vworked
p3291
g3
tp3292
a(Von
p3293
g3
tp3294
a(Vthe
p3295
g3
tp3296
a(Vdesign
p3297
g3
tp3298
a(Vand
p3299
g3
tp3300
a(Vconstruction
p3301
g3
tp3302
a(Vof
p3303
g3
tp3304
a(Vthe
p3305
g3
tp3306
a(Vplymouth
p3307
g3
tp3308
a(Vbreakwater
p3309
g3
tp3310
aa(lp3311
(Vwhen
p3312
g3
tp3313
a(Vwas
p3314
g3
tp3315
a(Vthe
p3316
g3
tp3317
a(VSony
p3318
VORGANIZATION
p3319
tp3320
a(Vnex-5
p3321
g3
tp3322
a(Vreleased
p3323
g3
tp3324
aa(lp3325
(Vwhen
p3326
g3
tp3327
a(Vwas
p3328
g3
tp3329
a(Vletter
p3330
g3
tp3331
a(Vfrom
p3332
g3
tp3333
a(Vamerica
p3334
VLOCATION
p3335
tp3336
a(Vlast
p3337
g3
tp3338
a(Vbroadcast
p3339
g3
tp3340
aa(lp3341
(Vin
p3342
g3
tp3343
a(Vwhat
p3344
g3
tp3345
a(Vzoo
p3346
g3
tp3347
a(Vwas
p3348
g3
tp3349
a(Vknut
p3350
g3
tp3351
a(Vkept
p3352
g3
tp3353
aa(lp3354
(Vwhat
p3355
g3
tp3356
a(Vis
p3357
g3
tp3358
a(Vthe
p3359
g3
tp3360
a(Vhighest
p3361
g3
tp3362
a(Vdrop
p3363
g3
tp3364
a(Von
p3365
g3
tp3366
a(Vstealth
p3367
g3
tp3368
aa(lp3369
(Vhow
p3370
g3
tp3371
a(Vmany
p3372
g3
tp3373
a(Vfilms
p3374
g3
tp3375
a(Vhas
p3376
g3
tp3377
a(VTim
p3378
VPERSON
p3379
tp3380
a(VBurton
p3381
VPERSON
p3382
tp3383
a(Vproduced
p3384
g3
tp3385
aa(lp3386
(Vdid
p3387
g3
tp3388
a(VJack
p3389
VPERSON
p3390
tp3391
a(VDempsey
p3392
VPERSON
p3393
tp3394
a(Vwin
p3395
g3
tp3396
a(Vthe
p3397
g3
tp3398
a(Vlong
p3399
g3
tp3400
a(Vcount
p3401
g3
tp3402
a(Vfight
p3403
g3
tp3404
aa(lp3405
(Vwho
p3406
g3
tp3407
a(Vwere
p3408
g3
tp3409
a(Vthe
p3410
g3
tp3411
a(Vkey
p3412
g3
tp3413
a(Vdesigners
p3414
g3
tp3415
a(Vof
p3416
g3
tp3417
a(Vthe
p3418
g3
tp3419
a(VMacintosh
p3420
g3
tp3421
aa(lp3422
(Vhow
p3423
g3
tp3424
a(Vmany
p3425
g3
tp3426
a(Vpeople
p3427
g3
tp3428
a(Vhave
p3429
g3
tp3430
a(Vwon
p3431
g3
tp3432
a(Vthe
p3433
g3
tp3434
a(VNobel
p3435
g3
tp3436
a(Vpeace
p3437
g3
tp3438
a(Vprize
p3439
g3
tp3440
aa(lp3441
(Vwhere
p3442
g3
tp3443
a(Vwas
p3444
g3
tp3445
a(VOmarion
p3446
VPERSON
p3447
tp3448
a(Vborn
p3449
g3
tp3450
aa(lp3451
(Vwhat
p3452
g3
tp3453
a(Vtourist
p3454
g3
tp3455
a(Vattractions
p3456
g3
tp3457
a(Vare
p3458
g3
tp3459
a(Vin
p3460
g3
tp3461
a(VRome
p3462
VLOCATION
p3463
tp3464
aa(lp3465
(Vwhat
p3466
g3
tp3467
a(Vare
p3468
g3
tp3469
a(Vthe
p3470
g3
tp3471
a(Vmajor
p3472
g3
tp3473
a(Vexports
p3474
g3
tp3475
a(Vof
p3476
g3
tp3477
a(VMadagascar
p3478
VLOCATION
p3479
tp3480
aa(lp3481
(Vwhen
p3482
g3
tp3483
a(Vwas
p3484
g3
tp3485
a(Vthe
p3486
g3
tp3487
a(Vconstruction
p3488
g3
tp3489
a(Vof
p3490
g3
tp3491
a(Vnew
p3492
g3
tp3493
a(VSteubenville
p3494
VLOCATION
p3495
tp3496
a(Vbridge
p3497
g3
tp3498
a(Vfinished
p3499
g3
tp3500
aa(lp3501
(Vhow
p3502
g3
tp3503
a(Vmany
p3504
g3
tp3505
a(Vother
p3506
g3
tp3507
a(Vnames
p3508
g3
tp3509
a(Vare
p3510
g3
tp3511
a(Vthere
p3512
g3
tp3513
a(Vfor
p3514
g3
tp3515
a(VJCPenney
p3516
g3
tp3517
aa(lp3518
(Vwhat
p3519
g3
tp3520
a(Vlanguage
p3521
g3
tp3522
a(Vfamily
p3523
g3
tp3524
a(Vis
p3525
g3
tp3526
a(Vafrikaans
p3527
g3
tp3528
a(Vpart
p3529
g3
tp3530
a(Vof
p3531
g3
tp3532
aa(lp3533
(Vwhat
p3534
g3
tp3535
a(Vpercentage
p3536
g3
tp3537
a(Vof
p3538
g3
tp3539
a(Vthe
p3540
g3
tp3541
a(Vgrapes
p3542
g3
tp3543
a(Vin
p3544
g3
tp3545
a(g325
g3
tp3546
a(V1966
p3547
g3
tp3548
a(Vchateau
p3549
g3
tp3550
a(Vlatour
p3551
g3
tp3552
a(Vgrand
p3553
g3
tp3554
a(Vvin
p3555
g3
tp3556
a(Vare
p3557
g3
tp3558
a(Vmerlot
p3559
g3
tp3560
aa(lp3561
(Vhow
p3562
g3
tp3563
a(Vmany
p3564
g3
tp3565
a(Vhistorical
p3566
g3
tp3567
a(Vevents
p3568
g3
tp3569
a(Vhappened
p3570
g3
tp3571
a(Vin
p3572
g3
tp3573
a(VSouth
p3574
VLOCATION
p3575
tp3576
a(VAmerica
p3577
VLOCATION
p3578
tp3579
aa(lp3580
(Vwhat
p3581
g3
tp3582
a(Vmeteor
p3583
g3
tp3584
a(Vshowers
p3585
g3
tp3586
a(Vhas
p3587
g3
tp3588
a(Vthe
p3589
g3
tp3590
a(Vcomet
p3591
g3
tp3592
a(Vhalley
p3593
g3
tp3594
a(Vspawned
p3595
g3
tp3596
aa(lp3597
(Vwhen
p3598
g3
tp3599
a(Vwas
p3600
g3
tp3601
a(Vpride
p3602
g3
tp3603
a(Vand
p3604
g3
tp3605
a(Vprejudice
p3606
g3
tp3607
a(Vpublished
p3608
g3
tp3609
aa(lp3610
(Vwho
p3611
g3
tp3612
a(Vmanufactured
p3613
g3
tp3614
a(Vmillennium
p3615
g3
tp3616
a(Vforce
p3617
g3
tp3618
aa(lp3619
(Vwhat
p3620
g3
tp3621
a(Vcharacters
p3622
g3
tp3623
a(Vwere
p3624
g3
tp3625
a(Von
p3626
g3
tp3627
a(Vthe
p3628
g3
tp3629
a(Vcover
p3630
g3
tp3631
a(Vof
p3632
g3
tp3633
a(Vbatman
p3634
g3
tp3635
a(V#
p3636
g3
tp3637
a(V1
p3638
g3
tp3639
aa(lp3640
(Vwhat
p3641
g3
tp3642
a(Vsort
p3643
g3
tp3644
a(Vof
p3645
g3
tp3646
a(Vweave
p3647
g3
tp3648
a(Vis
p3649
g3
tp3650
a(Vused
p3651
g3
tp3652
a(Vto
p3653
g3
tp3654
a(Vmake
p3655
g3
tp3656
a(Vtweed
p3657
g3
tp3658
aa(lp3659
(Vwhen
p3660
g3
tp3661
a(VGatorade
p3662
g3
tp3663
a(Vwas
p3664
g3
tp3665
a(Vfirst
p3666
g3
tp3667
a(Vdeveloped
p3668
g3
tp3669
aa(lp3670
(Von
p3671
g3
tp3672
a(Vhow
p3673
g3
tp3674
a(Vmany
p3675
g3
tp3676
a(Vprojects
p3677
g3
tp3678
a(Vwas
p3679
g3
tp3680
a(VJames
p3681
VPERSON
p3682
tp3683
a(VWalker
p3684
VPERSON
p3685
tp3686
a(g325
g3
tp3687
a(Vdesign
p3688
g3
tp3689
a(Vengineer
p3690
g3
tp3691
aa(lp3692
(Vhow
p3693
g3
tp3694
a(Vmany
p3695
g3
tp3696
a(Vawards
p3697
g3
tp3698
a(Vdid
p3699
g3
tp3700
a(Vthe
p3701
g3
tp3702
a(Vmovie
p3703
g3
tp3704
a(g2741
g3
tp3705
a(Vmile
p3706
g3
tp3707
a(Vwin
p3708
g3
tp3709
aa(lp3710
(Vhow
p3711
g3
tp3712
a(Vmany
p3713
g3
tp3714
a(Vpeople
p3715
g3
tp3716
a(Vpractice
p3717
g3
tp3718
a(Vbuddhism
p3719
g3
tp3720
aa(lp3721
(Vhow
p3722
g3
tp3723
a(Vmuch
p3724
g3
tp3725
a(Vdid
p3726
g3
tp3727
a(Vthe
p3728
g3
tp3729
a(Vconstruction
p3730
g3
tp3731
a(Vof
p3732
g3
tp3733
a(Vthe
p3734
g3
tp3735
a(VTaj
p3736
g3
tp3737
a(VMahal
p3738
g3
tp3739
a(Vcost
p3740
g3
tp3741
aa(lp3742
(Vwhat
p3743
g3
tp3744
a(Vare
p3745
g3
tp3746
a(Vsome
p3747
g3
tp3748
a(Vobject-oriented
p3749
g3
tp3750
a(Vprogramming
p3751
g3
tp3752
a(Vlanguages
p3753
g3
tp3754
aa(lp3755
(Vwho
p3756
g3
tp3757
a(Vwere
p3758
g3
tp3759
a(Vthe
p3760
g3
tp3761
a(Vcurators
p3762
g3
tp3763
a(Vfor
p3764
g3
tp3765
a(VRenoir
p3766
VORGANIZATION
p3767
tp3768
a(Vin
p3769
g3
tp3770
a(Vthe
p3771
g3
tp3772
a(V20th
p3773
g3
tp3774
a(Vcentury
p3775
g3
tp3776
aa(lp3777
(Vfor
p3778
g3
tp3779
a(Vwhat
p3780
g3
tp3781
a(Vcountry
p3782
g3
tp3783
a(Vdid
p3784
g3
tp3785
a(VBernard
p3786
VPERSON
p3787
tp3788
a(VLagat
p3789
VPERSON
p3790
tp3791
a(Vplay
p3792
g3
tp3793
a(Vin
p3794
g3
tp3795
a(Vthe
p3796
g3
tp3797
a(V2000
p3798
g3
tp3799
a(Vsummer
p3800
g3
tp3801
a(Volympics
p3802
g3
tp3803
aa(lp3804
(Vwhat
p3805
g3
tp3806
a(Vtitles
p3807
g3
tp3808
a(Vwere
p3809
g3
tp3810
a(Vat
p3811
g3
tp3812
a(Vstake
p3813
g3
tp3814
a(Vin
p3815
g3
tp3816
a(Vthe
p3817
g3
tp3818
a(Vthe
p3819
g3
tp3820
a(Vrumble
p3821
g3
tp3822
a(Vin
p3823
g3
tp3824
a(Vthe
p3825
g3
tp3826
a(Vjungle
p3827
g3
tp3828
aa(lp3829
(Vwhat
p3830
g3
tp3831
a(Vgames
p3832
g3
tp3833
a(Vhas
p3834
g3
tp3835
a(VElectronic
p3836
g3
tp3837
a(VArts
p3838
g3
tp3839
a(Vdeveloped
p3840
g3
tp3841
aa(lp3842
(Vhow
p3843
g3
tp3844
a(Vmany
p3845
g3
tp3846
a(Vstores
p3847
g3
tp3848
a(Vare
p3849
g3
tp3850
a(Vin
p3851
g3
tp3852
a(VNittany
p3853
VLOCATION
p3854
tp3855
a(Vmall
p3856
g3
tp3857
aa(lp3858
(Vwhen
p3859
g3
tp3860
a(Vwas
p3861
g3
tp3862
a(Vnutty
p3863
g3
tp3864
a(Vprofessor
p3865
g3
tp3866
a(Vreleased
p3867
g3
tp3868
aa(lp3869
(Vwho
p3870
g3
tp3871
a(Vwas
p3872
g3
tp3873
a(Vthe
p3874
g3
tp3875
a(Veditor
p3876
g3
tp3877
a(Vin
p3878
g3
tp3879
a(Vchief
p3880
g3
tp3881
a(Vof
p3882
g3
tp3883
a(VDie
p3884
VORGANIZATION
p3885
tp3886
a(VWelt
p3887
VORGANIZATION
p3888
tp3889
a(Vin
p3890
g3
tp3891
a(V2000
p3892
g3
tp3893
aa(lp3894
(Vwhat
p3895
g3
tp3896
a(Vis
p3897
g3
tp3898
a(Vthe
p3899
g3
tp3900
a(Vnutty
p3901
g3
tp3902
a(Vprofessor
p3903
g3
tp3904
a(Vrated
p3905
g3
tp3906
aa(lp3907
(Vhow
p3908
g3
tp3909
a(Vmany
p3910
g3
tp3911
a(Vfilm
p3912
g3
tp3913
a(Vperformances
p3914
g3
tp3915
a(Vdid
p3916
g3
tp3917
a(VJack
p3918
VPERSON
p3919
tp3920
a(VAlbertson
p3921
VPERSON
p3922
tp3923
a(Vdo
p3924
g3
tp3925
aa(lp3926
(Vwhat
p3927
g3
tp3928
a(Vmusicians
p3929
g3
tp3930
a(Vhave
p3931
g3
tp3932
a(Vdied
p3933
g3
tp3934
a(Vof
p3935
g3
tp3936
a(Vlung
p3937
g3
tp3938
a(Vcancer
p3939
g3
tp3940
aa(lp3941
(Vwhat
p3942
g3
tp3943
a(Vtype
p3944
g3
tp3945
a(Vof
p3946
g3
tp3947
a(Vbridge
p3948
g3
tp3949
a(Vis
p3950
g3
tp3951
a(Vthe
p3952
g3
tp3953
a(VManhattan
p3954
VLOCATION
p3955
tp3956
a(Vbridge
p3957
g3
tp3958
aa(lp3959
(Vwhat
p3960
g3
tp3961
a(Vsport
p3962
g3
tp3963
a(Vdid
p3964
g3
tp3965
a(VScott
p3966
VPERSON
p3967
tp3968
a(VAnderson
p3969
VPERSON
p3970
tp3971
a(Vplay
p3972
g3
tp3973
a(Vin
p3974
g3
tp3975
a(Vthe
p3976
g3
tp3977
a(V1992
p3978
g3
tp3979
a(Vsummer
p3980
g3
tp3981
a(Volympics
p3982
g3
tp3983
aa(lp3984
(Vwho
p3985
g3
tp3986
a(Vdesigned
p3987
g3
tp3988
a(Vthe
p3989
g3
tp3990
a(Vparthenon
p3991
g3
tp3992
aa(lp3993
(Vhow
p3994
g3
tp3995
a(Vmany
p3996
g3
tp3997
a(Vmonarchs
p3998
g3
tp3999
a(Vare
p4000
g3
tp4001
a(Vfrom
p4002
g3
tp4003
a(Vthe
p4004
g3
tp4005
a(Vhouse
p4006
g3
tp4007
a(Vof
p4008
g3
tp4009
a(VTudor
p4010
VLOCATION
p4011
tp4012
aa(lp4013
(Vwhat
p4014
g3
tp4015
a(Vgerman
p4016
g3
tp4017
a(Vathletes
p4018
g3
tp4019
a(Vhave
p4020
g3
tp4021
a(Vparticipated
p4022
g3
tp4023
a(Vin
p4024
g3
tp4025
a(Vthe
p4026
g3
tp4027
a(Volympics
p4028
g3
tp4029
aa(lp4030
(Vwhat
p4031
g3
tp4032
a(Vteams
p4033
g3
tp4034
a(Vdid
p4035
g3
tp4036
a(VBabe
p4037
VPERSON
p4038
tp4039
a(VRuth
p4040
VPERSON
p4041
tp4042
a(Vplay
p4043
g3
tp4044
a(Vfor
p4045
g3
tp4046
aa(lp4047
(Vin
p4048
g3
tp4049
a(Vwhat
p4050
g3
tp4051
a(Vevents
p4052
g3
tp4053
a(Vdid
p4054
g3
tp4055
a(VIan
p4056
VPERSON
p4057
tp4058
a(VThorpe
p4059
VPERSON
p4060
tp4061
a(Vcompete
p4062
g3
tp4063
a(Vin
p4064
g3
tp4065
a(Vthe
p4066
g3
tp4067
a(V2004
p4068
g3
tp4069
a(Vsummer
p4070
g3
tp4071
a(Volympics
p4072
g3
tp4073
aa(lp4074
(Vwhat
p4075
g3
tp4076
a(Vis
p4077
g3
tp4078
a(Vthe
p4079
g3
tp4080
a(Vwingspan
p4081
g3
tp4082
a(Vof
p4083
g3
tp4084
a(Van
p4085
g3
tp4086
a(VEclipse
p4087
g3
tp4088
a(V500
p4089
g3
tp4090
aa(lp4091
(Vwho
p4092
g3
tp4093
a(Vsponsors
p4094
g3
tp4095
a(Vthe
p4096
g3
tp4097
a(Vhoby
p4098
g3
tp4099
a(Vseminars
p4100
g3
tp4101
aa(lp4102
(Vwho
p4103
g3
tp4104
a(Vfounded
p4105
g3
tp4106
a(Vthe
p4107
g3
tp4108
a(Vorder
p4109
g3
tp4110
a(Vof
p4111
g3
tp4112
a(Vthe
p4113
g3
tp4114
a(Vdragon
p4115
g3
tp4116
aa(lp4117
(Vwho
p4118
g3
tp4119
a(Vproduced
p4120
g3
tp4121
a(Vsabotage
p4122
g3
tp4123
a(Vby
p4124
g3
tp4125
a(Vthe
p4126
g3
tp4127
a(VBeastie
p4128
g3
tp4129
a(Vboys
p4130
g3
tp4131
aa(lp4132
(Vhow
p4133
g3
tp4134
a(Vmany
p4135
g3
tp4136
a(Vruns
p4137
g3
tp4138
a(Vdoes
p4139
g3
tp4140
a(Vthe
p4141
g3
tp4142
a(Vthunder
p4143
g3
tp4144
a(Vridge
p4145
g3
tp4146
a(Vski
p4147
g3
tp4148
a(Varea
p4149
g3
tp4150
a(Vhave
p4151
g3
tp4152
aa(lp4153
(Vhow
p4154
g3
tp4155
a(Vmany
p4156
g3
tp4157
a(Vpeople
p4158
g3
tp4159
a(Vdied
p4160
g3
tp4161
a(Vin
p4162
g3
tp4163
a(Vhurricane
p4164
g3
tp4165
a(VWilma
p4166
VPERSON
p4167
tp4168
aa(lp4169
(Vwho
p4170
g3
tp4171
a(Vdiscovered
p4172
g3
tp4173
a(Vthe
p4174
g3
tp4175
a(Vrings
p4176
g3
tp4177
a(Vof
p4178
g3
tp4179
a(VSaturn
p4180
g3
tp4181
aa(lp4182
(Vwhat
p4183
g3
tp4184
a(Vis
p4185
g3
tp4186
a(Vthe
p4187
g3
tp4188
a(Vlcd
p4189
g3
tp4190
a(Vscreen
p4191
g3
tp4192
a(Vresolution
p4193
g3
tp4194
a(Vof
p4195
g3
tp4196
a(g325
g3
tp4197
a(VNikon
p4198
VORGANIZATION
p4199
tp4200
a(Vd80
p4201
g3
tp4202
aa(lp4203
(Vwhen
p4204
g3
tp4205
a(Vwas
p4206
g3
tp4207
a(Vthe
p4208
g3
tp4209
a(VSan
p4210
VLOCATION
p4211
tp4212
a(VDiego
p4213
VLOCATION
p4214
tp4215
a(Vzoo
p4216
g3
tp4217
a(Vopened
p4218
g3
tp4219
aa(lp4220
(Vhow
p4221
g3
tp4222
a(Vheavy
p4223
g3
tp4224
a(Vis
p4225
g3
tp4226
a(g325
g3
tp4227
a(VPanasonic
p4228
VORGANIZATION
p4229
tp4230
a(Vlumix
p4231
g3
tp4232
a(Vdmc-tz3
p4233
g3
tp4234
aa(lp4235
(Vwhere
p4236
g3
tp4237
a(Vwas
p4238
g3
tp4239
a(VLiam
p4240
VPERSON
p4241
tp4242
a(VGallagher
p4243
VPERSON
p4244
tp4245
a(Vborn
p4246
g3
tp4247
aa(lp4248
(Vhow
p4249
g3
tp4250
a(Vmany
p4251
g3
tp4252
a(Vbeers
p4253
g3
tp4254
a(Vcome
p4255
g3
tp4256
a(g325
g3
tp4257
a(Vcan
p4258
g3
tp4259
aa(lp4260
(Vwhat
p4261
g3
tp4262
a(Vis
p4263
g3
tp4264
a(Vthe
p4265
g3
tp4266
a(Vsubject
p4267
g3
tp4268
a(Vof
p4269
g3
tp4270
a(Vthe
p4271
g3
tp4272
a(Vatlantic
p4273
g3
tp4274
a(Vmonthly
p4275
g3
tp4276
aa(lp4277
(Vwhat
p4278
g3
tp4279
a(Vwas
p4280
g3
tp4281
a(Vthe
p4282
g3
tp4283
a(Vamerican
p4284
g3
tp4285
a(Vpast
p4286
g3
tp4287
a(Vabout
p4288
g3
tp4289
aa(lp4290
(Vwho
p4291
g3
tp4292
a(Vdestroyed
p4293
g3
tp4294
a(Vthe
p4295
g3
tp4296
a(Vone
p4297
g3
tp4298
a(Vring
p4299
g3
tp4300
aa(lp4301
(Vhow
p4302
g3
tp4303
a(Vmany
p4304
g3
tp4305
a(Vstudents
p4306
g3
tp4307
a(Vare
p4308
g3
tp4309
a(Vthere
p4310
g3
tp4311
a(Vat
p4312
g3
tp4313
a(Vthe
p4314
g3
tp4315
a(Vuniversity
p4316
g3
tp4317
a(Vof
p4318
g3
tp4319
a(VIceland
p4320
VLOCATION
p4321
tp4322
aa(lp4323
(Vwho
p4324
g3
tp4325
a(Vfounded
p4326
g3
tp4327
a(Vthe
p4328
g3
tp4329
a(VRed
p4330
VORGANIZATION
p4331
tp4332
a(VCross
p4333
VORGANIZATION
p4334
tp4335
aa(lp4336
(Vhow
p4337
g3
tp4338
a(Vmany
p4339
g3
tp4340
a(Vradio
p4341
g3
tp4342
a(Vstations
p4343
g3
tp4344
a(Vdoes
p4345
g3
tp4346
a(VCBS
p4347
VORGANIZATION
p4348
tp4349
a(Vradio
p4350
g3
tp4351
a(Vown
p4352
g3
tp4353
aa(lp4354
(Vwhat
p4355
g3
tp4356
a(Vis
p4357
g3
tp4358
a(VAshok
p4359
VPERSON
p4360
tp4361
a(VMalhotra
p4362
VPERSON
p4363
tp4364
a(V's
p4365
g3
tp4366
a(Vbowling
p4367
g3
tp4368
a(Vpace
p4369
g3
tp4370
aa(lp4371
(Vhow
p4372
g3
tp4373
a(Vlong
p4374
g3
tp4375
a(Vis
p4376
g3
tp4377
a(Vwired_s
p4378
g3
tp4379
a(Vgadget
p4380
g3
tp4381
a(Vlab
p4382
g3
tp4383
a(Vpodcast
p4384
g3
tp4385
aa(lp4386
(Vhow
p4387
g3
tp4388
a(Vmany
p4389
g3
tp4390
a(Vpoliticians
p4391
g3
tp4392
a(Vhave
p4393
g3
tp4394
a(Vserved
p4395
g3
tp4396
a(Vin
p4397
g3
tp4398
a(Vthe
p4399
g3
tp4400
a(VUS
p4401
VLOCATION
p4402
tp4403
a(Vnavy
p4404
g3
tp4405
aa(lp4406
(Vwhat
p4407
g3
tp4408
a(Vcauses
p4409
g3
tp4410
a(Vbipolar
p4411
g3
tp4412
a(Vdisorder
p4413
g3
tp4414
aa(lp4415
(Vwhat
p4416
g3
tp4417
a(Vcauses
p4418
g3
tp4419
a(Vsyphilis
p4420
g3
tp4421
aa(lp4422
(Vwho
p4423
g3
tp4424
a(Vsaid
p4425
g3
tp4426
a(Vthat_s
p4427
g3
tp4428
a(Vone
p4429
g3
tp4430
a(Vsmall
p4431
g3
tp4432
a(Vstep
p4433
g3
tp4434
a(Vfor
p4435
g3
tp4436
a(Vman
p4437
g3
tp4438
a(V,
p4439
g3
tp4440
a(Vone
p4441
g3
tp4442
a(Vgiant
p4443
g3
tp4444
a(Vleap
p4445
g3
tp4446
a(Vfor
p4447
g3
tp4448
a(Vmankind
p4449
g3
tp4450
aa(lp4451
(Vwhat
p4452
g3
tp4453
a(Vbicycle
p4454
g3
tp4455
a(Vmodels
p4456
g3
tp4457
a(Vdoes
p4458
g3
tp4459
a(Vraleigh
p4460
g3
tp4461
a(Vmanufacture
p4462
g3
tp4463
aa(lp4464
(Vwhat
p4465
g3
tp4466
a(Vplay
p4467
g3
tp4468
a(Vwas
p4469
g3
tp4470
a(Vwest
p4471
g3
tp4472
a(Vside
p4473
g3
tp4474
a(Vstory
p4475
g3
tp4476
a(Vadapted
p4477
g3
tp4478
a(Vfrom
p4479
g3
tp4480
aa(lp4481
(Vwhat
p4482
g3
tp4483
a(Vteam
p4484
g3
tp4485
a(Vdoes
p4486
g3
tp4487
a(VAlan
p4488
VPERSON
p4489
tp4490
a(VButcher
p4491
VPERSON
p4492
tp4493
a(Vcoach
p4494
g3
tp4495
aa(lp4496
(Vhow
p4497
g3
tp4498
a(Vmany
p4499
g3
tp4500
a(Vspeeches
p4501
g3
tp4502
a(Vhave
p4503
g3
tp4504
a(Vbeen
p4505
g3
tp4506
a(Vgiven
p4507
g3
tp4508
a(Vabout
p4509
g3
tp4510
a(Vworld
p4511
g3
tp4512
a(Vwar
p4513
g3
tp4514
a(Vii
p4515
g3
tp4516
aa(lp4517
(Vwho
p4518
g3
tp4519
a(Vis
p4520
g3
tp4521
a(Vthe
p4522
g3
tp4523
a(Vnewscaster
p4524
g3
tp4525
a(Von
p4526
g3
tp4527
a(VABC
p4528
VORGANIZATION
p4529
tp4530
a(V6
p4531
g3
tp4532
a(Vnews
p4533
g3
tp4534
aa(lp4535
(Vwho
p4536
g3
tp4537
a(Vis
p4538
g3
tp4539
a(Vthe
p4540
g3
tp4541
a(Vpresent
p4542
g3
tp4543
a(Vnewscaster
p4544
g3
tp4545
a(Von
p4546
g3
tp4547
a(VCBS
p4548
VORGANIZATION
p4549
tp4550
a(Vevening
p4551
g3
tp4552
a(Vnews
p4553
g3
tp4554
aa.