(lp0
(lp1
(Vat
p2
S'IN'
p3
tp4
a(Vwhat
p5
S'WP'
p6
tp7
a(Vinstitutions
p8
S'NNS'
p9
tp10
a(Vwas
p11
S'VBD'
p12
tp13
a(VMarshall
p14
S'NNP'
p15
tp16
a(VHall
p17
g15
tp18
a(Va
p19
S'DT'
p20
tp21
a(Vprofessor
p22
S'NN'
p23
tp24
aa(lp25
(Vwhat
p26
S'WP'
p27
tp28
a(Vfuel
p29
S'NN'
p30
tp31
a(Vdoes
p32
S'VBZ'
p33
tp34
a(Van
p35
S'DT'
p36
tp37
a(Vinternal
p38
S'JJ'
p39
tp40
a(Vcombustion
p41
g30
tp42
a(Vengine
p43
S'NN'
p44
tp45
a(Vuse
p46
g30
tp47
aa(lp48
(Vhow
p49
S'WRB'
p50
tp51
a(Vmany
p52
S'JJ'
p53
tp54
a(Vcompanies
p55
S'NNS'
p56
tp57
a(Vare
p58
S'VBP'
p59
tp60
a(Vtraded
p61
S'VBN'
p62
tp63
a(Vby
p64
S'IN'
p65
tp66
a(Vthe
p67
S'DT'
p68
tp69
a(Vnyse
p70
S'NN'
p71
tp72
aa(lp73
(Vwhat
p74
S'WP'
p75
tp76
a(Vis
p77
S'VBZ'
p78
tp79
a(Vthe
p80
S'DT'
p81
tp82
a(Vaddress
p83
S'NN'
p84
tp85
a(Vof
p86
S'IN'
p87
tp88
a(Vthe
p89
g81
tp90
a(VApple
p91
S'NNP'
p92
tp93
a(V,
p94
S','
p95
tp96
a(VInc.
p97
S'NNP'
p98
tp99
a(Vheadquarters
p100
g84
tp101
aa(lp102
(Vwhat
p103
S'WDT'
p104
tp105
a(Vwas
p106
S'VBD'
p107
tp108
a(Vthe
p109
S'DT'
p110
tp111
a(Vcover
p112
S'JJ'
p113
tp114
a(Vprice
p115
S'NN'
p116
tp117
a(Vof
p118
S'IN'
p119
tp120
a(Vthe
p121
g110
tp122
a(VX-Men
p123
g113
tp124
a(Vissue
p125
S'NN'
p126
tp127
a(V1
p128
S'CD'
p129
tp130
aa(lp131
(Vhow
p132
S'WRB'
p133
tp134
a(Voften
p135
S'RB'
p136
tp137
a(Vdoes
p138
S'VBZ'
p139
tp140
a(Vthe
p141
S'DT'
p142
tp143
a(VWashington
p144
S'NNP'
p145
tp146
a(VPost
p147
S'NNP'
p148
tp149
a(Vcome
p150
S'VBP'
p151
tp152
a(Vout
p153
S'RP'
p154
tp155
aa(lp156
(Vwhat
p157
S'WP'
p158
tp159
a(Vissue
p160
S'NN'
p161
tp162
a(Vof
p163
S'IN'
p164
tp165
a(VSandman
p166
S'NNP'
p167
tp168
a(Vis
p169
S'VBZ'
p170
tp171
a(VA
p172
g167
tp173
a(VDream
p174
g167
tp175
a(Vof
p176
g164
tp177
a(g19
S'DT'
p178
tp179
a(VThousand
p180
g167
tp181
a(VCats
p182
g167
tp183
aa(lp184
(Vhow
p185
S'WRB'
p186
tp187
a(Vmany
p188
S'JJ'
p189
tp190
a(Vpeople
p191
S'NNS'
p192
tp193
a(Vsurvived
p194
S'VBD'
p195
tp196
a(Vthe
p197
S'DT'
p198
tp199
a(Vsinking
p200
S'NN'
p201
tp202
a(Vof
p203
S'IN'
p204
tp205
a(Vthe
p206
g198
tp207
a(VTitanic
p208
S'NNP'
p209
tp210
aa(lp211
(Vwhat
p212
S'WP'
p213
tp214
a(Volympics
p215
S'PRP'
p216
tp217
a(Vhas
p218
S'VBZ'
p219
tp220
a(VEgypt
p221
S'VBN'
p222
tp223
a(Vparticipated
p224
g222
tp225
a(Vin
p226
S'IN'
p227
tp228
aa(lp229
(Vwhat
p230
S'WP'
p231
tp232
a(Vcelebrities
p233
S'NNS'
p234
tp235
a(Vhave
p236
S'VBP'
p237
tp238
a(Vgone
p239
S'VBN'
p240
tp241
a(Vto
p242
S'TO'
p243
tp244
a(Vthe
p245
S'DT'
p246
tp247
a(VBetty
p248
S'NNP'
p249
tp250
a(VFord
p251
S'NNP'
p252
tp253
a(VCenter
p254
S'NNP'
p255
tp256
aa(lp257
(Vhow
p258
S'WRB'
p259
tp260
a(Vold
p261
S'JJ'
p262
tp263
a(Vdo
p264
S'VBP'
p265
tp266
a(Vyou
p267
S'PRP'
p268
tp269
a(Vhave
p270
S'VB'
p271
tp272
a(Vto
p273
S'TO'
p274
tp275
a(Vbe
p276
S'VB'
p277
tp278
a(Vto
p279
g274
tp280
a(Vplay
p281
g271
tp282
a(VMonopoly
p283
S'NNP'
p284
tp285
aa(lp286
(Vhow
p287
S'WRB'
p288
tp289
a(Vmany
p290
S'JJ'
p291
tp292
a(Vfirst
p293
S'JJ'
p294
tp295
a(Vgeneration
p296
S'NN'
p297
tp298
a(Vparticles
p299
S'NNS'
p300
tp301
a(Vare
p302
S'VBP'
p303
tp304
a(Vthere
p305
S'RB'
p306
tp307
aa(lp308
(Vwhen
p309
S'WRB'
p310
tp311
a(Vwas
p312
S'VBD'
p313
tp314
a(Vthe
p315
S'DT'
p316
tp317
a(Vfirst
p318
S'JJ'
p319
tp320
a(Vamendment
p321
S'NN'
p322
tp323
a(Vratified
p324
g313
tp325
aa(lp326
(Vhow
p327
S'WRB'
p328
tp329
a(Vmany
p330
S'JJ'
p331
tp332
a(Vteams
p333
S'NNS'
p334
tp335
a(Vparticipate
p336
S'VBP'
p337
tp338
a(Vin
p339
S'IN'
p340
tp341
a(Vthe
p342
S'DT'
p343
tp344
a(VUEFA
p345
S'NNP'
p346
tp347
aa(lp348
(Vwho
p349
S'WP'
p350
tp351
a(Vare
p352
S'VBP'
p353
tp354
a(Vthe
p355
S'DT'
p356
tp357
a(Vlinebackers
p358
S'NNS'
p359
tp360
a(Von
p361
S'IN'
p362
tp363
a(Vthe
p364
g356
tp365
a(VChicago
p366
S'NNP'
p367
tp368
a(VBears
p369
S'NNP'
p370
tp371
aa(lp372
(Vwhat
p373
S'WP'
p374
tp375
a(Vdid
p376
S'VBD'
p377
tp378
a(VBertrand
p379
S'NNP'
p380
tp381
a(VRussell
p382
g380
tp383
a(Vdie
p384
S'NN'
p385
tp386
a(Vof
p387
S'IN'
p388
tp389
aa(lp390
(Vhow
p391
S'WRB'
p392
tp393
a(Vlong
p394
S'JJ'
p395
tp396
a(Vis
p397
S'VBZ'
p398
tp399
a(Vthe
p400
S'DT'
p401
tp402
a(Vhaunted
p403
g395
tp404
a(Vmansion
p405
S'NN'
p406
tp407
a(Vride
p408
g406
tp409
a(Vat
p410
S'IN'
p411
tp412
a(VDisneyland
p413
S'NNP'
p414
tp415
aa(lp416
(Vwhat
p417
S'WP'
p418
tp419
a(Vtype
p420
S'NN'
p421
tp422
a(Vof
p423
S'IN'
p424
tp425
a(Vtea
p426
g421
tp427
a(Vis
p428
S'VBZ'
p429
tp430
a(Vgunpowder
p431
S'JJ'
p432
tp433
a(Vtea
p434
g421
tp435
aa(lp436
(Vwhat
p437
S'WP'
p438
tp439
a(Vhighway
p440
S'NN'
p441
tp442
a(Vsystem
p443
S'NN'
p444
tp445
a(Vdoes
p446
S'VBZ'
p447
tp448
a(VUS
p449
S'NNP'
p450
tp451
a(VRoute
p452
g450
tp453
a(V101
p454
S'CD'
p455
tp456
a(Vbelong
p457
g441
tp458
a(Vto
p459
S'TO'
p460
tp461
aa(lp462
(Vwhat
p463
S'WP'
p464
tp465
a(Vleague
p466
S'NN'
p467
tp468
a(Vis
p469
S'VBZ'
p470
tp471
a(VReal
p472
S'JJ'
p473
tp474
a(VMadrid
p475
S'NNP'
p476
tp477
a(g19
S'DT'
p478
tp479
a(Vmember
p480
S'NN'
p481
tp482
a(Vof
p483
S'IN'
p484
tp485
aa(lp486
(Vhow
p487
S'WRB'
p488
tp489
a(Vmuch
p490
S'RB'
p491
tp492
a(Vdid
p493
S'VBD'
p494
tp495
a(g19
S'DT'
p496
tp497
a(VCanon
p498
S'NNP'
p499
tp500
a(VPowershot
p501
g499
tp502
a(VTX1
p503
g499
tp504
a(Vcost
p505
S'NN'
p506
tp507
a(Vwhen
p508
S'WRB'
p509
tp510
a(Vit
p511
S'PRP'
p512
tp513
a(Vwas
p514
S'VBD'
p515
tp516
a(Vreleased
p517
S'VBN'
p518
tp519
aa(lp520
(Vwhat
p521
S'WP'
p522
tp523
a(Vregions
p524
S'VBZ'
p525
tp526
a(Vdoes
p527
S'VBZ'
p528
tp529
a(Vthe
p530
S'DT'
p531
tp532
a(VLSE
p533
S'NNP'
p534
tp535
a(Vcover
p536
S'NN'
p537
tp538
aa(lp539
(Vhow
p540
S'WRB'
p541
tp542
a(Vmany
p543
S'JJ'
p544
tp545
a(Vpeople
p546
S'NNS'
p547
tp548
a(Vdoes
p549
S'VBZ'
p550
tp551
a(Vborders
p552
S'NNS'
p553
tp554
a(Vemploy
p555
S'VB'
p556
tp557
aa(lp558
(Vwhere
p559
S'WRB'
p560
tp561
a(Vdid
p562
S'VBD'
p563
tp564
a(VMonsanto
p565
S'NNP'
p566
tp567
a(Vrank
p568
S'NN'
p569
tp570
a(Von
p571
S'IN'
p572
tp573
a(Vthe
p574
S'DT'
p575
tp576
a(VForune
p577
g566
tp578
a(V500
p579
S'CD'
p580
tp581
a(Vin
p582
S'IN'
p583
tp584
a(V2000
p585
S'CD'
p586
tp587
aa(lp588
(Vhow
p589
S'WRB'
p590
tp591
a(Vmany
p592
S'JJ'
p593
tp594
a(Vprosthetic
p595
S'JJ'
p596
tp597
a(Vmakeup
p598
S'NN'
p599
tp600
a(Vartists
p601
S'NNS'
p602
tp603
a(Vworked
p604
S'VBD'
p605
tp606
a(Von
p607
S'IN'
p608
tp609
a(V28
p610
S'CD'
p611
tp612
a(Vdays
p613
S'NNS'
p614
tp615
a(Vlater
p616
S'RB'
p617
tp618
aa(lp619
(Vhow
p620
S'WRB'
p621
tp622
a(Vmany
p623
S'JJ'
p624
tp625
a(Vships
p626
S'NNS'
p627
tp628
a(Vhas
p629
S'VBZ'
p630
tp631
a(VNathanael
p632
S'NNP'
p633
tp634
a(VHerreshoff
p635
g633
tp636
a(Vdesigned
p637
S'VBD'
p638
tp639
aa(lp640
(Vwho
p641
S'WP'
p642
tp643
a(Vmanages
p644
S'VBZ'
p645
tp646
a(VFulham
p647
S'NNP'
p648
tp649
a(VF.
p650
S'NNP'
p651
tp652
a(VC
p653
g648
tp654
a(V.
p655
S'.'
p656
tp657
aa(lp658
(Vwhen
p659
S'WRB'
p660
tp661
a(Vwas
p662
S'VBD'
p663
tp664
a(Vthe
p665
S'DT'
p666
tp667
a(Vcatcher
p668
S'NN'
p669
tp670
a(Vin
p671
S'IN'
p672
tp673
a(Vthe
p674
g666
tp675
a(Vrye
p676
g669
tp677
a(Vfirst
p678
S'RB'
p679
tp680
a(Vpublished
p681
g663
tp682
aa(lp683
(Vhow
p684
S'WRB'
p685
tp686
a(Vmany
p687
S'JJ'
p688
tp689
a(Vrock
p690
S'NN'
p691
tp692
a(Vformations
p693
S'NNS'
p694
tp695
a(Vwere
p696
S'VBD'
p697
tp698
a(Vformed
p699
S'VBN'
p700
tp701
a(Vduring
p702
S'IN'
p703
tp704
a(Vthe
p705
S'DT'
p706
tp707
a(Vcretaceous
p708
S'JJ'
p709
tp710
a(Vperiod
p711
S'NN'
p712
tp713
aa(lp714
(Vwhat
p715
S'WDT'
p716
tp717
a(Vare
p718
S'VBP'
p719
tp720
a(VBMW
p721
S'NNP'
p722
tp723
a(V's
p724
S'POS'
p725
tp726
a(Vmanufacturing
p727
S'NN'
p728
tp729
a(Vplants
p730
S'NNS'
p731
tp732
aa(lp733
(Vwho
p734
S'WP'
p735
tp736
a(Vare
p737
S'VBP'
p738
tp739
a(Vsome
p740
S'DT'
p741
tp742
a(Vpractitioners
p743
S'NNS'
p744
tp745
a(Vof
p746
S'IN'
p747
tp748
a(Vjudo
p749
S'NN'
p750
tp751
aa(lp752
(Vwhat
p753
S'WP'
p754
tp755
a(Vis
p756
S'VBZ'
p757
tp758
a(Vthe
p759
S'DT'
p760
tp761
a(Vaverage
p762
S'JJ'
p763
tp764
a(Vtemperature
p765
S'NN'
p766
tp767
a(Vin
p768
S'IN'
p769
tp770
a(VSydney
p771
S'NNP'
p772
tp773
a(Vin
p774
g769
tp775
a(Vaugust
p776
g766
tp777
aa(lp778
(Vover
p779
S'IN'
p780
tp781
a(Vwhat
p782
S'WP'
p783
tp784
a(Varea
p785
S'NN'
p786
tp787
a(Vdoes
p788
S'VBZ'
p789
tp790
a(Vthe
p791
S'DT'
p792
tp793
a(Vcourt
p794
S'NN'
p795
tp796
a(Vof
p797
S'IN'
p798
tp799
a(Vchancery
p800
S'NN'
p801
tp802
a(Vhave
p803
S'VBP'
p804
tp805
a(Vjurisdiction
p806
g801
tp807
aa(lp808
(Vwhen
p809
S'WRB'
p810
tp811
a(Vdid
p812
S'VBD'
p813
tp814
a(VMount
p815
S'NNP'
p816
tp817
a(VFuji
p818
g816
tp819
a(Vlast
p820
S'JJ'
p821
tp822
a(Verupt
p823
S'NN'
p824
tp825
aa(lp826
(Vhow
p827
S'WRB'
p828
tp829
a(Vtall
p830
S'JJ'
p831
tp832
a(Vis
p833
S'VBZ'
p834
tp835
a(VWestminster
p836
S'NNP'
p837
tp838
a(VAbbey
p839
g837
tp840
aa(lp841
(Vwhen
p842
S'WRB'
p843
tp844
a(Vwas
p845
S'VBD'
p846
tp847
a(VWells
p848
S'NNP'
p849
tp850
a(VFargo
p851
g849
tp852
a(Vfounded
p853
g846
tp854
aa(lp855
(Vwhen
p856
S'WRB'
p857
tp858
a(Vdid
p859
S'VBD'
p860
tp861
a(Vhey
p862
S'VB'
p863
tp864
a(Varnold
p865
S'NN'
p866
tp867
a(V!
p868
S'.'
p869
tp870
a(Vstop
p871
g866
tp872
a(Vrunning
p873
S'VBG'
p874
tp875
aa(lp876
(Vwhen
p877
S'WRB'
p878
tp879
a(Vdid
p880
S'VBD'
p881
tp882
a(VChristopher
p883
S'NNP'
p884
tp885
a(VHiggins
p886
g884
tp887
a(Vstop
p888
S'VB'
p889
tp890
a(Vplaying
p891
S'NN'
p892
tp893
a(Vfor
p894
S'IN'
p895
tp896
a(Vthe
p897
S'DT'
p898
tp899
a(VMontreal
p900
g884
tp901
a(VCanadiens
p902
g884
tp903
aa(lp904
(Vwhat
p905
S'WP'
p906
tp907
a(Vis
p908
S'VBZ'
p909
tp910
a(Vthe
p911
S'DT'
p912
tp913
a(Vhull
p914
S'NN'
p915
tp916
a(Vmade
p917
S'VBN'
p918
tp919
a(Vof
p920
S'IN'
p921
tp922
a(Von
p923
S'IN'
p924
tp925
a(Vthe
p926
g912
tp927
a(VJames
p928
S'NNP'
p929
tp930
a(VCraig
p931
S'NNP'
p932
tp933
aa(lp934
(Vhow
p935
S'WRB'
p936
tp937
a(Vmany
p938
S'JJ'
p939
tp940
a(Vpets
p941
S'NNS'
p942
tp943
a(Vdid
p944
S'VBD'
p945
tp946
a(VJohn
p947
S'NNP'
p948
tp949
a(VF
p950
S'NNP'
p951
tp952
a(VKennedy
p953
g951
tp954
a(Vown
p955
S'JJ'
p956
tp957
aa(lp958
(Vhow
p959
S'WRB'
p960
tp961
a(Vmany
p962
S'JJ'
p963
tp964
a(Vfloors
p965
S'NNS'
p966
tp967
a(Vdoes
p968
S'VBZ'
p969
tp970
a(Vthe
p971
S'DT'
p972
tp973
a(VWhite
p974
S'NNP'
p975
tp976
a(VHouse
p977
S'NNP'
p978
tp979
a(Vhave
p980
S'VBP'
p981
tp982
aa(lp983
(Vin
p984
S'IN'
p985
tp986
a(Vwhich
p987
S'WDT'
p988
tp989
a(Vcomic
p990
S'JJ'
p991
tp992
a(Vbook
p993
S'NN'
p994
tp995
a(Vissue
p996
S'NN'
p997
tp998
a(Vdid
p999
S'VBD'
p1000
tp1001
a(VKitty
p1002
S'NNP'
p1003
tp1004
a(VPryde
p1005
g1003
tp1006
a(Vfirst
p1007
S'RB'
p1008
tp1009
a(Vappear
p1010
S'VBP'
p1011
tp1012
aa(lp1013
(Vwhat
p1014
S'WDT'
p1015
tp1016
a(Vare
p1017
S'VBP'
p1018
tp1019
a(Vthe
p1020
S'DT'
p1021
tp1022
a(Vdeities
p1023
S'NNS'
p1024
tp1025
a(Vof
p1026
S'IN'
p1027
tp1028
a(Vhinduism
p1029
S'NN'
p1030
tp1031
aa(lp1032
(Vwho
p1033
S'WP'
p1034
tp1035
a(Vdesigned
p1036
S'VBD'
p1037
tp1038
a(Vthe
p1039
S'DT'
p1040
tp1041
a(Viphone
p1042
S'NN'
p1043
tp1044
aa(lp1045
(Vhow
p1046
S'WRB'
p1047
tp1048
a(Vmany
p1049
S'JJ'
p1050
tp1051
a(Vother
p1052
S'JJ'
p1053
tp1054
a(Vnames
p1055
S'NNS'
p1056
tp1057
a(Vis
p1058
S'VBZ'
p1059
tp1060
a(VJerry
p1061
S'NNP'
p1062
tp1063
a(VSeinfeld
p1064
g1062
tp1065
a(Vknown
p1066
S'VBN'
p1067
tp1068
a(Vby
p1069
S'IN'
p1070
tp1071
aa(lp1072
(Vwhat
p1073
S'WDT'
p1074
tp1075
a(Vare
p1076
S'VBP'
p1077
tp1078
a(Vthe
p1079
S'DT'
p1080
tp1081
a(Vlatitude
p1082
S'NN'
p1083
tp1084
a(Vand
p1085
S'CC'
p1086
tp1087
a(Vlongitude
p1088
g1083
tp1089
a(Vof
p1090
S'IN'
p1091
tp1092
a(Vthe
p1093
g1080
tp1094
a(VEiffel
p1095
S'NNP'
p1096
tp1097
a(Vtower
p1098
g1083
tp1099
aa(lp1100
(Vhow
p1101
S'WRB'
p1102
tp1103
a(Vmany
p1104
S'JJ'
p1105
tp1106
a(Vvisits
p1107
S'NNS'
p1108
tp1109
a(Vdoes
p1110
S'VBZ'
p1111
tp1112
a(Vthe
p1113
S'DT'
p1114
tp1115
a(VMagic
p1116
S'NNP'
p1117
tp1118
a(VKingdom
p1119
g1117
tp1120
a(Vget
p1121
S'VB'
p1122
tp1123
a(Vper
p1124
S'IN'
p1125
tp1126
a(Vyear
p1127
S'NN'
p1128
tp1129
aa(lp1130
(Vhow
p1131
S'WRB'
p1132
tp1133
a(Vmany
p1134
S'JJ'
p1135
tp1136
a(Vfilm
p1137
S'NN'
p1138
tp1139
a(Vperformances
p1140
S'NNS'
p1141
tp1142
a(Vdid
p1143
S'VBD'
p1144
tp1145
a(VBeyonce
p1146
S'NNP'
p1147
tp1148
a(Vdo
p1149
S'VB'
p1150
tp1151
aa(lp1152
(Vwho
p1153
S'WP'
p1154
tp1155
a(Vmanufactures
p1156
S'VBZ'
p1157
tp1158
a(Vthe
p1159
S'DT'
p1160
tp1161
a(Vspecialized
p1162
S'JJ'
p1163
tp1164
a(Vstumpjumper
p1165
S'NN'
p1166
tp1167
aa(lp1168
(Vwhat
p1169
S'WP'
p1170
tp1171
a(Vtypes
p1172
S'VBZ'
p1173
tp1174
a(Vof
p1175
S'IN'
p1176
tp1177
a(Vfuel
p1178
S'NN'
p1179
tp1180
a(Vdoes
p1181
S'VBZ'
p1182
tp1183
a(g19
S'DT'
p1184
tp1185
a(V4
p1186
S'CD'
p1187
tp1188
a(Vcylinder
p1189
g1179
tp1190
a(Vengine
p1191
S'NN'
p1192
tp1193
a(Vtake
p1194
S'VB'
p1195
tp1196
aa(lp1197
(Vwhat
p1198
S'WP'
p1199
tp1200
a(Vmajor
p1201
S'JJ'
p1202
tp1203
a(Vevents
p1204
S'NNS'
p1205
tp1206
a(Vin
p1207
S'IN'
p1208
tp1209
a(Vhistory
p1210
S'NN'
p1211
tp1212
a(Vhappened
p1213
S'VBN'
p1214
tp1215
a(Vin
p1216
g1208
tp1217
a(VAfrica
p1218
S'NNP'
p1219
tp1220
aa(lp1221
(Vwhat
p1222
S'WP'
p1223
tp1224
a(Vis
p1225
S'VBZ'
p1226
tp1227
a(Vthe
p1228
S'DT'
p1229
tp1230
a(Vtransmission
p1231
S'NN'
p1232
tp1233
a(Vof
p1234
S'IN'
p1235
tp1236
a(g19
S'DT'
p1237
tp1238
a(V2011
p1239
S'CD'
p1240
tp1241
a(Vhonda
p1242
g1232
tp1243
a(Vfit
p1244
g1232
tp1245
aa(lp1246
(Vwhat
p1247
S'WP'
p1248
tp1249
a(Vis
p1250
S'VBZ'
p1251
tp1252
a(VAngelina
p1253
S'NNP'
p1254
tp1255
a(VJolie
p1256
g1254
tp1257
a(V's
p1258
S'POS'
p1259
tp1260
a(Vnet
p1261
S'NN'
p1262
tp1263
a(Vworth
p1264
g1262
tp1265
aa(lp1266
(Vwhat
p1267
S'WP'
p1268
tp1269
a(Vconferences
p1270
S'VBZ'
p1271
tp1272
a(Vdoes
p1273
S'VBZ'
p1274
tp1275
a(VGoogle
p1276
S'NNP'
p1277
tp1278
a(Vsponsor
p1279
S'NN'
p1280
tp1281
aa(lp1282
(Vwhat
p1283
S'WP'
p1284
tp1285
a(Vis
p1286
S'VBZ'
p1287
tp1288
a(Vthe
p1289
S'DT'
p1290
tp1291
a(Vorbital
p1292
S'JJ'
p1293
tp1294
a(Vperiod
p1295
S'NN'
p1296
tp1297
a(Vof
p1298
S'IN'
p1299
tp1300
a(Vthe
p1301
g1290
tp1302
a(Vmoon
p1303
S'NN'
p1304
tp1305
aa(lp1306
(Vwhere
p1307
S'WRB'
p1308
tp1309
a(Vdid
p1310
S'VBD'
p1311
tp1312
a(Vbarosaurus
p1313
S'VB'
p1314
tp1315
a(Vlive
p1316
S'NN'
p1317
tp1318
aa(lp1319
(Vwho
p1320
S'WP'
p1321
tp1322
a(Vwrote
p1323
S'VBD'
p1324
tp1325
a(g19
S'DT'
p1326
tp1327
a(Vseries
p1328
S'NN'
p1329
tp1330
a(Vof
p1331
S'IN'
p1332
tp1333
a(Vunfortunate
p1334
S'JJ'
p1335
tp1336
a(Vevents
p1337
S'NNS'
p1338
tp1339
aa(lp1340
(Vwhat
p1341
S'WP'
p1342
tp1343
a(Vgenre
p1344
S'NN'
p1345
tp1346
a(Vis
p1347
S'VBZ'
p1348
tp1349
a(Vdoonesbury
p1350
g1345
tp1351
aa(lp1352
(Vwhat
p1353
S'WP'
p1354
tp1355
a(Vreligious
p1356
S'JJ'
p1357
tp1358
a(Vorder
p1359
S'NN'
p1360
tp1361
a(Vbelongs
p1362
S'NNS'
p1363
tp1364
a(Vto
p1365
S'TO'
p1366
tp1367
a(Vkirkstall
p1368
S'VB'
p1369
tp1370
a(Vabbey
p1371
S'NN'
p1372
tp1373
aa(lp1374
(Vduring
p1375
S'IN'
p1376
tp1377
a(Vwhat
p1378
S'WP'
p1379
tp1380
a(Vtime
p1381
S'NN'
p1382
tp1383
a(Vperiod
p1384
S'NN'
p1385
tp1386
a(Vdid
p1387
S'VBD'
p1388
tp1389
a(VUluru
p1390
S'NNP'
p1391
tp1392
a(Vform
p1393
S'NN'
p1394
tp1395
aa(lp1396
(Vwhat
p1397
S'WP'
p1398
tp1399
a(Vblogs
p1400
S'NNS'
p1401
tp1402
a(Vare
p1403
S'VBP'
p1404
tp1405
a(Vin
p1406
S'IN'
p1407
tp1408
a(Vgerman
p1409
S'JJ'
p1410
tp1411
aa(lp1412
(Vwhat
p1413
S'WP'
p1414
tp1415
a(Vtype
p1416
S'NN'
p1417
tp1418
a(Vof
p1419
S'IN'
p1420
tp1421
a(Vclothing
p1422
g1417
tp1423
a(Vare
p1424
S'VBP'
p1425
tp1426
a(Vknickerbockers
p1427
S'NNS'
p1428
tp1429
aa(lp1430
(Vwhat
p1431
S'WP'
p1432
tp1433
a(Vis
p1434
S'VBZ'
p1435
tp1436
a(Vthe
p1437
S'DT'
p1438
tp1439
a(Vaddress
p1440
S'NN'
p1441
tp1442
a(Vof
p1443
S'IN'
p1444
tp1445
a(Vthe
p1446
g1438
tp1447
a(VMitchell
p1448
S'NNP'
p1449
tp1450
a(Vpublic
p1451
S'JJ'
p1452
tp1453
a(Vlibrary
p1454
g1441
tp1455
aa(lp1456
(Vwhat
p1457
S'WP'
p1458
tp1459
a(Vgenres
p1460
S'VBZ'
p1461
tp1462
a(Vdid
p1463
S'VBD'
p1464
tp1465
a(V8
p1466
S'CD'
p1467
tp1468
a(VMile
p1469
S'NNP'
p1470
tp1471
a(Vconsist
p1472
S'NN'
p1473
tp1474
a(Vof
p1475
S'IN'
p1476
tp1477
aa(lp1478
(Vhow
p1479
S'WRB'
p1480
tp1481
a(Vmany
p1482
S'JJ'
p1483
tp1484
a(Vtypes
p1485
S'NNS'
p1486
tp1487
a(Vof
p1488
S'IN'
p1489
tp1490
a(Vdinosaurs
p1491
g1486
tp1492
a(Vwere
p1493
S'VBD'
p1494
tp1495
a(Vthere
p1496
S'RB'
p1497
tp1498
a(Vin
p1499
S'IN'
p1500
tp1501
a(VAfrica
p1502
S'NNP'
p1503
tp1504
aa(lp1505
(Vwho
p1506
S'WP'
p1507
tp1508
a(Vis
p1509
S'VBZ'
p1510
tp1511
a(Vthe
p1512
S'DT'
p1513
tp1514
a(Vhead
p1515
S'JJ'
p1516
tp1517
a(Vcoach
p1518
S'NN'
p1519
tp1520
a(Vof
p1521
S'IN'
p1522
tp1523
a(Vthe
p1524
g1513
tp1525
a(VChicago
p1526
S'NNP'
p1527
tp1528
a(VBulls
p1529
S'NNP'
p1530
tp1531
aa(lp1532
(Vwho
p1533
S'WP'
p1534
tp1535
a(Vdid
p1536
S'VBD'
p1537
tp1538
a(VNathan
p1539
S'NNP'
p1540
tp1541
a(VFillion
p1542
g1540
tp1543
a(Vvoice
p1544
S'NN'
p1545
tp1546
a(Vin
p1547
S'IN'
p1548
tp1549
a(VHalo
p1550
g1540
tp1551
a(V:
p1552
S':'
p1553
tp1554
a(VReach
p1555
g1545
tp1556
aa(lp1557
(Vwhat
p1558
S'WP'
p1559
tp1560
a(Vis
p1561
S'VBZ'
p1562
tp1563
a(Vthe
p1564
S'DT'
p1565
tp1566
a(Vmotto
p1567
S'NN'
p1568
tp1569
a(Vof
p1570
S'IN'
p1571
tp1572
a(Vthe
p1573
g1565
tp1574
a(Vorder
p1575
S'NN'
p1576
tp1577
a(Vof
p1578
g1571
tp1579
a(Vthe
p1580
g1565
tp1581
a(Vgolden
p1582
S'JJ'
p1583
tp1584
a(Vfleece
p1585
g1568
tp1586
aa(lp1587
(Vwhat
p1588
S'WP'
p1589
tp1590
a(Vis
p1591
S'VBZ'
p1592
tp1593
a(Vthe
p1594
S'DT'
p1595
tp1596
a(Vretail
p1597
S'JJ'
p1598
tp1599
a(Vfloor
p1600
S'NN'
p1601
tp1602
a(Vspace
p1603
S'NN'
p1604
tp1605
a(Vof
p1606
S'IN'
p1607
tp1608
a(Vthe
p1609
g1595
tp1610
a(VDubai
p1611
S'NNP'
p1612
tp1613
a(Vmarina
p1614
g1612
tp1615
a(Vmall
p1616
S'NN'
p1617
tp1618
aa(lp1619
(Vwho
p1620
S'WP'
p1621
tp1622
a(Vbuilt
p1623
S'VBD'
p1624
tp1625
a(Vthe
p1626
S'DT'
p1627
tp1628
a(VUSS
p1629
S'NNP'
p1630
tp1631
a(VNautilus
p1632
g1630
tp1633
aa(lp1634
(Vwhere
p1635
S'WRB'
p1636
tp1637
a(Vdid
p1638
S'VBD'
p1639
tp1640
a(VNathan
p1641
S'NNP'
p1642
tp1643
a(VSmith
p1644
S'NNP'
p1645
tp1646
a(Vdie
p1647
S'NN'
p1648
tp1649
aa(lp1650
(Vwho
p1651
S'WP'
p1652
tp1653
a(Vowns
p1654
S'VBZ'
p1655
tp1656
a(VFlickr
p1657
S'NNP'
p1658
tp1659
aa(lp1660
(Vwho
p1661
S'WP'
p1662
tp1663
a(Vdesigned
p1664
S'VBD'
p1665
tp1666
a(Vthe
p1667
S'DT'
p1668
tp1669
a(Vgame
p1670
S'NN'
p1671
tp1672
a(Vof
p1673
S'IN'
p1674
tp1675
a(Vlife
p1676
S'NN'
p1677
tp1678
aa(lp1679
(Vwhat
p1680
S'WP'
p1681
tp1682
a(Vmedal
p1683
S'NN'
p1684
tp1685
a(Vdid
p1686
S'VBD'
p1687
tp1688
a(VGraeme
p1689
S'NNP'
p1690
tp1691
a(VBrown
p1692
S'NNP'
p1693
tp1694
a(Vreceive
p1695
g1684
tp1696
a(Vat
p1697
S'IN'
p1698
tp1699
a(Vthe
p1700
S'DT'
p1701
tp1702
a(V2004
p1703
S'CD'
p1704
tp1705
a(Vsummer
p1706
S'NN'
p1707
tp1708
a(Volympics
p1709
S'NNS'
p1710
tp1711
aa(lp1712
(Vwhat
p1713
S'WP'
p1714
tp1715
a(Vis
p1716
S'VBZ'
p1717
tp1718
a(Vthe
p1719
S'DT'
p1720
tp1721
a(Vsymbol
p1722
S'NN'
p1723
tp1724
a(Vfor
p1725
S'IN'
p1726
tp1727
a(Vyen
p1728
g1723
tp1729
aa(lp1730
(Vwhat
p1731
S'WP'
p1732
tp1733
a(Vtopics
p1734
S'NNS'
p1735
tp1736
a(Vare
p1737
S'VBP'
p1738
tp1739
a(Vequivalent
p1740
S'JJ'
p1741
tp1742
a(Vto
p1743
S'TO'
p1744
tp1745
a(Vus
p1746
S'PRP'
p1747
tp1748
a(Vcounty
p1749
S'VB'
p1750
tp1751
aa(lp1752
(Vwhat
p1753
S'WP'
p1754
tp1755
a(Vis
p1756
S'VBZ'
p1757
tp1758
a(Vthe
p1759
S'DT'
p1760
tp1761
a(Vorigin
p1762
S'NN'
p1763
tp1764
a(Vof
p1765
S'IN'
p1766
tp1767
a(Vthe
p1768
g1760
tp1769
a(VMississippi
p1770
S'NNP'
p1771
tp1772
a(Vriver
p1773
g1763
tp1774
aa(lp1775
(Vhow
p1776
S'WRB'
p1777
tp1778
a(Vmany
p1779
S'JJ'
p1780
tp1781
a(Vcelebrities
p1782
S'NNS'
p1783
tp1784
a(Vhave
p1785
S'VBP'
p1786
tp1787
a(Vbeen
p1788
S'VBN'
p1789
tp1790
a(Vcharged
p1791
S'VBN'
p1792
tp1793
a(Vwith
p1794
S'IN'
p1795
tp1796
a(Vdriving
p1797
S'VBG'
p1798
tp1799
a(Vunder
p1800
S'IN'
p1801
tp1802
a(Vthe
p1803
S'DT'
p1804
tp1805
a(Vinfluence
p1806
S'NN'
p1807
tp1808
aa(lp1809
(Vhow
p1810
S'WRB'
p1811
tp1812
a(Vmany
p1813
S'JJ'
p1814
tp1815
a(Vexpansion
p1816
S'NN'
p1817
tp1818
a(Vpacks
p1819
S'NNS'
p1820
tp1821
a(Vdoes
p1822
S'VBZ'
p1823
tp1824
a(VThe
p1825
S'DT'
p1826
tp1827
a(VSims
p1828
g1820
tp1829
a(Vhave
p1830
S'VBP'
p1831
tp1832
aa(lp1833
(Vwhat
p1834
S'WP'
p1835
tp1836
a(Vis
p1837
S'VBZ'
p1838
tp1839
a(VRon
p1840
S'NNP'
p1841
tp1842
a(VGlass
p1843
g1841
tp1844
a(V's
p1845
S'POS'
p1846
tp1847
a(Vreligion
p1848
S'NN'
p1849
tp1850
aa(lp1851
(Vwhat
p1852
S'WP'
p1853
tp1854
a(Vis
p1855
S'VBZ'
p1856
tp1857
a(Vthe
p1858
S'DT'
p1859
tp1860
a(Vcape
p1861
S'NN'
p1862
tp1863
a(Vmay
p1864
S'MD'
p1865
tp1866
a(Vlighthouse
p1867
S'VB'
p1868
tp1869
a(Vmade
p1870
S'CD'
p1871
tp1872
a(Vof
p1873
S'IN'
p1874
tp1875
aa(lp1876
(Vwhat
p1877
S'WP'
p1878
tp1879
a(Vis
p1880
S'VBZ'
p1881
tp1882
a(Vthe
p1883
S'DT'
p1884
tp1885
a(Vsubject
p1886
S'NN'
p1887
tp1888
a(Vof
p1889
S'IN'
p1890
tp1891
a(Vthe
p1892
g1884
tp1893
a(Vsource
p1894
S'NN'
p1895
tp1896
a(Vreport
p1897
g1887
tp1898
aa(lp1899
(Vwhere
p1900
S'WRB'
p1901
tp1902
a(Vwas
p1903
S'VBD'
p1904
tp1905
a(VJerry
p1906
S'NNP'
p1907
tp1908
a(VSeinfeld
p1909
g1907
tp1910
a(Vborn
p1911
g1904
tp1912
aa(lp1913
(Vwhat
p1914
S'WP'
p1915
tp1916
a(Vwas
p1917
S'VBD'
p1918
tp1919
a(VRoe
p1920
S'NNP'
p1921
tp1922
a(VV.
p1923
g1921
tp1924
a(VWade
p1925
g1918
tp1926
a(Vabout
p1927
S'IN'
p1928
tp1929
aa(lp1930
(Vwhat
p1931
S'WP'
p1932
tp1933
a(Vposition
p1934
S'NN'
p1935
tp1936
a(Vdoes
p1937
S'VBZ'
p1938
tp1939
a(VCraig
p1940
S'NNP'
p1941
tp1942
a(VAdams
p1943
g1941
tp1944
a(Vplay
p1945
S'NN'
p1946
tp1947
aa(lp1948
(Vhow
p1949
S'WRB'
p1950
tp1951
a(Vmany
p1952
S'JJ'
p1953
tp1954
a(Vrecord
p1955
S'NN'
p1956
tp1957
a(Vlabels
p1958
S'NNS'
p1959
tp1960
a(Vwas
p1961
S'VBD'
p1962
tp1963
a(Vomarion
p1964
g1956
tp1965
a(Vunder
p1966
S'IN'
p1967
tp1968
aa(lp1969
(Vin
p1970
S'IN'
p1971
tp1972
a(V1981
p1973
S'CD'
p1974
tp1975
a(Vwhat
p1976
S'WP'
p1977
tp1978
a(Vaward
p1979
S'NN'
p1980
tp1981
a(Vdid
p1982
S'VBD'
p1983
tp1984
a(VDanny
p1985
S'NNP'
p1986
tp1987
a(VdeVito
p1988
g1980
tp1989
a(Vwin
p1990
g1980
tp1991
aa(lp1992
(Vwhat
p1993
S'WP'
p1994
tp1995
a(Vsizes
p1996
S'VBZ'
p1997
tp1998
a(Vdoes
p1999
S'VBZ'
p2000
tp2001
a(VPilsner
p2002
S'NNP'
p2003
tp2004
a(VUrquell
p2005
g2003
tp2006
a(Vcome
p2007
S'VBP'
p2008
tp2009
a(Vin
p2010
S'IN'
p2011
tp2012
aa(lp2013
(Vhow
p2014
S'WRB'
p2015
tp2016
a(Vmany
p2017
S'JJ'
p2018
tp2019
a(Vstarring
p2020
S'VBG'
p2021
tp2022
a(Vtv
p2023
S'NN'
p2024
tp2025
a(Vroles
p2026
S'NNS'
p2027
tp2028
a(Vdid
p2029
S'VBD'
p2030
tp2031
a(VJack
p2032
S'NNP'
p2033
tp2034
a(VAlbertson
p2035
S'NNP'
p2036
tp2037
a(Vhave
p2038
S'VBP'
p2039
tp2040
aa(lp2041
(Vwhen
p2042
S'WRB'
p2043
tp2044
a(Vwas
p2045
S'VBD'
p2046
tp2047
a(Vthe
p2048
S'DT'
p2049
tp2050
a(Vairspeed
p2051
S'NN'
p2052
tp2053
a(Voxford
p2054
g2052
tp2055
a(Vfirst
p2056
S'RB'
p2057
tp2058
a(Vflown
p2059
S'VBN'
p2060
tp2061
aa(lp2062
(Vwhat
p2063
S'WP'
p2064
tp2065
a(Vis
p2066
S'VBZ'
p2067
tp2068
a(Vthe
p2069
S'DT'
p2070
tp2071
a(Vrelease
p2072
S'NN'
p2073
tp2074
a(Vdate
p2075
S'NN'
p2076
tp2077
a(Vfor
p2078
S'IN'
p2079
tp2080
a(V2
p2081
S'CD'
p2082
tp2083
a(Vfast
p2084
S'RB'
p2085
tp2086
a(g2081
g2082
tp2087
a(Vfurious
p2088
S'JJ'
p2089
tp2090
aa(lp2091
(Vwho
p2092
S'WP'
p2093
tp2094
a(Vfounded
p2095
S'VBD'
p2096
tp2097
a(VNivea
p2098
S'NNP'
p2099
tp2100
aa(lp2101
(Vwhat
p2102
S'WDT'
p2103
tp2104
a(Vare
p2105
S'VBP'
p2106
tp2107
a(Vthe
p2108
S'DT'
p2109
tp2110
a(Vfile
p2111
S'NN'
p2112
tp2113
a(Vformats
p2114
S'NNS'
p2115
tp2116
a(Vsupported
p2117
S'VBN'
p2118
tp2119
a(Vby
p2120
S'IN'
p2121
tp2122
a(Vthe
p2123
g2109
tp2124
a(Viphone
p2125
g2112
tp2126
aa(lp2127
(Vwhere
p2128
S'WRB'
p2129
tp2130
a(Vis
p2131
S'VBZ'
p2132
tp2133
a(Vthe
p2134
S'DT'
p2135
tp2136
a(VTempelhof
p2137
S'NNP'
p2138
tp2139
a(Vinternational
p2140
S'JJ'
p2141
tp2142
a(Vairport
p2143
S'NN'
p2144
tp2145
a(Vlocated
p2146
S'VBN'
p2147
tp2148
aa(lp2149
(Vwhat
p2150
S'WP'
p2151
tp2152
a(Vlanguages
p2153
S'VBZ'
p2154
tp2155
a(Vhas
p2156
S'VBZ'
p2157
tp2158
a(VMicrosoft
p2159
S'NNP'
p2160
tp2161
a(Vdesigned
p2162
S'VBN'
p2163
tp2164
aa(lp2165
(Vwhat
p2166
S'WP'
p2167
tp2168
a(Vworks
p2169
S'VBZ'
p2170
tp2171
a(Vdid
p2172
S'VBD'
p2173
tp2174
a(VAnthony
p2175
S'NNP'
p2176
tp2177
a(VPayne
p2178
g2176
tp2179
a(Vfinish
p2180
S'NN'
p2181
tp2182
aa(lp2183
(Vhow
p2184
S'WRB'
p2185
tp2186
a(Vmany
p2187
S'JJ'
p2188
tp2189
a(Vawards
p2190
S'NNS'
p2191
tp2192
a(Vdid
p2193
S'VBD'
p2194
tp2195
a(VTitanic
p2196
S'NNP'
p2197
tp2198
a(Vwin
p2199
S'NN'
p2200
tp2201
aa(lp2202
(Vhow
p2203
S'WRB'
p2204
tp2205
a(Vis
p2206
S'VBZ'
p2207
tp2208
a(Vthe
p2209
S'DT'
p2210
tp2211
a(Vplastiki
p2212
S'NN'
p2213
tp2214
a(Vpropelled
p2215
S'VBD'
p2216
tp2217
aa(lp2218
(Vwhere
p2219
S'WRB'
p2220
tp2221
a(Vwas
p2222
S'VBD'
p2223
tp2224
a(Vthe
p2225
S'DT'
p2226
tp2227
a(V1st
p2228
S'JJ'
p2229
tp2230
a(Vworld
p2231
S'NN'
p2232
tp2233
a(Vscience
p2234
S'NN'
p2235
tp2236
a(Vfiction
p2237
g2235
tp2238
a(Vconvention
p2239
g2235
tp2240
a(Vheld
p2241
g2223
tp2242
aa(lp2243
(Vwhat
p2244
S'WP'
p2245
tp2246
a(Vis
p2247
S'VBZ'
p2248
tp2249
a(Vserge
p2250
S'NN'
p2251
tp2252
a(Vmade
p2253
S'VBD'
p2254
tp2255
a(Vout
p2256
S'IN'
p2257
tp2258
a(Vof
p2259
S'IN'
p2260
tp2261
aa(lp2262
(Vwho
p2263
S'WP'
p2264
tp2265
a(Vhosted
p2266
S'VBD'
p2267
tp2268
a(Vthe
p2269
S'DT'
p2270
tp2271
a(V2003
p2272
S'CD'
p2273
tp2274
a(Vcricket
p2275
S'NN'
p2276
tp2277
a(Vworld
p2278
S'NN'
p2279
tp2280
a(Vcup
p2281
g2276
tp2282
aa(lp2283
(Vwhen
p2284
S'WRB'
p2285
tp2286
a(Vdid
p2287
S'VBD'
p2288
tp2289
a(Vsecretariat
p2290
S'VB'
p2291
tp2292
a(Vdie
p2293
S'NN'
p2294
tp2295
aa(lp2296
(Vwhen
p2297
S'WRB'
p2298
tp2299
a(Vwas
p2300
S'VBD'
p2301
tp2302
a(Vthe
p2303
S'DT'
p2304
tp2305
a(VGalileo
p2306
S'NNP'
p2307
tp2308
a(Vspacecraft
p2309
S'NN'
p2310
tp2311
a(Vlaunched
p2312
g2301
tp2313
aa(lp2314
(Vwhen
p2315
S'WRB'
p2316
tp2317
a(Vwas
p2318
S'VBD'
p2319
tp2320
a(Vsavealot
p2321
S'NN'
p2322
tp2323
a(Vfounded
p2324
g2319
tp2325
aa(lp2326
(Vhow
p2327
S'WRB'
p2328
tp2329
a(Vmany
p2330
S'JJ'
p2331
tp2332
a(Vpeople
p2333
S'NNS'
p2334
tp2335
a(Vcan
p2336
S'MD'
p2337
tp2338
a(Vplay
p2339
S'VB'
p2340
tp2341
a(Vsettlers
p2342
S'NNS'
p2343
tp2344
a(Vof
p2345
S'IN'
p2346
tp2347
a(Vcatan
p2348
S'NN'
p2349
tp2350
aa(lp2351
(Vhow
p2352
S'WRB'
p2353
tp2354
a(Vmany
p2355
S'JJ'
p2356
tp2357
a(Vexhibitions
p2358
S'NNS'
p2359
tp2360
a(Vhave
p2361
S'VBP'
p2362
tp2363
a(Vthere
p2364
S'RB'
p2365
tp2366
a(Vbeen
p2367
S'VBN'
p2368
tp2369
a(Vabout
p2370
S'IN'
p2371
tp2372
a(VLeonardo
p2373
S'NNP'
p2374
tp2375
a(Vda
p2376
S'NN'
p2377
tp2378
a(VVinci
p2379
g2377
tp2380
aa(lp2381
(Vwhat
p2382
S'WP'
p2383
tp2384
a(Vbuildings
p2385
S'NNS'
p2386
tp2387
a(Vwere
p2388
S'VBD'
p2389
tp2390
a(Vdestroyed
p2391
S'VBN'
p2392
tp2393
a(Vin
p2394
S'IN'
p2395
tp2396
a(Vseptember
p2397
S'NN'
p2398
tp2399
a(V11th
p2400
S'CD'
p2401
tp2402
aa(lp2403
(Vhow
p2404
S'WRB'
p2405
tp2406
a(Vmany
p2407
S'JJ'
p2408
tp2409
a(Vdinosaur
p2410
S'NN'
p2411
tp2412
a(Vspecies
p2413
S'NNS'
p2414
tp2415
a(Vare
p2416
S'VBP'
p2417
tp2418
a(Vfrom
p2419
S'IN'
p2420
tp2421
a(VAfrica
p2422
S'NNP'
p2423
tp2424
aa(lp2425
(Vwhen
p2426
S'WRB'
p2427
tp2428
a(Vwas
p2429
S'VBD'
p2430
tp2431
a(Vthe
p2432
S'DT'
p2433
tp2434
a(Vabbey
p2435
S'NN'
p2436
tp2437
a(Vof
p2438
S'IN'
p2439
tp2440
a(Vst.
p2441
g2436
tp2442
a(Vgall
p2443
g2436
tp2444
a(Vlisted
p2445
g2430
tp2446
a(Vas
p2447
S'IN'
p2448
tp2449
a(Van
p2450
S'DT'
p2451
tp2452
a(VUNESCO
p2453
S'NNP'
p2454
tp2455
a(Vworld
p2456
S'NN'
p2457
tp2458
a(Vheritage
p2459
g2436
tp2460
a(Vsite
p2461
S'NN'
p2462
tp2463
aa(lp2464
(Vwhat
p2465
S'WP'
p2466
tp2467
a(Vis
p2468
S'VBZ'
p2469
tp2470
a(Vthe
p2471
S'DT'
p2472
tp2473
a(Vcapacity
p2474
S'NN'
p2475
tp2476
a(Vof
p2477
S'IN'
p2478
tp2479
a(g19
S'DT'
p2480
tp2481
a(VRolls
p2482
S'NNP'
p2483
tp2484
a(VRoyce
p2485
g2483
tp2486
a(Vmerlin
p2487
S'NN'
p2488
tp2489
aa(lp2490
(Vwhat
p2491
S'WDT'
p2492
tp2493
a(Vare
p2494
S'VBP'
p2495
tp2496
a(Vthe
p2497
S'DT'
p2498
tp2499
a(Vside
p2500
S'JJ'
p2501
tp2502
a(Veffects
p2503
S'NNS'
p2504
tp2505
a(Vof
p2506
S'IN'
p2507
tp2508
a(Vmorphine
p2509
S'NN'
p2510
tp2511
aa(lp2512
(Vwhat
p2513
S'WP'
p2514
tp2515
a(Vis
p2516
S'VBZ'
p2517
tp2518
a(Vthe
p2519
S'DT'
p2520
tp2521
a(Vboiling
p2522
S'VBG'
p2523
tp2524
a(Vpoint
p2525
S'NN'
p2526
tp2527
a(Vof
p2528
S'IN'
p2529
tp2530
a(Vwater
p2531
S'NN'
p2532
tp2533
aa(lp2534
(Vwho
p2535
S'WP'
p2536
tp2537
a(Vis
p2538
S'VBZ'
p2539
tp2540
a(Vthe
p2541
S'DT'
p2542
tp2543
a(Vscreenplay
p2544
S'NN'
p2545
tp2546
a(Vfor
p2547
S'IN'
p2548
tp2549
a(Vthe
p2550
g2542
tp2551
a(Vnutty
p2552
g2545
tp2553
a(Vprofessor
p2554
g2545
tp2555
a(Vby
p2556
S'IN'
p2557
tp2558
aa(lp2559
(Vwhat
p2560
S'WP'
p2561
tp2562
a(Vis
p2563
S'VBZ'
p2564
tp2565
a(Vbig
p2566
S'JJ'
p2567
tp2568
a(Vdaddy
p2569
S'NN'
p2570
tp2571
a(Vrated
p2572
S'VBD'
p2573
tp2574
aa(lp2575
(Vwhen
p2576
S'WRB'
p2577
tp2578
a(Vdid
p2579
S'VBD'
p2580
tp2581
a(VMichael
p2582
S'NNP'
p2583
tp2584
a(VJackson
p2585
S'NNP'
p2586
tp2587
a(Vgo
p2588
S'VBP'
p2589
tp2590
a(Vsolo
p2591
S'NN'
p2592
tp2593
aa(lp2594
(Vwhen
p2595
S'WRB'
p2596
tp2597
a(Vdid
p2598
S'VBD'
p2599
tp2600
a(VTutankhamun
p2601
S'NNP'
p2602
tp2603
a(Vdie
p2604
S'NN'
p2605
tp2606
aa(lp2607
(Vwhen
p2608
S'WRB'
p2609
tp2610
a(Vwas
p2611
S'VBD'
p2612
tp2613
a(Vthe
p2614
S'DT'
p2615
tp2616
a(VUnited
p2617
S'NNP'
p2618
tp2619
a(VNations
p2620
S'NNP'
p2621
tp2622
a(Vfounded
p2623
g2612
tp2624
aa(lp2625
(Vwho
p2626
S'WP'
p2627
tp2628
a(Vare
p2629
S'VBP'
p2630
tp2631
a(Vthe
p2632
S'DT'
p2633
tp2634
a(Vdistributors
p2635
S'NNS'
p2636
tp2637
a(Vfor
p2638
S'IN'
p2639
tp2640
a(Vbruce
p2641
S'NN'
p2642
tp2643
a(Valmighty
p2644
g2642
tp2645
aa(lp2646
(Vwhen
p2647
S'WRB'
p2648
tp2649
a(Vwas
p2650
S'VBD'
p2651
tp2652
a(Vbruce
p2653
S'VBN'
p2654
tp2655
a(Valmighty
p2656
S'NNS'
p2657
tp2658
a(Vreleased
p2659
g2654
tp2660
aa(lp2661
(Vwhat
p2662
S'WDT'
p2663
tp2664
a(Vwas
p2665
S'VBD'
p2666
tp2667
a(Vthe
p2668
S'DT'
p2669
tp2670
a(Vbudget
p2671
S'NN'
p2672
tp2673
a(Vfor
p2674
S'IN'
p2675
tp2676
a(Vedward
p2677
S'NN'
p2678
tp2679
a(Vscissorhands
p2680
S'NNS'
p2681
tp2682
aa(lp2683
(Vwho
p2684
S'WP'
p2685
tp2686
a(Vowns
p2687
S'VBZ'
p2688
tp2689
a(VWXPN
p2690
S'NNP'
p2691
tp2692
aa(lp2693
(Vwhat
p2694
S'WP'
p2695
tp2696
a(Vwas
p2697
S'VBD'
p2698
tp2699
a(VWalter
p2700
S'NNP'
p2701
tp2702
a(VGropius
p2703
g2701
tp2704
a(V'
p2705
S'POS'
p2706
tp2707
a(Varchitectural
p2708
S'JJ'
p2709
tp2710
a(Vstyle
p2711
S'NN'
p2712
tp2713
aa(lp2714
(Vhow
p2715
S'WRB'
p2716
tp2717
a(Vmany
p2718
S'JJ'
p2719
tp2720
a(Vbeds
p2721
S'NNS'
p2722
tp2723
a(Vdoes
p2724
S'VBZ'
p2725
tp2726
a(VMcLean
p2727
S'NNP'
p2728
tp2729
a(Vhospital
p2730
S'NN'
p2731
tp2732
a(Vhave
p2733
S'VBP'
p2734
tp2735
aa(lp2736
(Vwhat
p2737
S'WDT'
p2738
tp2739
a(Vare
p2740
S'VBP'
p2741
tp2742
a(Vsome
p2743
S'DT'
p2744
tp2745
a(Vgato
p2746
S'JJ'
p2747
tp2748
a(Vclass
p2749
S'NN'
p2750
tp2751
a(Vsubmarines
p2752
S'NNS'
p2753
tp2754
aa(lp2755
(Vwhat
p2756
S'WP'
p2757
tp2758
a(Vis
p2759
S'VBZ'
p2760
tp2761
a(Vthe
p2762
S'DT'
p2763
tp2764
a(Vmaximum
p2765
S'JJ'
p2766
tp2767
a(Valtitude
p2768
S'NN'
p2769
tp2770
a(Vof
p2771
S'IN'
p2772
tp2773
a(Vstratus
p2774
g2769
tp2775
a(Vclouds
p2776
S'NNS'
p2777
tp2778
aa(lp2779
(Vhow
p2780
S'WRB'
p2781
tp2782
a(Vmany
p2783
S'JJ'
p2784
tp2785
a(Vconferences
p2786
S'NNS'
p2787
tp2788
a(Vabout
p2789
S'IN'
p2790
tp2791
a(Vmathematics
p2792
g2787
tp2793
a(Vare
p2794
S'VBP'
p2795
tp2796
a(Vthere
p2797
S'RB'
p2798
tp2799
aa(lp2800
(Vwhat
p2801
S'WP'
p2802
tp2803
a(Vdiet
p2804
S'NN'
p2805
tp2806
a(Vdid
p2807
S'VBD'
p2808
tp2809
a(Vceratopsia
p2810
S'NNS'
p2811
tp2812
a(Vhave
p2813
S'VB'
p2814
tp2815
aa(lp2816
(Vwhat
p2817
S'WP'
p2818
tp2819
a(Vjudge
p2820
S'NN'
p2821
tp2822
a(Vpresided
p2823
S'VBD'
p2824
tp2825
a(Vover
p2826
S'IN'
p2827
tp2828
a(Vstate
p2829
S'NN'
p2830
tp2831
a(Vv.
p2832
S'NNS'
p2833
tp2834
a(Vkelly
p2835
S'RB'
p2836
tp2837
aa(lp2838
(Vwhen
p2839
S'WRB'
p2840
tp2841
a(Vwas
p2842
S'VBD'
p2843
tp2844
a(Vsigmod
p2845
S'RB'
p2846
tp2847
a(Vfounded
p2848
S'VBN'
p2849
tp2850
aa(lp2851
(Vin
p2852
S'IN'
p2853
tp2854
a(Vwhat
p2855
S'WP'
p2856
tp2857
a(Vcity
p2858
S'NN'
p2859
tp2860
a(Vis
p2861
S'VBZ'
p2862
tp2863
a(VH
p2864
S'NNP'
p2865
tp2866
a(V&
p2867
S'CC'
p2868
tp2869
a(VR
p2870
g2865
tp2871
a(Vblock
p2872
S'NN'
p2873
tp2874
a(Vheadquartered
p2875
S'VBD'
p2876
tp2877
aa(lp2878
(Vwhat
p2879
S'WP'
p2880
tp2881
a(Vis
p2882
S'VBZ'
p2883
tp2884
a(Vthe
p2885
S'DT'
p2886
tp2887
a(Vhighest
p2888
S'JJS'
p2889
tp2890
a(Velevation
p2891
S'NN'
p2892
tp2893
a(Vat
p2894
S'IN'
p2895
tp2896
a(Vthe
p2897
g2886
tp2898
a(Velk
p2899
g2892
tp2900
a(Vmountain
p2901
g2892
tp2902
a(Vski
p2903
S'JJ'
p2904
tp2905
a(Varea
p2906
S'NN'
p2907
tp2908
aa(lp2909
(Vwhat
p2910
S'WP'
p2911
tp2912
a(Vis
p2913
S'VBZ'
p2914
tp2915
a(Vthe
p2916
S'DT'
p2917
tp2918
a(Vtexture
p2919
S'NN'
p2920
tp2921
a(Vof
p2922
S'IN'
p2923
tp2924
a(Vbrie
p2925
g2920
tp2926
a(Vcheese
p2927
g2920
tp2928
aa(lp2929
(Vhow
p2930
S'WRB'
p2931
tp2932
a(Vmany
p2933
S'JJ'
p2934
tp2935
a(Vschools
p2936
S'NNS'
p2937
tp2938
a(Vhave
p2939
S'VBP'
p2940
tp2941
a(g19
S'DT'
p2942
tp2943
a(Vbeaver
p2944
S'NN'
p2945
tp2946
a(Vas
p2947
S'IN'
p2948
tp2949
a(Vtheir
p2950
S'PRP$'
p2951
tp2952
a(Vmascot
p2953
g2945
tp2954
aa(lp2955
(Vwho
p2956
S'WP'
p2957
tp2958
a(Vcreated
p2959
S'VBD'
p2960
tp2961
a(Vsesame
p2962
S'JJ'
p2963
tp2964
a(Vstreet
p2965
S'NN'
p2966
tp2967
aa(lp2968
(Vhow
p2969
S'WRB'
p2970
tp2971
a(Vmany
p2972
S'JJ'
p2973
tp2974
a(Vfilm
p2975
S'NN'
p2976
tp2977
a(Vperformances
p2978
S'NNS'
p2979
tp2980
a(Vdoes
p2981
S'VBZ'
p2982
tp2983
a(VJerry
p2984
S'NNP'
p2985
tp2986
a(VSeinfeld
p2987
g2985
tp2988
a(Vhave
p2989
S'VBP'
p2990
tp2991
aa(lp2992
(Vhow
p2993
S'WRB'
p2994
tp2995
a(Vmany
p2996
S'JJ'
p2997
tp2998
a(Vspin
p2999
S'JJ'
p3000
tp3001
a(Voffs
p3002
S'NNS'
p3003
tp3004
a(Vdoes
p3005
S'VBZ'
p3006
tp3007
a(Vsesame
p3008
g3000
tp3009
a(Vstreet
p3010
S'NN'
p3011
tp3012
a(Vhave
p3013
S'VBP'
p3014
tp3015
aa(lp3016
(Vwhat
p3017
S'WP'
p3018
tp3019
a(Vdiseases
p3020
S'VBZ'
p3021
tp3022
a(Vcause
p3023
S'NN'
p3024
tp3025
a(Vleukemia
p3026
g3024
tp3027
aa(lp3028
(Vhow
p3029
S'WRB'
p3030
tp3031
a(Vmany
p3032
S'JJ'
p3033
tp3034
a(Vdifferent
p3035
S'JJ'
p3036
tp3037
a(Vproducts
p3038
S'NNS'
p3039
tp3040
a(Vdoes
p3041
S'VBZ'
p3042
tp3043
a(Vgsusa
p3044
S'NNS'
p3045
tp3046
a(Vproduce
p3047
S'VB'
p3048
tp3049
aa(lp3050
(Vwho
p3051
S'WP'
p3052
tp3053
a(Vdirected
p3054
S'VBD'
p3055
tp3056
a(Vmeet
p3057
S'PDT'
p3058
tp3059
a(Vthe
p3060
S'DT'
p3061
tp3062
a(Vparents
p3063
S'NNS'
p3064
tp3065
aa(lp3066
(Vwhen
p3067
S'WRB'
p3068
tp3069
a(Vwas
p3070
S'VBD'
p3071
tp3072
a(Vomarion
p3073
S'NN'
p3074
tp3075
a(Vborn
p3076
g3074
tp3077
aa(lp3078
(Vwhat
p3079
S'WDT'
p3080
tp3081
a(Vare
p3082
S'VBP'
p3083
tp3084
a(Vsome
p3085
S'DT'
p3086
tp3087
a(Vfrench
p3088
S'JJ'
p3089
tp3090
a(Vrestaurants
p3091
S'NNS'
p3092
tp3093
aa(lp3094
(Vwho
p3095
S'WP'
p3096
tp3097
a(Vpublishes
p3098
S'VBZ'
p3099
tp3100
a(Vthe
p3101
S'DT'
p3102
tp3103
a(Vjournal
p3104
S'NN'
p3105
tp3106
a(Vof
p3107
S'IN'
p3108
tp3109
a(Vabnormal
p3110
S'JJ'
p3111
tp3112
a(Vpsychology
p3113
g3105
tp3114
aa(lp3115
(Vwhat
p3116
S'WP'
p3117
tp3118
a(Vwas
p3119
S'VBD'
p3120
tp3121
a(Vsesame
p3122
S'JJ'
p3123
tp3124
a(Vstreet
p3125
S'NN'
p3126
tp3127
a(V's
p3128
S'POS'
p3129
tp3130
a(Voriginal
p3131
g3123
tp3132
a(Vnetwork
p3133
S'NN'
p3134
tp3135
aa(lp3136
(Vwhat
p3137
S'WDT'
p3138
tp3139
a(Vare
p3140
S'VBP'
p3141
tp3142
a(Vthe
p3143
S'DT'
p3144
tp3145
a(Vmoons
p3146
S'NNS'
p3147
tp3148
a(Vof
p3149
S'IN'
p3150
tp3151
a(Vjupiter
p3152
S'NN'
p3153
tp3154
aa(lp3155
(Vwhat
p3156
S'WP'
p3157
tp3158
a(Vexhibits
p3159
S'VBZ'
p3160
tp3161
a(Vare
p3162
S'VBP'
p3163
tp3164
a(Vthere
p3165
S'RB'
p3166
tp3167
a(Vat
p3168
S'IN'
p3169
tp3170
a(Vthe
p3171
S'DT'
p3172
tp3173
a(Varignar
p3174
S'NN'
p3175
tp3176
a(Vanna
p3177
g3166
tp3178
a(Vzoological
p3179
S'JJ'
p3180
tp3181
a(Vpark
p3182
g3175
tp3183
aa(lp3184
(Vwhere
p3185
S'WRB'
p3186
tp3187
a(Vwas
p3188
S'VBD'
p3189
tp3190
a(Vneanderthal
p3191
S'JJ'
p3192
tp3193
a(g128
S'CD'
p3194
tp3195
a(Vfound
p3196
S'NN'
p3197
tp3198
aa(lp3199
(Vwhat
p3200
S'WP'
p3201
tp3202
a(Vradio
p3203
S'NN'
p3204
tp3205
a(Vprogram
p3206
S'NN'
p3207
tp3208
a(Vis
p3209
S'VBZ'
p3210
tp3211
a(g19
S'DT'
p3212
tp3213
a(Vright
p3214
S'JJ'
p3215
tp3216
a(Vto
p3217
S'TO'
p3218
tp3219
a(Vdeath
p3220
S'NN'
p3221
tp3222
a(Van
p3223
S'DT'
p3224
tp3225
a(Vepisode
p3226
g3204
tp3227
a(Vof
p3228
S'IN'
p3229
tp3230
aa(lp3231
(Vwhat
p3232
S'WP'
p3233
tp3234
a(Vcategory
p3235
S'NN'
p3236
tp3237
a(Vof
p3238
S'IN'
p3239
tp3240
a(Vmartial
p3241
S'JJ'
p3242
tp3243
a(Varts
p3244
S'NNS'
p3245
tp3246
a(Vis
p3247
S'VBZ'
p3248
tp3249
a(Vtai
p3250
g3242
tp3251
a(Vchi
p3252
g3245
tp3253
a(Vchuan
p3254
S'VBP'
p3255
tp3256
aa(lp3257
(Vhow
p3258
S'WRB'
p3259
tp3260
a(Vmany
p3261
S'JJ'
p3262
tp3263
a(Vreligions
p3264
S'NNS'
p3265
tp3266
a(Vworship
p3267
S'VBP'
p3268
tp3269
a(Vgod
p3270
S'NN'
p3271
tp3272
aa(lp3273
(Vwhat
p3274
S'WDT'
p3275
tp3276
a(Vare
p3277
S'VBP'
p3278
tp3279
a(Vthe
p3280
S'DT'
p3281
tp3282
a(Vsubdisciplines
p3283
S'NNS'
p3284
tp3285
a(Vof
p3286
S'IN'
p3287
tp3288
a(Vengineering
p3289
S'NN'
p3290
tp3291
aa(lp3292
(Vwhat
p3293
S'WP'
p3294
tp3295
a(Vis
p3296
S'VBZ'
p3297
tp3298
a(VTarget
p3299
S'NNP'
p3300
tp3301
a(V's
p3302
S'POS'
p3303
tp3304
a(Vindustry
p3305
S'NN'
p3306
tp3307
aa(lp3308
(Vhow
p3309
S'WRB'
p3310
tp3311
a(Vmany
p3312
S'JJ'
p3313
tp3314
a(Vcountries
p3315
S'NNS'
p3316
tp3317
a(Vuse
p3318
S'VBP'
p3319
tp3320
a(Vthe
p3321
S'DT'
p3322
tp3323
a(Vaustralian
p3324
S'JJ'
p3325
tp3326
a(Vdollar
p3327
S'NN'
p3328
tp3329
aa(lp3330
(Vwhat
p3331
S'WP'
p3332
tp3333
a(Vsoftware
p3334
S'NN'
p3335
tp3336
a(Vhas
p3337
S'VBZ'
p3338
tp3339
a(VClaris
p3340
S'NNP'
p3341
tp3342
a(Vdeveloped
p3343
S'VBD'
p3344
tp3345
aa(lp3346
(Vwhat
p3347
S'WP'
p3348
tp3349
a(Vbus
p3350
S'NN'
p3351
tp3352
a(Voperators
p3353
S'NNS'
p3354
tp3355
a(Vrun
p3356
S'VBP'
p3357
tp3358
a(Vbuses
p3359
g3354
tp3360
a(Vto
p3361
S'TO'
p3362
tp3363
a(VParis
p3364
S'NNP'
p3365
tp3366
aa(lp3367
(Vwhen
p3368
S'WRB'
p3369
tp3370
a(Vwas
p3371
S'VBD'
p3372
tp3373
a(Vporgy
p3374
S'NN'
p3375
tp3376
a(Vand
p3377
S'CC'
p3378
tp3379
a(Vbess
p3380
g3375
tp3381
a(Vfirst
p3382
S'RB'
p3383
tp3384
a(Vperformed
p3385
g3372
tp3386
aa(lp3387
(Vhow
p3388
S'WRB'
p3389
tp3390
a(Vmany
p3391
S'JJ'
p3392
tp3393
a(Vpeople
p3394
S'NNS'
p3395
tp3396
a(Vhave
p3397
S'VBP'
p3398
tp3399
a(Vbeen
p3400
S'VBN'
p3401
tp3402
a(Vinfluenced
p3403
S'VBN'
p3404
tp3405
a(Vby
p3406
S'IN'
p3407
tp3408
a(VSocrates
p3409
S'NNS'
p3410
tp3411
aa(lp3412
(Vhow
p3413
S'WRB'
p3414
tp3415
a(Vmany
p3416
S'JJ'
p3417
tp3418
a(Vrunways
p3419
S'NNS'
p3420
tp3421
a(Vdoes
p3422
S'VBZ'
p3423
tp3424
a(Vthe
p3425
S'DT'
p3426
tp3427
a(VSan
p3428
S'NNP'
p3429
tp3430
a(VFrancisco
p3431
S'NNP'
p3432
tp3433
a(Vinternational
p3434
S'JJ'
p3435
tp3436
a(Vairport
p3437
S'NN'
p3438
tp3439
a(Vhave
p3440
S'VBP'
p3441
tp3442
aa(lp3443
(Vwhat
p3444
S'WP'
p3445
tp3446
a(Vcolor
p3447
S'NN'
p3448
tp3449
a(Vdid
p3450
S'VBD'
p3451
tp3452
a(VAdolf
p3453
S'NNP'
p3454
tp3455
a(VAnderssen
p3456
g3454
tp3457
a(Vplay
p3458
g3448
tp3459
a(Vin
p3460
S'IN'
p3461
tp3462
a(Vthe
p3463
S'DT'
p3464
tp3465
a(Vimmortal
p3466
S'JJ'
p3467
tp3468
a(Vgame
p3469
S'NN'
p3470
tp3471
aa(lp3472
(Vwhen
p3473
S'WRB'
p3474
tp3475
a(Vwas
p3476
S'VBD'
p3477
tp3478
a(Vthe
p3479
S'DT'
p3480
tp3481
a(VBoston
p3482
S'NNP'
p3483
tp3484
a(VHerald
p3485
S'NNP'
p3486
tp3487
a(Vfirst
p3488
S'RB'
p3489
tp3490
a(Vpublished
p3491
g3477
tp3492
aa(lp3493
(Vis
p3494
S'VBZ'
p3495
tp3496
a(Vthe
p3497
S'DT'
p3498
tp3499
a(VUniversity
p3500
S'NNP'
p3501
tp3502
a(Vof
p3503
S'IN'
p3504
tp3505
a(VLima
p3506
S'NNP'
p3507
tp3508
a(Vpublic
p3509
S'JJ'
p3510
tp3511
a(Vor
p3512
S'CC'
p3513
tp3514
a(Vprivate
p3515
S'JJ'
p3516
tp3517
aa(lp3518
(Vwhat
p3519
S'WP'
p3520
tp3521
a(Vexhibitions
p3522
S'VBZ'
p3523
tp3524
a(Vhas
p3525
S'VBZ'
p3526
tp3527
a(Vthe
p3528
S'DT'
p3529
tp3530
a(Vgross
p3531
S'JJ'
p3532
tp3533
a(Vclinic
p3534
S'NN'
p3535
tp3536
a(Vbeen
p3537
S'VBN'
p3538
tp3539
a(Vin
p3540
S'IN'
p3541
tp3542
aa(lp3543
(Vwhat
p3544
S'WP'
p3545
tp3546
a(Vdo
p3547
S'VBP'
p3548
tp3549
a(Vcirrus
p3550
S'VB'
p3551
tp3552
a(Vclouds
p3553
g3551
tp3554
a(Vlook
p3555
S'NN'
p3556
tp3557
a(Vlike
p3558
S'IN'
p3559
tp3560
aa(lp3561
(Vwho
p3562
S'WP'
p3563
tp3564
a(Vplayed
p3565
S'VBD'
p3566
tp3567
a(Vin
p3568
S'IN'
p3569
tp3570
a(Vthe
p3571
S'DT'
p3572
tp3573
a(Vgame
p3574
S'NN'
p3575
tp3576
a(Vof
p3577
S'IN'
p3578
tp3579
a(Vthe
p3580
g3572
tp3581
a(Vcentury
p3582
S'NN'
p3583
tp3584
aa(lp3585
(Vhow
p3586
S'WRB'
p3587
tp3588
a(Vmany
p3589
S'JJ'
p3590
tp3591
a(Vcountries
p3592
S'NNS'
p3593
tp3594
a(Vparticipated
p3595
S'VBD'
p3596
tp3597
a(Vin
p3598
S'IN'
p3599
tp3600
a(Vthe
p3601
S'DT'
p3602
tp3603
a(V2006
p3604
S'CD'
p3605
tp3606
a(Vwinter
p3607
S'NN'
p3608
tp3609
a(Volympics
p3610
S'NNS'
p3611
tp3612
aa(lp3613
(Vhow
p3614
S'WRB'
p3615
tp3616
a(Vmany
p3617
S'JJ'
p3618
tp3619
a(Vtv
p3620
S'NN'
p3621
tp3622
a(Vshows
p3623
S'NNS'
p3624
tp3625
a(Vdid
p3626
S'VBD'
p3627
tp3628
a(VDanny
p3629
S'NNP'
p3630
tp3631
a(VdeVito
p3632
g3621
tp3633
a(Vhave
p3634
S'VBP'
p3635
tp3636
a(g19
S'DT'
p3637
tp3638
a(Vleading
p3639
S'JJ'
p3640
tp3641
a(Vrole
p3642
S'NN'
p3643
tp3644
a(Vin
p3645
S'IN'
p3646
tp3647
aa(lp3648
(Vwhat
p3649
S'WP'
p3650
tp3651
a(Vawards
p3652
S'VBZ'
p3653
tp3654
a(Vhas
p3655
S'VBZ'
p3656
tp3657
a(Vthe
p3658
S'DT'
p3659
tp3660
a(Venglish
p3661
S'JJ'
p3662
tp3663
a(Vpatient
p3664
S'NN'
p3665
tp3666
a(Vwon
p3667
S'VBD'
p3668
tp3669
aa(lp3670
(Vwho
p3671
S'WP'
p3672
tp3673
a(Vdesigned
p3674
S'VBD'
p3675
tp3676
a(Vthe
p3677
S'DT'
p3678
tp3679
a(Vfirst
p3680
S'JJ'
p3681
tp3682
a(Vgeneration
p3683
S'NN'
p3684
tp3685
a(VFord
p3686
S'NNP'
p3687
tp3688
a(VMustang
p3689
S'NNP'
p3690
tp3691
aa(lp3692
(Vwhere
p3693
S'WRB'
p3694
tp3695
a(Vis
p3696
S'VBZ'
p3697
tp3698
a(Vthe
p3699
S'DT'
p3700
tp3701
a(Vhobbit
p3702
S'NN'
p3703
tp3704
a(Vset
p3705
g3703
tp3706
aa(lp3707
(Vwho
p3708
S'WP'
p3709
tp3710
a(Vdiscovered
p3711
S'VBD'
p3712
tp3713
a(Vneon
p3714
S'NN'
p3715
tp3716
aa(lp3717
(Vwhat
p3718
S'WDT'
p3719
tp3720
a(Vare
p3721
S'VBP'
p3722
tp3723
a(Vsome
p3724
S'DT'
p3725
tp3726
a(Vbritish
p3727
S'JJ'
p3728
tp3729
a(Vlocomotive
p3730
g3728
tp3731
a(Vclass
p3732
S'NN'
p3733
tp3734
a(V52
p3735
S'CD'
p3736
tp3737
a(Vtrains
p3738
S'NNS'
p3739
tp3740
aa(lp3741
(Vwhat
p3742
S'WP'
p3743
tp3744
a(Vnumber
p3745
S'NN'
p3746
tp3747
a(Vwas
p3748
S'VBD'
p3749
tp3750
a(VDavid
p3751
S'NNP'
p3752
tp3753
a(VAkers
p3754
S'NNP'
p3755
tp3756
a(Von
p3757
S'IN'
p3758
tp3759
a(Vthe
p3760
S'DT'
p3761
tp3762
a(VPhiladelphia
p3763
S'NNP'
p3764
tp3765
a(VEagles
p3766
g3755
tp3767
aa(lp3768
(Vhow
p3769
S'WRB'
p3770
tp3771
a(Vmany
p3772
S'JJ'
p3773
tp3774
a(Vshows
p3775
S'NNS'
p3776
tp3777
a(Vwas
p3778
S'VBD'
p3779
tp3780
a(VHayden
p3781
S'NNP'
p3782
tp3783
a(VPanettiere
p3784
g3782
tp3785
a(Von
p3786
S'IN'
p3787
tp3788
aa(lp3789
(Vhow
p3790
S'WRB'
p3791
tp3792
a(Vmany
p3793
S'JJ'
p3794
tp3795
a(Vfree
p3796
S'JJ'
p3797
tp3798
a(Vexhibits
p3799
S'NNS'
p3800
tp3801
a(Vhave
p3802
S'VBP'
p3803
tp3804
a(Vthere
p3805
S'RB'
p3806
tp3807
a(Vbeen
p3808
S'VBN'
p3809
tp3810
a(Vat
p3811
S'IN'
p3812
tp3813
a(Vthe
p3814
S'DT'
p3815
tp3816
a(Vscience
p3817
S'NN'
p3818
tp3819
a(Vmuseum
p3820
g3818
tp3821
aa(lp3822
(Vhow
p3823
S'WRB'
p3824
tp3825
a(Vdid
p3826
S'VBD'
p3827
tp3828
a(VSamuel
p3829
S'NNP'
p3830
tp3831
a(VBeckett
p3832
g3830
tp3833
a(Vdie
p3834
S'NN'
p3835
tp3836
aa(lp3837
(Vwhat
p3838
S'WP'
p3839
tp3840
a(Vtype
p3841
S'NN'
p3842
tp3843
a(Vof
p3844
S'IN'
p3845
tp3846
a(Vinfection
p3847
g3842
tp3848
a(Vis
p3849
S'VBZ'
p3850
tp3851
a(Vsyphilis
p3852
S'JJ'
p3853
tp3854
aa(lp3855
(Vwhat
p3856
S'WP'
p3857
tp3858
a(Vis
p3859
S'VBZ'
p3860
tp3861
a(VAfrica
p3862
S'NNP'
p3863
tp3864
a(V's
p3865
S'POS'
p3866
tp3867
a(Varea
p3868
S'NN'
p3869
tp3870
aa(lp3871
(Vhow
p3872
S'WRB'
p3873
tp3874
a(Vlong
p3875
S'JJ'
p3876
tp3877
a(Vare
p3878
S'VBP'
p3879
tp3880
a(Vadventure
p3881
g3876
tp3882
a(Vtime
p3883
S'NN'
p3884
tp3885
a(Vepisodes
p3886
S'NNS'
p3887
tp3888
aa(lp3889
(Vwho
p3890
S'WP'
p3891
tp3892
a(Vdesigned
p3893
S'VBD'
p3894
tp3895
a(Vthe
p3896
S'DT'
p3897
tp3898
a(Vhawker
p3899
S'NN'
p3900
tp3901
a(Vsea
p3902
g3900
tp3903
a(Vhawk
p3904
g3900
tp3905
aa(lp3906
(Vwhen
p3907
S'WRB'
p3908
tp3909
a(Vwas
p3910
S'VBD'
p3911
tp3912
a(Vthe
p3913
S'DT'
p3914
tp3915
a(Vhigh
p3916
S'JJ'
p3917
tp3918
a(Vcourt
p3919
S'NN'
p3920
tp3921
a(Vof
p3922
S'IN'
p3923
tp3924
a(VAustralia
p3925
S'NNP'
p3926
tp3927
a(Vfounded
p3928
g3911
tp3929
aa(lp3930
(Vwho
p3931
S'WP'
p3932
tp3933
a(Vbrews
p3934
S'VBZ'
p3935
tp3936
a(Vpauwel
p3937
S'NN'
p3938
tp3939
a(Vkwak
p3940
g3938
tp3941
aa(lp3942
(Vwhen
p3943
S'WRB'
p3944
tp3945
a(Vdid
p3946
S'VBD'
p3947
tp3948
a(Veverything
p3949
S'NN'
p3950
tp3951
a(Vis
p3952
S'VBZ'
p3953
tp3954
a(Villuminated
p3955
S'VBN'
p3956
tp3957
a(Vwin
p3958
S'IN'
p3959
tp3960
a(Vthe
p3961
S'DT'
p3962
tp3963
a(Vguardian
p3964
S'JJ'
p3965
tp3966
a(Vfirst
p3967
g3965
tp3968
a(Vbook
p3969
S'NN'
p3970
tp3971
a(Vaward
p3972
S'NN'
p3973
tp3974
aa(lp3975
(Vwhat
p3976
S'WP'
p3977
tp3978
a(Vairlines
p3979
S'VBZ'
p3980
tp3981
a(Vis
p3982
S'VBZ'
p3983
tp3984
a(Vthe
p3985
S'DT'
p3986
tp3987
a(VLondon
p3988
S'NNP'
p3989
tp3990
a(VHeathrow
p3991
S'NNP'
p3992
tp3993
a(Vairport
p3994
S'VB'
p3995
tp3996
a(g19
S'DT'
p3997
tp3998
a(Vhub
p3999
S'NN'
p4000
tp4001
a(Vfor
p4002
S'IN'
p4003
tp4004
aa(lp4005
(Vwho
p4006
S'WP'
p4007
tp4008
a(Vare
p4009
S'VBP'
p4010
tp4011
a(Vsome
p4012
S'DT'
p4013
tp4014
a(Vnotable
p4015
S'JJ'
p4016
tp4017
a(Vagnostic
p4018
g4016
tp4019
a(Vfigures
p4020
S'NNS'
p4021
tp4022
aa(lp4023
(Vwhat
p4024
S'WP'
p4025
tp4026
a(Vlines
p4027
S'NNS'
p4028
tp4029
a(Vdoes
p4030
S'VBZ'
p4031
tp4032
a(Vthe
p4033
S'DT'
p4034
tp4035
a(VLondon
p4036
S'NNP'
p4037
tp4038
a(Voverground
p4039
S'NN'
p4040
tp4041
a(Voperate
p4042
g4040
tp4043
aa(lp4044
(Vhow
p4045
S'WRB'
p4046
tp4047
a(Vmany
p4048
S'JJ'
p4049
tp4050
a(Vjudges
p4051
S'NNS'
p4052
tp4053
a(Vhas
p4054
S'VBZ'
p4055
tp4056
a(Vthe
p4057
S'DT'
p4058
tp4059
a(Vhigh
p4060
S'JJ'
p4061
tp4062
a(Vcourt
p4063
S'NN'
p4064
tp4065
a(Vof
p4066
S'IN'
p4067
tp4068
a(Vjustice
p4069
S'NN'
p4070
tp4071
a(Vhad
p4072
S'VBD'
p4073
tp4074
aa(lp4075
(Vwhat
p4076
S'WP'
p4077
tp4078
a(Vother
p4079
S'JJ'
p4080
tp4081
a(Vnames
p4082
S'NNS'
p4083
tp4084
a(Vis
p4085
S'VBZ'
p4086
tp4087
a(Vthe
p4088
S'DT'
p4089
tp4090
a(VUnited
p4091
S'NNP'
p4092
tp4093
a(VNations
p4094
S'NNP'
p4095
tp4096
a(Vknown
p4097
S'VBN'
p4098
tp4099
a(Vby
p4100
S'IN'
p4101
tp4102
aa(lp4103
(Vwhere
p4104
S'WRB'
p4105
tp4106
a(Vdid
p4107
S'VBD'
p4108
tp4109
a(Vtaekwondo
p4110
S'VB'
p4111
tp4112
a(Voriginate
p4113
S'NN'
p4114
tp4115
aa(lp4116
(Vwhat
p4117
S'WP'
p4118
tp4119
a(Vis
p4120
S'VBZ'
p4121
tp4122
a(Vthe
p4123
S'DT'
p4124
tp4125
a(Varea
p4126
S'NN'
p4127
tp4128
a(Vof
p4129
S'IN'
p4130
tp4131
a(VNorth
p4132
S'NNP'
p4133
tp4134
a(VAmerica
p4135
S'NNP'
p4136
tp4137
aa(lp4138
(Vsince
p4139
S'IN'
p4140
tp4141
a(Vwhen
p4142
S'WRB'
p4143
tp4144
a(Vhas
p4145
S'VBZ'
p4146
tp4147
a(Vthe
p4148
S'DT'
p4149
tp4150
a(Varabic
p4151
S'JJ'
p4152
tp4153
a(Valphabet
p4154
S'NN'
p4155
tp4156
a(Vbeen
p4157
S'VBN'
p4158
tp4159
a(Vused
p4160
S'VBN'
p4161
tp4162
aa(lp4163
(Vhow
p4164
S'WRB'
p4165
tp4166
a(Vlong
p4167
S'JJ'
p4168
tp4169
a(Vis
p4170
S'VBZ'
p4171
tp4172
a(Vthe
p4173
S'DT'
p4174
tp4175
a(Vmexican
p4176
g4168
tp4177
a(Vfederal
p4178
S'JJ'
p4179
tp4180
a(Vhighway
p4181
S'NN'
p4182
tp4183
a(g128
S'CD'
p4184
tp4185
aa(lp4186
(Vhow
p4187
S'WRB'
p4188
tp4189
a(Vmany
p4190
S'JJ'
p4191
tp4192
a(Vschools
p4193
S'NNS'
p4194
tp4195
a(Vhave
p4196
S'VBP'
p4197
tp4198
a(g19
S'DT'
p4199
tp4200
a(Vchapter
p4201
S'NN'
p4202
tp4203
a(Vof
p4204
S'IN'
p4205
tp4206
a(Vsigma
p4207
g4202
tp4208
a(Vphi
p4209
g4202
tp4210
a(Vepsilon
p4211
g4202
tp4212
aa(lp4213
(Vwho
p4214
S'WP'
p4215
tp4216
a(Vwere
p4217
S'VBD'
p4218
tp4219
a(Vthe
p4220
S'DT'
p4221
tp4222
a(Vastronauts
p4223
S'NNS'
p4224
tp4225
a(Vin
p4226
S'IN'
p4227
tp4228
a(Vthe
p4229
g4221
tp4230
a(Vapollo
p4231
S'JJ'
p4232
tp4233
a(V12
p4234
S'CD'
p4235
tp4236
a(Vmission
p4237
S'NN'
p4238
tp4239
aa(lp4240
(Vhow
p4241
S'WRB'
p4242
tp4243
a(Vmany
p4244
S'JJ'
p4245
tp4246
a(Vpeople
p4247
S'NNS'
p4248
tp4249
a(Vinfluenced
p4250
S'VBD'
p4251
tp4252
a(VKarl
p4253
S'NNP'
p4254
tp4255
a(VMarx
p4256
g4254
tp4257
aa(lp4258
(Vhow
p4259
S'WRB'
p4260
tp4261
a(Vmany
p4262
S'JJ'
p4263
tp4264
a(VCanon
p4265
S'NNP'
p4266
tp4267
a(Vdigital
p4268
S'JJ'
p4269
tp4270
a(Vcameras
p4271
S'NNS'
p4272
tp4273
a(Vare
p4274
S'VBP'
p4275
tp4276
a(Vthere
p4277
S'RB'
p4278
tp4279
aa(lp4280
(Vwhat
p4281
S'WP'
p4282
tp4283
a(Vis
p4284
S'VBZ'
p4285
tp4286
a(Vthe
p4287
S'DT'
p4288
tp4289
a(Voriginal
p4290
S'JJ'
p4291
tp4292
a(Vlanguage
p4293
S'NN'
p4294
tp4295
a(Vof
p4296
S'IN'
p4297
tp4298
a(Vthe
p4299
g4288
tp4300
a(Vwind-up
p4301
g4291
tp4302
a(Vbird
p4303
S'NN'
p4304
tp4305
a(Vchronicle
p4306
g4304
tp4307
aa(lp4308
(Vwhat
p4309
S'WP'
p4310
tp4311
a(Vis
p4312
S'VBZ'
p4313
tp4314
a(Vthe
p4315
S'DT'
p4316
tp4317
a(VUSA
p4318
S'NNP'
p4319
tp4320
a(Vmoney
p4321
S'NN'
p4322
tp4323
a(Vcurrency
p4324
S'NN'
p4325
tp4326
a(Vcode
p4327
S'NN'
p4328
tp4329
aa(lp4330
(Vhow
p4331
S'WRB'
p4332
tp4333
a(Vmany
p4334
S'JJ'
p4335
tp4336
a(Vmilitary
p4337
S'JJ'
p4338
tp4339
a(Vunits
p4340
S'NNS'
p4341
tp4342
a(Voriginated
p4343
S'VBN'
p4344
tp4345
a(Vin
p4346
S'IN'
p4347
tp4348
a(VDelaware
p4349
S'NNP'
p4350
tp4351
aa(lp4352
(Vhow
p4353
S'WRB'
p4354
tp4355
a(Vmany
p4356
S'JJ'
p4357
tp4358
a(Vpeople
p4359
S'NNS'
p4360
tp4361
a(Vhave
p4362
S'VBP'
p4363
tp4364
a(Vheld
p4365
S'VBN'
p4366
tp4367
a(Vthe
p4368
S'DT'
p4369
tp4370
a(Vtitle
p4371
S'NN'
p4372
tp4373
a(Vof
p4374
S'IN'
p4375
tp4376
a(Vgrand
p4377
S'JJ'
p4378
tp4379
a(Vmaster
p4380
g4372
tp4381
a(Vof
p4382
g4375
tp4383
a(Vthe
p4384
g4369
tp4385
a(Vorder
p4386
S'NN'
p4387
tp4388
a(Vof
p4389
g4375
tp4390
a(Vthe
p4391
g4369
tp4392
a(Vmost
p4393
S'RBS'
p4394
tp4395
a(Vholy
p4396
S'JJ'
p4397
tp4398
a(Vannunciation
p4399
g4372
tp4400
aa(lp4401
(Vhow
p4402
S'WRB'
p4403
tp4404
a(Vmany
p4405
S'JJ'
p4406
tp4407
a(Vmalls
p4408
S'NNS'
p4409
tp4410
a(Vdoes
p4411
S'VBZ'
p4412
tp4413
a(VOxford
p4414
S'NNP'
p4415
tp4416
a(Vproperties
p4417
S'NNS'
p4418
tp4419
a(Vown
p4420
S'VBP'
p4421
tp4422
aa(lp4423
(Vwhat
p4424
S'WP'
p4425
tp4426
a(Vqualification
p4427
S'NN'
p4428
tp4429
a(Vdoes
p4430
S'VBZ'
p4431
tp4432
a(VWoody
p4433
S'NNP'
p4434
tp4435
a(VStrode
p4436
g4434
tp4437
a(Vhave
p4438
S'VBP'
p4439
tp4440
a(Vin
p4441
S'IN'
p4442
tp4443
a(Vseishindo
p4444
g4428
tp4445
a(Vkenpo
p4446
g4428
tp4447
aa(lp4448
(Vwhat
p4449
S'WP'
p4450
tp4451
a(Vis
p4452
S'VBZ'
p4453
tp4454
a(Vthe
p4455
S'DT'
p4456
tp4457
a(Vsingle
p4458
S'JJ'
p4459
tp4460
a(Vletter
p4461
S'NN'
p4462
tp4463
a(Vabreviation
p4464
S'NN'
p4465
tp4466
a(Vfor
p4467
S'IN'
p4468
tp4469
a(Vtryptophan
p4470
g4465
tp4471
aa(lp4472
(Vwhere
p4473
S'WRB'
p4474
tp4475
a(Vare
p4476
S'VBP'
p4477
tp4478
a(Vdravidian
p4479
S'JJ'
p4480
tp4481
a(Vlanguages
p4482
S'NNS'
p4483
tp4484
a(Vspoken
p4485
S'VBP'
p4486
tp4487
aa(lp4488
(Vhow
p4489
S'WRB'
p4490
tp4491
a(Vmany
p4492
S'JJ'
p4493
tp4494
a(Vbooks
p4495
S'NNS'
p4496
tp4497
a(Vdoes
p4498
S'VBZ'
p4499
tp4500
a(Vthe
p4501
S'DT'
p4502
tp4503
a(VDetroit
p4504
S'NNP'
p4505
tp4506
a(Vpublic
p4507
S'JJ'
p4508
tp4509
a(Vlibrary
p4510
S'NN'
p4511
tp4512
a(Vhave
p4513
S'VBP'
p4514
tp4515
aa(lp4516
(Vhow
p4517
S'WRB'
p4518
tp4519
a(Vmany
p4520
S'JJ'
p4521
tp4522
a(Vkinds
p4523
S'NNS'
p4524
tp4525
a(Vof
p4526
S'IN'
p4527
tp4528
a(Vfootwear
p4529
S'NN'
p4530
tp4531
a(Vare
p4532
S'VBP'
p4533
tp4534
a(Vthere
p4535
S'RB'
p4536
tp4537
aa(lp4538
(Vin
p4539
S'IN'
p4540
tp4541
a(Vwhat
p4542
S'WP'
p4543
tp4544
a(Vpark
p4545
S'NN'
p4546
tp4547
a(Vis
p4548
S'VBZ'
p4549
tp4550
a(Vsplash
p4551
S'JJ'
p4552
tp4553
a(Vmountain
p4554
g4546
tp4555
aa(lp4556
(Vwhat
p4557
S'WP'
p4558
tp4559
a(Vis
p4560
S'VBZ'
p4561
tp4562
a(VDanny
p4563
S'NNP'
p4564
tp4565
a(VdeVito
p4566
S'NN'
p4567
tp4568
a(V's
p4569
S'POS'
p4570
tp4571
a(Vreligion
p4572
g4567
tp4573
aa(lp4574
(Vwhat
p4575
S'WP'
p4576
tp4577
a(Vpowers
p4578
S'VBZ'
p4579
tp4580
a(Vdoes
p4581
S'VBZ'
p4582
tp4583
a(Vsonic
p4584
S'VB'
p4585
tp4586
a(Vthe
p4587
S'DT'
p4588
tp4589
a(Vhedgehog
p4590
S'NN'
p4591
tp4592
a(Vhave
p4593
S'VBP'
p4594
tp4595
aa(lp4596
(Vhow
p4597
S'WRB'
p4598
tp4599
a(Vmany
p4600
S'JJ'
p4601
tp4602
a(Vwins
p4603
S'NNS'
p4604
tp4605
a(Vhas
p4606
S'VBZ'
p4607
tp4608
a(VLarry
p4609
S'NNP'
p4610
tp4611
a(VBird
p4612
g4610
tp4613
a(Vhad
p4614
S'VBD'
p4615
tp4616
a(Vin
p4617
S'IN'
p4618
tp4619
a(Vhis
p4620
S'PRP$'
p4621
tp4622
a(Vcareer
p4623
S'NN'
p4624
tp4625
aa(lp4626
(Vwhat
p4627
S'WDT'
p4628
tp4629
a(Vare
p4630
S'VBP'
p4631
tp4632
a(Vthe
p4633
S'DT'
p4634
tp4635
a(Vsymptoms
p4636
S'NNS'
p4637
tp4638
a(Vof
p4639
S'IN'
p4640
tp4641
a(Vmotor
p4642
S'NN'
p4643
tp4644
a(Vneuron
p4645
g4643
tp4646
a(Vdisease
p4647
g4643
tp4648
aa(lp4649
(Vwhat
p4650
S'WDT'
p4651
tp4652
a(Vwas
p4653
S'VBD'
p4654
tp4655
a(Vthe
p4656
S'DT'
p4657
tp4658
a(Vfinal
p4659
S'JJ'
p4660
tp4661
a(Vair
p4662
S'NN'
p4663
tp4664
a(Vdate
p4665
S'NN'
p4666
tp4667
a(Vof
p4668
S'IN'
p4669
tp4670
a(Vlux
p4671
g4663
tp4672
a(Vradio
p4673
g4663
tp4674
a(Vtheater
p4675
g4663
tp4676
aa(lp4677
(Vhow
p4678
S'WRB'
p4679
tp4680
a(Vmany
p4681
S'JJ'
p4682
tp4683
a(Vgrammy
p4684
S'JJ'
p4685
tp4686
a(Vawards
p4687
S'NNS'
p4688
tp4689
a(Vdid
p4690
S'VBD'
p4691
tp4692
a(VBeyonce
p4693
S'NNP'
p4694
tp4695
a(Vreceive
p4696
S'NN'
p4697
tp4698
a(Vin
p4699
S'IN'
p4700
tp4701
a(Vher
p4702
S'PRP$'
p4703
tp4704
a(Vsinging
p4705
g4697
tp4706
a(Vcareer
p4707
g4697
tp4708
aa(lp4709
(Vwhat
p4710
S'WP'
p4711
tp4712
a(Vlanguage
p4713
S'NN'
p4714
tp4715
a(Vis
p4716
S'VBZ'
p4717
tp4718
a(Vlohengrin
p4719
S'VBN'
p4720
tp4721
a(Vin
p4722
S'IN'
p4723
tp4724
aa(lp4725
(Vwhich
p4726
S'WDT'
p4727
tp4728
a(Vissues
p4729
S'NNS'
p4730
tp4731
a(Vof
p4732
S'IN'
p4733
tp4734
a(Vx-men
p4735
S'NNS'
p4736
tp4737
a(Vhave
p4738
S'VBP'
p4739
tp4740
a(Viceman
p4741
S'VBN'
p4742
tp4743
a(Von
p4744
S'IN'
p4745
tp4746
a(Vthe
p4747
S'DT'
p4748
tp4749
a(Vcover
p4750
S'NN'
p4751
tp4752
aa(lp4753
(Vwhat
p4754
S'WP'
p4755
tp4756
a(Vnumber
p4757
S'NN'
p4758
tp4759
a(Vis
p4760
S'VBZ'
p4761
tp4762
a(VKevin
p4763
S'NNP'
p4764
tp4765
a(VYoukilis
p4766
g4764
tp4767
a(Von
p4768
S'IN'
p4769
tp4770
a(Vthe
p4771
S'DT'
p4772
tp4773
a(VBoston
p4774
S'NNP'
p4775
tp4776
a(VRed
p4777
g4764
tp4778
a(VSox
p4779
g4764
tp4780
aa(lp4781
(Vwhat
p4782
S'WDT'
p4783
tp4784
a(Vare
p4785
S'VBP'
p4786
tp4787
a(Vthe
p4788
S'DT'
p4789
tp4790
a(Vsymptoms
p4791
S'NNS'
p4792
tp4793
a(Vof
p4794
S'IN'
p4795
tp4796
a(Vprostate
p4797
S'NN'
p4798
tp4799
a(Vcancer
p4800
S'NN'
p4801
tp4802
aa(lp4803
(Vwho
p4804
S'WP'
p4805
tp4806
a(Vcreated
p4807
S'VBD'
p4808
tp4809
a(VCharlie
p4810
S'NNP'
p4811
tp4812
a(VBrown
p4813
S'NNP'
p4814
tp4815
aa(lp4816
(Vwhat
p4817
S'WP'
p4818
tp4819
a(Vclass
p4820
S'NN'
p4821
tp4822
a(Vof
p4823
S'IN'
p4824
tp4825
a(Vtrain
p4826
S'NN'
p4827
tp4828
a(Vwas
p4829
S'VBD'
p4830
tp4831
a(Vheavy
p4832
S'JJ'
p4833
tp4834
a(Vharry
p4835
g4827
tp4836
aa(lp4837
(Vwhat
p4838
S'WP'
p4839
tp4840
a(Vtype
p4841
S'NN'
p4842
tp4843
a(Vof
p4844
S'IN'
p4845
tp4846
a(Vbicycle
p4847
g4842
tp4848
a(Vis
p4849
S'VBZ'
p4850
tp4851
a(g19
S'DT'
p4852
tp4853
a(Vbianchi
p4854
g4842
tp4855
a(Vpista
p4856
g4842
tp4857
aa(lp4858
(Vhow
p4859
S'WRB'
p4860
tp4861
a(Vmany
p4862
S'JJ'
p4863
tp4864
a(Vbroadcasts
p4865
S'NNS'
p4866
tp4867
a(Vdoes
p4868
S'VBZ'
p4869
tp4870
a(Vblogtalkradio
p4871
S'VB'
p4872
tp4873
a(Vdistribute
p4874
g4872
tp4875
aa(lp4876
(Vwhat
p4877
S'WP'
p4878
tp4879
a(Vlabel
p4880
S'NN'
p4881
tp4882
a(Vdoes
p4883
S'VBZ'
p4884
tp4885
a(VJulien
p4886
S'NNP'
p4887
tp4888
a(VFournie
p4889
g4887
tp4890
a(Vdesign
p4891
g4881
tp4892
a(Vfor
p4893
S'IN'
p4894
tp4895
aa(lp4896
(Vhow
p4897
S'WRB'
p4898
tp4899
a(Vhigh
p4900
S'JJ'
p4901
tp4902
a(Vis
p4903
S'VBZ'
p4904
tp4905
a(VNiagara
p4906
S'NNP'
p4907
tp4908
a(Vfalls
p4909
S'NNS'
p4910
tp4911
aa(lp4912
(Vwho
p4913
S'WP'
p4914
tp4915
a(Vcurrently
p4916
S'RB'
p4917
tp4918
a(Vplays
p4919
S'VBZ'
p4920
tp4921
a(Vfor
p4922
S'IN'
p4923
tp4924
a(Vthe
p4925
S'DT'
p4926
tp4927
a(VSan
p4928
S'NNP'
p4929
tp4930
a(VJose
p4931
S'NNP'
p4932
tp4933
a(VSharks
p4934
g4932
tp4935
aa(lp4936
(Vwhat
p4937
S'WDT'
p4938
tp4939
a(Vare
p4940
S'VBP'
p4941
tp4942
a(Vthe
p4943
S'DT'
p4944
tp4945
a(Vsurvival
p4946
S'JJ'
p4947
tp4948
a(Vrates
p4949
S'NNS'
p4950
tp4951
a(Vfor
p4952
S'IN'
p4953
tp4954
a(Vprostate
p4955
S'NN'
p4956
tp4957
a(Vcancer
p4958
S'NN'
p4959
tp4960
aa(lp4961
(Vhow
p4962
S'WRB'
p4963
tp4964
a(Vmany
p4965
S'JJ'
p4966
tp4967
a(Vaward
p4968
S'JJ'
p4969
tp4970
a(Vnominations
p4971
S'NNS'
p4972
tp4973
a(Vdid
p4974
S'VBD'
p4975
tp4976
a(VDanny
p4977
S'NNP'
p4978
tp4979
a(VdeVito
p4980
g4972
tp4981
a(Vhave
p4982
S'VBP'
p4983
tp4984
aa(lp4985
(Vwhen
p4986
S'WRB'
p4987
tp4988
a(Vdid
p4989
S'VBD'
p4990
tp4991
a(Vcharlie
p4992
S'VB'
p4993
tp4994
a(Vsheen
p4995
S'NN'
p4996
tp4997
a(Venter
p4998
S'IN'
p4999
tp5000
a(Vthe
p5001
S'DT'
p5002
tp5003
a(Vthousand
p5004
g4996
tp5005
a(Voaks
p5006
S'VBZ'
p5007
tp5008
a(Vrehab
p5009
S'JJ'
p5010
tp5011
a(Vfacility
p5012
S'NN'
p5013
tp5014
aa(lp5015
(Vwhat
p5016
S'WP'
p5017
tp5018
a(Vbowling
p5019
S'NN'
p5020
tp5021
a(Vtechnique
p5022
g5020
tp5023
a(Vdoes
p5024
S'VBZ'
p5025
tp5026
a(Vmatthew
p5027
S'VB'
p5028
tp5029
a(Vhayden
p5030
g5020
tp5031
a(Vuse
p5032
g5020
tp5033
aa(lp5034
(Vwhat
p5035
S'WP'
p5036
tp5037
a(V's
p5038
S'VBZ'
p5039
tp5040
a(Vthe
p5041
S'DT'
p5042
tp5043
a(Vfocus
p5044
S'NN'
p5045
tp5046
a(Vof
p5047
S'IN'
p5048
tp5049
a(Vthe
p5050
g5042
tp5051
a(Vlast
p5052
S'JJ'
p5053
tp5054
a(Vminute
p5055
g5045
tp5056
a(Vblog
p5057
g5045
tp5058
aa(lp5059
(Vhow
p5060
S'WRB'
p5061
tp5062
a(Vmany
p5063
S'JJ'
p5064
tp5065
a(Vnicknames
p5066
S'RB'
p5067
tp5068
a(Vdoes
p5069
S'VBZ'
p5070
tp5071
a(Vshaquille
p5072
S'VB'
p5073
tp5074
a(Vo'neal
p5075
S'NNS'
p5076
tp5077
a(Vhave
p5078
g5073
tp5079
aa(lp5080
(Vin
p5081
S'IN'
p5082
tp5083
a(Vwhat
p5084
S'WP'
p5085
tp5086
a(Vdivision
p5087
S'NN'
p5088
tp5089
a(Vdo
p5090
S'VBP'
p5091
tp5092
a(Vthe
p5093
S'DT'
p5094
tp5095
a(Vst.
p5096
S'NN'
p5097
tp5098
a(Vlouis
p5099
g5097
tp5100
a(Vblues
p5101
S'NNS'
p5102
tp5103
a(Vplay
p5104
g5091
tp5105
aa(lp5106
(Vwho
p5107
S'WP'
p5108
tp5109
a(Vmanaged
p5110
S'VBD'
p5111
tp5112
a(Vliverpool
p5113
S'NN'
p5114
tp5115
a(Vf.c
p5116
g5114
tp5117
a(g655
S'.'
p5118
tp5119
a(Vfrom
p5120
S'IN'
p5121
tp5122
a(V2004
p5123
S'CD'
p5124
tp5125
a(Vto
p5126
S'TO'
p5127
tp5128
a(Vjune
p5129
S'VB'
p5130
tp5131
a(V2010
p5132
g5124
tp5133
aa(lp5134
(Vwhat
p5135
S'WP'
p5136
tp5137
a(Vis
p5138
S'VBZ'
p5139
tp5140
a(Vthe
p5141
S'DT'
p5142
tp5143
a(Vheight
p5144
S'JJ'
p5145
tp5146
a(Vrestriction
p5147
S'NN'
p5148
tp5149
a(Von
p5150
S'IN'
p5151
tp5152
a(Vthe
p5153
g5142
tp5154
a(Vroller
p5155
g5148
tp5156
a(Vsoaker
p5157
g5148
tp5158
aa(lp5159
(Vwhat
p5160
S'WP'
p5161
tp5162
a(Vis
p5163
S'VBZ'
p5164
tp5165
a(Vcurrency
p5166
S'NN'
p5167
tp5168
a(Vcode
p5169
S'NN'
p5170
tp5171
a(Vfor
p5172
S'IN'
p5173
tp5174
a(Vthe
p5175
S'DT'
p5176
tp5177
a(Vcanadian
p5178
S'JJ'
p5179
tp5180
a(Vdollar
p5181
S'NN'
p5182
tp5183
aa(lp5184
(Vwhat
p5185
S'WP'
p5186
tp5187
a(Vis
p5188
S'VBZ'
p5189
tp5190
a(Vthe
p5191
S'DT'
p5192
tp5193
a(Varea
p5194
S'NN'
p5195
tp5196
a(Vof
p5197
S'IN'
p5198
tp5199
a(Vantarctica
p5200
S'NN'
p5201
tp5202
aa(lp5203
(Vhow
p5204
S'WRB'
p5205
tp5206
a(Vmany
p5207
S'JJ'
p5208
tp5209
a(Vgames
p5210
S'NNS'
p5211
tp5212
a(Vdid
p5213
S'VBD'
p5214
tp5215
a(Vdonovan
p5216
S'VB'
p5217
tp5218
a(Vmcnabb
p5219
S'NN'
p5220
tp5221
a(Vplay
p5222
g5220
tp5223
a(Vin
p5224
S'IN'
p5225
tp5226
a(Vthe
p5227
S'DT'
p5228
tp5229
a(V2008
p5230
S'CD'
p5231
tp5232
a(Vseason
p5233
S'NN'
p5234
tp5235
aa(lp5236
(Vhow
p5237
S'WRB'
p5238
tp5239
a(Vmany
p5240
S'JJ'
p5241
tp5242
a(Vissues
p5243
S'NNS'
p5244
tp5245
a(Vare
p5246
S'VBP'
p5247
tp5248
a(Vthere
p5249
S'RB'
p5250
tp5251
a(Vin
p5252
S'IN'
p5253
tp5254
a(Vthe
p5255
S'DT'
p5256
tp5257
a(Vx-men
p5258
S'NNS'
p5259
tp5260
aa(lp5261
(Vin
p5262
S'IN'
p5263
tp5264
a(Vhow
p5265
S'WRB'
p5266
tp5267
a(Vmany
p5268
S'JJ'
p5269
tp5270
a(Vcountries
p5271
S'NNS'
p5272
tp5273
a(Vis
p5274
S'VBZ'
p5275
tp5276
a(Vthe
p5277
S'DT'
p5278
tp5279
a(Veuro
p5280
S'NN'
p5281
tp5282
a(Vused
p5283
S'VBD'
p5284
tp5285
aa(lp5286
(Vwhat
p5287
S'WP'
p5288
tp5289
a(Vwas
p5290
S'VBD'
p5291
tp5292
a(Vtarget
p5293
S'NN'
p5294
tp5295
a(V's
p5296
S'POS'
p5297
tp5298
a(Vrank
p5299
g5294
tp5300
a(Vin
p5301
S'IN'
p5302
tp5303
a(Vthe
p5304
S'DT'
p5305
tp5306
a(Vfortune
p5307
g5294
tp5308
a(V500
p5309
S'CD'
p5310
tp5311
a(Vin
p5312
g5302
tp5313
a(V2010
p5314
S'CD'
p5315
tp5316
aa(lp5317
(Vhow
p5318
S'WRB'
p5319
tp5320
a(Vmany
p5321
S'JJ'
p5322
tp5323
a(Vpeople
p5324
S'NNS'
p5325
tp5326
a(Vwere
p5327
S'VBD'
p5328
tp5329
a(Vat
p5330
S'IN'
p5331
tp5332
a(Vthe
p5333
S'DT'
p5334
tp5335
a(V2006
p5336
S'CD'
p5337
tp5338
a(Vfifa
p5339
S'NN'
p5340
tp5341
a(Vworld
p5342
S'NN'
p5343
tp5344
a(Vcup
p5345
g5340
tp5346
a(Vfinal
p5347
S'JJ'
p5348
tp5349
aa(lp5350
(Vhow
p5351
S'WRB'
p5352
tp5353
a(Vmany
p5354
S'JJ'
p5355
tp5356
a(Vawards
p5357
S'NNS'
p5358
tp5359
a(Vdid
p5360
S'VBD'
p5361
tp5362
a(Vdanny
p5363
S'JJ'
p5364
tp5365
a(Vdevito
p5366
S'NN'
p5367
tp5368
a(Vwin
p5369
g5367
tp5370
aa(lp5371
(Vhow
p5372
S'WRB'
p5373
tp5374
a(Vmany
p5375
S'JJ'
p5376
tp5377
a(Vislands
p5378
S'NNS'
p5379
tp5380
a(Vare
p5381
S'VBP'
p5382
tp5383
a(Vin
p5384
S'IN'
p5385
tp5386
a(Vthe
p5387
S'DT'
p5388
tp5389
a(Vantilles
p5390
g5379
tp5391
aa(lp5392
(Vwhat
p5393
S'WP'
p5394
tp5395
a(Vis
p5396
S'VBZ'
p5397
tp5398
a(Vthe
p5399
S'DT'
p5400
tp5401
a(Vcloset
p5402
S'NN'
p5403
tp5404
a(Vcity
p5405
S'NN'
p5406
tp5407
a(Vto
p5408
S'TO'
p5409
tp5410
a(Vsnowshoe
p5411
S'VB'
p5412
tp5413
a(Vmountain
p5414
g5403
tp5415
aa(lp5416
(Vhow
p5417
S'WRB'
p5418
tp5419
a(Vtall
p5420
S'JJ'
p5421
tp5422
a(Vis
p5423
S'VBZ'
p5424
tp5425
a(Vjerry
p5426
g5421
tp5427
a(Vseinfeld
p5428
S'NN'
p5429
tp5430
aa(lp5431
(Vhow
p5432
S'WRB'
p5433
tp5434
a(Vmany
p5435
S'JJ'
p5436
tp5437
a(Vcards
p5438
S'NNS'
p5439
tp5440
a(Vdo
p5441
S'VBP'
p5442
tp5443
a(Vyou
p5444
S'PRP'
p5445
tp5446
a(Vneed
p5447
S'VB'
p5448
tp5449
a(Vto
p5450
S'TO'
p5451
tp5452
a(Vplay
p5453
g5448
tp5454
a(Vcanasta
p5455
S'NN'
p5456
tp5457
aa(lp5458
(Vhow
p5459
S'WRB'
p5460
tp5461
a(Vmany
p5462
S'JJ'
p5463
tp5464
a(Vgames
p5465
S'NNS'
p5466
tp5467
a(Vare
p5468
S'VBP'
p5469
tp5470
a(Vin
p5471
S'IN'
p5472
tp5473
a(Vthe
p5474
S'DT'
p5475
tp5476
a(Vfinal
p5477
S'JJ'
p5478
tp5479
a(Vfantasy
p5480
S'NN'
p5481
tp5482
a(Vseries
p5483
S'NN'
p5484
tp5485
aa(lp5486
(Vwhat
p5487
S'WDT'
p5488
tp5489
a(Vare
p5490
S'VBP'
p5491
tp5492
a(Vnicknames
p5493
S'RB'
p5494
tp5495
a(Vfor
p5496
S'IN'
p5497
tp5498
a(Vnew
p5499
S'JJ'
p5500
tp5501
a(Vyork
p5502
S'NN'
p5503
tp5504
aa(lp5505
(Vwhat
p5506
S'WP'
p5507
tp5508
a(Vis
p5509
S'VBZ'
p5510
tp5511
a(Vthe
p5512
S'DT'
p5513
tp5514
a(Vhighway
p5515
S'NN'
p5516
tp5517
a(Vfuel
p5518
g5516
tp5519
a(Veconomy
p5520
S'NN'
p5521
tp5522
a(Vof
p5523
S'IN'
p5524
tp5525
a(g19
S'DT'
p5526
tp5527
a(V2007
p5528
S'CD'
p5529
tp5530
a(Vhonda
p5531
g5516
tp5532
a(Vcivic
p5533
g5516
tp5534
a(Vhybrid
p5535
g5516
tp5536
aa(lp5537
(Vwho
p5538
S'WP'
p5539
tp5540
a(Vis
p5541
S'VBZ'
p5542
tp5543
a(Vthe
p5544
S'DT'
p5545
tp5546
a(Vdeveloper
p5547
S'NN'
p5548
tp5549
a(Vof
p5550
S'IN'
p5551
tp5552
a(Vjava
p5553
g5548
tp5554
a(Vlanguage
p5555
S'NN'
p5556
tp5557
aa(lp5558
(Vhow
p5559
S'WRB'
p5560
tp5561
a(Vmany
p5562
S'JJ'
p5563
tp5564
a(Vspeeds
p5565
S'NNS'
p5566
tp5567
a(Vdoes
p5568
S'VBZ'
p5569
tp5570
a(g19
S'DT'
p5571
tp5572
a(Vpanasonic
p5573
S'JJ'
p5574
tp5575
a(Vdx3000
p5576
S'NN'
p5577
tp5578
a(Vhave
p5579
S'VBP'
p5580
tp5581
aa(lp5582
(Vwhen
p5583
S'WRB'
p5584
tp5585
a(Vwas
p5586
S'VBD'
p5587
tp5588
a(Vjoni
p5589
S'NN'
p5590
tp5591
a(Vmitchell
p5592
g5590
tp5593
a(Vinducted
p5594
S'VBN'
p5595
tp5596
a(Vinto
p5597
S'IN'
p5598
tp5599
a(Vthe
p5600
S'DT'
p5601
tp5602
a(Vrock
p5603
g5590
tp5604
a(Vand
p5605
S'CC'
p5606
tp5607
a(Vroll
p5608
S'VB'
p5609
tp5610
a(Vhall
p5611
g5590
tp5612
a(Vof
p5613
S'IN'
p5614
tp5615
a(Vfame
p5616
g5590
tp5617
aa(lp5618
(Vwhere
p5619
S'WRB'
p5620
tp5621
a(Vwas
p5622
S'VBD'
p5623
tp5624
a(Vwilliam
p5625
S'JJ'
p5626
tp5627
a(Vshakespeare
p5628
S'NN'
p5629
tp5630
a(Vborn
p5631
S'VBN'
p5632
tp5633
aa(lp5634
(Vwhat
p5635
S'WDT'
p5636
tp5637
a(Vare
p5638
S'VBP'
p5639
tp5640
a(Vthe
p5641
S'DT'
p5642
tp5643
a(Vdimensions
p5644
S'NNS'
p5645
tp5646
a(Vof
p5647
S'IN'
p5648
tp5649
a(Vthe
p5650
g5642
tp5651
a(Vmatrix
p5652
S'NN'
p5653
tp5654
a(Vreloaded
p5655
S'VBD'
p5656
tp5657
a(Vimage
p5658
S'NN'
p5659
tp5660
aa(lp5661
(Vhow
p5662
S'WRB'
p5663
tp5664
a(Vmany
p5665
S'JJ'
p5666
tp5667
a(Vtest
p5668
S'NN'
p5669
tp5670
a(Vconferences
p5671
S'NNS'
p5672
tp5673
a(Vhas
p5674
S'VBZ'
p5675
tp5676
a(Vrudi
p5677
S'VBN'
p5678
tp5679
a(Vkoertzen
p5680
g5672
tp5681
a(Vrefereed
p5682
S'VB'
p5683
tp5684
aa(lp5685
(Vwhat
p5686
S'WP'
p5687
tp5688
a(Vreligions
p5689
S'NNS'
p5690
tp5691
a(Vbranched
p5692
S'VBD'
p5693
tp5694
a(Vfrom
p5695
S'IN'
p5696
tp5697
a(Vroman
p5698
S'JJ'
p5699
tp5700
a(Vcatholicism
p5701
S'NN'
p5702
tp5703
aa(lp5704
(Vwhat
p5705
S'WP'
p5706
tp5707
a(Varea
p5708
S'NN'
p5709
tp5710
a(Vdoes
p5711
S'VBZ'
p5712
tp5713
a(Vkifm
p5714
S'VB'
p5715
tp5716
a(Vserve
p5717
g5715
tp5718
aa(lp5719
(Vwho
p5720
S'WP'
p5721
tp5722
a(Vdeveloped
p5723
S'VBD'
p5724
tp5725
a(Vthe
p5726
S'DT'
p5727
tp5728
a(Vpolio
p5729
S'NN'
p5730
tp5731
a(Vvaccine
p5732
g5730
tp5733
aa(lp5734
(Vwho
p5735
S'WP'
p5736
tp5737
a(Vpainted
p5738
S'VBD'
p5739
tp5740
a(Vthe
p5741
S'DT'
p5742
tp5743
a(Vmona
p5744
S'NN'
p5745
tp5746
a(Vlisa
p5747
g5745
tp5748
aa(lp5749
(Vhow
p5750
S'WRB'
p5751
tp5752
a(Vmany
p5753
S'JJ'
p5754
tp5755
a(Vcollections
p5756
S'NNS'
p5757
tp5758
a(Vdid
p5759
S'VBD'
p5760
tp5761
a(Vbarry
p5762
S'VB'
p5763
tp5764
a(Vhalper
p5765
S'NN'
p5766
tp5767
a(Vhave
p5768
S'VBP'
p5769
tp5770
aa(lp5771
(Vwho
p5772
S'WP'
p5773
tp5774
a(Vwrites
p5775
S'VBZ'
p5776
tp5777
a(Vthe
p5778
S'DT'
p5779
tp5780
a(Vdabble
p5781
S'JJ'
p5782
tp5783
a(Vblog
p5784
S'NN'
p5785
tp5786
aa(lp5787
(Vwhat
p5788
S'WP'
p5789
tp5790
a(Vconventions
p5791
S'VBZ'
p5792
tp5793
a(Vhas
p5794
S'VBZ'
p5795
tp5796
a(Vhillary
p5797
S'JJ'
p5798
tp5799
a(Vclinton
p5800
S'NN'
p5801
tp5802
a(Vspoken
p5803
S'VBN'
p5804
tp5805
a(Vat
p5806
S'IN'
p5807
tp5808
aa(lp5809
(Vwho
p5810
S'WP'
p5811
tp5812
a(Vare
p5813
S'VBP'
p5814
tp5815
a(Vsome
p5816
S'DT'
p5817
tp5818
a(Vbauhaus
p5819
S'NN'
p5820
tp5821
a(Varchitects
p5822
S'NNS'
p5823
tp5824
aa(lp5825
(Vhow
p5826
S'WRB'
p5827
tp5828
a(Vmany
p5829
S'JJ'
p5830
tp5831
a(Vteams
p5832
S'NNS'
p5833
tp5834
a(Vhas
p5835
S'VBZ'
p5836
tp5837
a(Vcurly
p5838
S'RB'
p5839
tp5840
a(Vlambeau
p5841
S'VBN'
p5842
tp5843
a(Vcoached
p5844
S'VBD'
p5845
tp5846
aa(lp5847
(Vhow
p5848
S'WRB'
p5849
tp5850
a(Vmany
p5851
S'JJ'
p5852
tp5853
a(Vbranches
p5854
S'NNS'
p5855
tp5856
a(Vdoes
p5857
S'VBZ'
p5858
tp5859
a(Vthe
p5860
S'DT'
p5861
tp5862
a(Vvancouver
p5863
S'NN'
p5864
tp5865
a(Vpublic
p5866
S'JJ'
p5867
tp5868
a(Vlibrary
p5869
g5864
tp5870
a(Vhave
p5871
S'VBP'
p5872
tp5873
aa(lp5874
(Vwhat
p5875
S'WP'
p5876
tp5877
a(Vcity
p5878
S'NN'
p5879
tp5880
a(Vis
p5881
S'VBZ'
p5882
tp5883
a(Vthe
p5884
S'DT'
p5885
tp5886
a(Vben
p5887
S'NN'
p5888
tp5889
a(Vmay
p5890
S'MD'
p5891
tp5892
a(Vmain
p5893
S'JJ'
p5894
tp5895
a(Vlibrary
p5896
g5888
tp5897
a(Vin
p5898
S'IN'
p5899
tp5900
aa(lp5901
(Vwhat
p5902
S'WP'
p5903
tp5904
a(Vguidebooks
p5905
S'NN'
p5906
tp5907
a(Vare
p5908
S'VBP'
p5909
tp5910
a(Vthere
p5911
S'RB'
p5912
tp5913
a(Vfor
p5914
S'IN'
p5915
tp5916
a(Vsan
p5917
S'JJ'
p5918
tp5919
a(Vfrancisco
p5920
g5906
tp5921
aa(lp5922
(Vwhat
p5923
S'WDT'
p5924
tp5925
a(Vare
p5926
S'VBP'
p5927
tp5928
a(Vsome
p5929
S'DT'
p5930
tp5931
a(Vpsychology
p5932
S'NN'
p5933
tp5934
a(Vjournals
p5935
S'NNS'
p5936
tp5937
aa(lp5938
(Vwhere
p5939
S'WRB'
p5940
tp5941
a(Vwas
p5942
S'VBD'
p5943
tp5944
a(Vthe
p5945
S'DT'
p5946
tp5947
a(Vkepler
p5948
S'NN'
p5949
tp5950
a(Vspacecraft
p5951
g5949
tp5952
a(Vlaunched
p5953
g5943
tp5954
aa(lp5955
(Vhow
p5956
S'WRB'
p5957
tp5958
a(Vmany
p5959
S'JJ'
p5960
tp5961
a(Vfilm
p5962
S'NN'
p5963
tp5964
a(Vactors
p5965
S'NNS'
p5966
tp5967
a(Vare
p5968
S'VBP'
p5969
tp5970
a(Vthere
p5971
S'RB'
p5972
tp5973
a(Von
p5974
S'IN'
p5975
tp5976
a(Vfreebase
p5977
S'NN'
p5978
tp5979
aa(lp5980
(Vwhen
p5981
S'WRB'
p5982
tp5983
a(Vdid
p5984
S'VBD'
p5985
tp5986
a(g19
S'DT'
p5987
tp5988
a(Vprairie
p5989
S'NN'
p5990
tp5991
a(Vhome
p5992
g5990
tp5993
a(Vcompanion
p5994
g5990
tp5995
a(Vfirst
p5996
S'RB'
p5997
tp5998
a(Vair
p5999
g5990
tp6000
aa(lp6001
(Vwhat
p6002
S'WP'
p6003
tp6004
a(Vgenres
p6005
S'VBZ'
p6006
tp6007
a(Vdoes
p6008
S'VBZ'
p6009
tp6010
a(Vmeet
p6011
S'VB'
p6012
tp6013
a(Vthe
p6014
S'DT'
p6015
tp6016
a(Vparents
p6017
S'NNS'
p6018
tp6019
a(Vconsist
p6020
S'NN'
p6021
tp6022
a(Vof
p6023
S'IN'
p6024
tp6025
aa(lp6026
(Vwhat
p6027
S'WP'
p6028
tp6029
a(Vis
p6030
S'VBZ'
p6031
tp6032
a(Vthe
p6033
S'DT'
p6034
tp6035
a(Vmax
p6036
S'JJ'
p6037
tp6038
a(Vspeed
p6039
S'NN'
p6040
tp6041
a(Vof
p6042
S'IN'
p6043
tp6044
a(g19
S'DT'
p6045
tp6046
a(Vgloster
p6047
g6040
tp6048
a(Vmeteor
p6049
g6040
tp6050
aa(lp6051
(Vwhat
p6052
S'WP'
p6053
tp6054
a(Vposition
p6055
S'NN'
p6056
tp6057
a(Vdoes
p6058
S'VBZ'
p6059
tp6060
a(Vcolby
p6061
S'VB'
p6062
tp6063
a(Varmstrong
p6064
S'JJ'
p6065
tp6066
a(Vplay
p6067
S'NN'
p6068
tp6069
a(Von
p6070
S'IN'
p6071
tp6072
a(Vthe
p6073
S'DT'
p6074
tp6075
a(Vtoronto
p6076
g6068
tp6077
a(Vmaple
p6078
g6068
tp6079
a(Vleafs
p6080
g6068
tp6081
aa(lp6082
(Vhow
p6083
S'WRB'
p6084
tp6085
a(Vmany
p6086
S'JJ'
p6087
tp6088
a(Vcountries
p6089
S'NNS'
p6090
tp6091
a(Vare
p6092
S'VBP'
p6093
tp6094
a(Vin
p6095
S'IN'
p6096
tp6097
a(Vthe
p6098
S'DT'
p6099
tp6100
a(Veuropean
p6101
S'JJ'
p6102
tp6103
a(Vunion
p6104
S'NN'
p6105
tp6106
aa(lp6107
(Vwhen
p6108
S'WRB'
p6109
tp6110
a(Vwas
p6111
S'VBD'
p6112
tp6113
a(Vcivilization
p6114
S'NN'
p6115
tp6116
a(Vfirst
p6117
S'RB'
p6118
tp6119
a(Vreleased
p6120
S'VBN'
p6121
tp6122
aa(lp6123
(Von
p6124
S'IN'
p6125
tp6126
a(Vwhat
p6127
S'WP'
p6128
tp6129
a(Vnetwork
p6130
S'NN'
p6131
tp6132
a(Vwas
p6133
S'VBD'
p6134
tp6135
a(Vgilligan_s
p6136
S'JJ'
p6137
tp6138
a(Visland
p6139
S'NN'
p6140
tp6141
a(Vfirst
p6142
S'RB'
p6143
tp6144
a(Vaired
p6145
g6134
tp6146
aa(lp6147
(Vwhat
p6148
S'WP'
p6149
tp6150
a(Vseries
p6151
S'NN'
p6152
tp6153
a(Vdid
p6154
S'VBD'
p6155
tp6156
a(Vtamora
p6157
S'VB'
p6158
tp6159
a(Vpierce
p6160
S'NN'
p6161
tp6162
a(Vwrite
p6163
g6161
tp6164
aa(lp6165
(Vwho
p6166
S'WP'
p6167
tp6168
a(Vpresented
p6169
S'VBD'
p6170
tp6171
a(Vthe
p6172
S'DT'
p6173
tp6174
a(Vgettysburg
p6175
S'NN'
p6176
tp6177
a(Vaddress
p6178
g6176
tp6179
aa(lp6180
(Vwhat
p6181
S'WP'
p6182
tp6183
a(Vis
p6184
S'VBZ'
p6185
tp6186
a(Vthe
p6187
S'DT'
p6188
tp6189
a(Vmascot
p6190
S'NN'
p6191
tp6192
a(Vof
p6193
S'IN'
p6194
tp6195
a(Vthe
p6196
g6188
tp6197
a(Vboston
p6198
g6191
tp6199
a(Vred
p6200
S'VBD'
p6201
tp6202
a(Vsox
p6203
g6191
tp6204
aa(lp6205
(Vwhen
p6206
S'WRB'
p6207
tp6208
a(Vwas
p6209
S'VBD'
p6210
tp6211
a(Vcathy
p6212
S'JJ'
p6213
tp6214
a(Vlanders
p6215
S'NNS'
p6216
tp6217
a(Vcertified
p6218
g6210
tp6219
a(Vas
p6220
S'IN'
p6221
tp6222
a(g19
S'DT'
p6223
tp6224
a(Vfifth
p6225
g6213
tp6226
a(Vdegree
p6227
S'NN'
p6228
tp6229
a(Vblack
p6230
S'JJ'
p6231
tp6232
a(Vbelt
p6233
g6228
tp6234
a(Vin
p6235
S'IN'
p6236
tp6237
a(Vseishindo
p6238
g6228
tp6239
a(Vkenpo
p6240
g6228
tp6241
aa(lp6242
(Vhow
p6243
S'WRB'
p6244
tp6245
a(Vmany
p6246
S'JJ'
p6247
tp6248
a(Vlocations
p6249
S'NNS'
p6250
tp6251
a(Vare
p6252
S'VBP'
p6253
tp6254
a(Vthere
p6255
S'RB'
p6256
tp6257
a(Von
p6258
S'IN'
p6259
tp6260
a(Vfreebase
p6261
S'NN'
p6262
tp6263
aa(lp6264
(Vwho
p6265
S'WP'
p6266
tp6267
a(Vare
p6268
S'VBP'
p6269
tp6270
a(Vgatorade
p6271
S'VBN'
p6272
tp6273
a(V's
p6274
S'POS'
p6275
tp6276
a(Vmajor
p6277
S'JJ'
p6278
tp6279
a(Vsponsors
p6280
S'NNS'
p6281
tp6282
aa(lp6283
(Vwhat
p6284
S'WP'
p6285
tp6286
a(Vis
p6287
S'VBZ'
p6288
tp6289
a(Vthe
p6290
S'DT'
p6291
tp6292
a(Vfuel
p6293
S'JJ'
p6294
tp6295
a(Veconomy
p6296
S'NN'
p6297
tp6298
a(Vof
p6299
S'IN'
p6300
tp6301
a(g19
S'DT'
p6302
tp6303
a(V2008
p6304
S'CD'
p6305
tp6306
a(Vhyundai
p6307
S'NN'
p6308
tp6309
a(Vaccent
p6310
g6308
tp6311
a(Vgls
p6312
g6308
tp6313
a(Vsedan
p6314
g6308
tp6315
a(Vin
p6316
S'IN'
p6317
tp6318
a(Vthe
p6319
g6291
tp6320
a(Vcity
p6321
S'NN'
p6322
tp6323
aa(lp6324
(Vwhere
p6325
S'WRB'
p6326
tp6327
a(Vis
p6328
S'VBZ'
p6329
tp6330
a(Vbetween
p6331
S'IN'
p6332
tp6333
a(Vthe
p6334
S'DT'
p6335
tp6336
a(Vlines
p6337
S'NNS'
p6338
tp6339
a(Vproduced
p6340
S'VBD'
p6341
tp6342
aa(lp6343
(Vwhen
p6344
S'WRB'
p6345
tp6346
a(Vwas
p6347
S'VBD'
p6348
tp6349
a(Vthe
p6350
S'DT'
p6351
tp6352
a(Voreo
p6353
S'NN'
p6354
tp6355
a(Vcookie
p6356
g6354
tp6357
a(Vintroduced
p6358
g6348
tp6359
aa(lp6360
(Vwhat
p6361
S'WP'
p6362
tp6363
a(Vpositon
p6364
S'NN'
p6365
tp6366
a(Vdoes
p6367
S'VBZ'
p6368
tp6369
a(Vray
p6370
S'VB'
p6371
tp6372
a(Vlewis
p6373
g6371
tp6374
a(Vcurrently
p6375
S'RB'
p6376
tp6377
a(Vplay
p6378
g6371
tp6379
a(Vfor
p6380
S'IN'
p6381
tp6382
a(Vthe
p6383
S'DT'
p6384
tp6385
a(Vbaltimore
p6386
g6365
tp6387
a(Vravens
p6388
S'NNS'
p6389
tp6390
aa(lp6391
(Vto
p6392
S'TO'
p6393
tp6394
a(Vwhom
p6395
S'WP'
p6396
tp6397
a(Vis
p6398
S'VBZ'
p6399
tp6400
a(Vinvisible
p6401
S'JJ'
p6402
tp6403
a(Vman
p6404
S'NN'
p6405
tp6406
a(Vdedicated
p6407
S'VBD'
p6408
tp6409
aa(lp6410
(Vhow
p6411
S'WRB'
p6412
tp6413
a(Vis
p6414
S'VBZ'
p6415
tp6416
a(Vsyphilis
p6417
S'RB'
p6418
tp6419
a(Vtransmitted
p6420
S'VBN'
p6421
tp6422
aa(lp6423
(Vwhat
p6424
S'WP'
p6425
tp6426
a(Vcharacters
p6427
S'VBZ'
p6428
tp6429
a(Vsing
p6430
S'VBG'
p6431
tp6432
a(Vsoprano
p6433
S'NN'
p6434
tp6435
a(Vin
p6436
S'IN'
p6437
tp6438
a(Vtristan
p6439
g6434
tp6440
a(Vand
p6441
S'CC'
p6442
tp6443
a(Visolde
p6444
g6434
tp6445
aa(lp6446
(Vwhat
p6447
S'WP'
p6448
tp6449
a(Vteam
p6450
S'NN'
p6451
tp6452
a(Vdid
p6453
S'VBD'
p6454
tp6455
a(Vrick
p6456
S'VB'
p6457
tp6458
a(Vcarlisle
p6459
g6451
tp6460
a(Vcoach
p6461
g6451
tp6462
a(Vin
p6463
S'IN'
p6464
tp6465
a(V2002
p6466
S'CD'
p6467
tp6468
aa(lp6469
(Vhow
p6470
S'WRB'
p6471
tp6472
a(Vmany
p6473
S'JJ'
p6474
tp6475
a(Vdialects
p6476
S'NNS'
p6477
tp6478
a(Vof
p6479
S'IN'
p6480
tp6481
a(Varabic
p6482
S'NN'
p6483
tp6484
a(Vare
p6485
S'VBP'
p6486
tp6487
a(Vthere
p6488
S'RB'
p6489
tp6490
aa(lp6491
(Vwhen
p6492
S'WRB'
p6493
tp6494
a(Vdid
p6495
S'VBD'
p6496
tp6497
a(Vinvertigo
p6498
S'VB'
p6499
tp6500
a(Vopen
p6501
g6499
tp6502
aa(lp6503
(Vwhat
p6504
S'WP'
p6505
tp6506
a(Vis
p6507
S'VBZ'
p6508
tp6509
a(Vthe
p6510
S'DT'
p6511
tp6512
a(Vmelting
p6513
S'VBG'
p6514
tp6515
a(Vpoint
p6516
S'NN'
p6517
tp6518
a(Vof
p6519
S'IN'
p6520
tp6521
a(Vgold
p6522
g6517
tp6523
aa(lp6524
(Vwhat
p6525
S'WP'
p6526
tp6527
a(Vis
p6528
S'VBZ'
p6529
tp6530
a(Vthe
p6531
S'DT'
p6532
tp6533
a(Vthinker
p6534
S'NN'
p6535
tp6536
a(Vmade
p6537
S'VBD'
p6538
tp6539
a(Vof
p6540
S'IN'
p6541
tp6542
aa(lp6543
(Vwho
p6544
S'WP'
p6545
tp6546
a(Vdid
p6547
S'VBD'
p6548
tp6549
a(Vjun
p6550
S'NN'
p6551
tp6552
a(Vmatsumoto
p6553
g6551
tp6554
a(Vplay
p6555
g6551
tp6556
a(Vin
p6557
S'IN'
p6558
tp6559
a(Vhana
p6560
g6551
tp6561
a(Vyori
p6562
g6551
tp6563
a(Vdango
p6564
g6551
tp6565
aa(lp6566
(Vhow
p6567
S'WRB'
p6568
tp6569
a(Vmany
p6570
S'JJ'
p6571
tp6572
a(Vcars
p6573
S'NNS'
p6574
tp6575
a(Vare
p6576
S'VBP'
p6577
tp6578
a(Vin
p6579
S'IN'
p6580
tp6581
a(Vjay
p6582
S'JJ'
p6583
tp6584
a(Vleno
p6585
S'NN'
p6586
tp6587
a(V's
p6588
S'POS'
p6589
tp6590
a(Vcar
p6591
S'NN'
p6592
tp6593
a(Vcollection
p6594
g6586
tp6595
aa(lp6596
(Vwhen
p6597
S'WRB'
p6598
tp6599
a(Vdid
p6600
S'VBD'
p6601
tp6602
a(Vcoronet
p6603
S'VB'
p6604
tp6605
a(Vpeak
p6606
S'NN'
p6607
tp6608
a(Vopen
p6609
S'JJ'
p6610
tp6611
aa(lp6612
(Vwhat
p6613
S'WP'
p6614
tp6615
a(Vseries
p6616
S'NN'
p6617
tp6618
a(Vwas
p6619
S'VBD'
p6620
tp6621
a(Vgame
p6622
S'NN'
p6623
tp6624
a(Vof
p6625
S'IN'
p6626
tp6627
a(Vthrones
p6628
S'NNS'
p6629
tp6630
a(Vadapted
p6631
S'VBN'
p6632
tp6633
a(Vfrom
p6634
S'IN'
p6635
tp6636
aa(lp6637
(Vwhat
p6638
S'WDT'
p6639
tp6640
a(Vwas
p6641
S'VBD'
p6642
tp6643
a(Vthe
p6644
S'DT'
p6645
tp6646
a(Vscience
p6647
S'NN'
p6648
tp6649
a(Vof
p6650
S'IN'
p6651
tp6652
a(Vsurvival
p6653
S'JJ'
p6654
tp6655
a(Vexhibit
p6656
g6648
tp6657
a(Vabout
p6658
S'IN'
p6659
tp6660
aa(lp6661
(Vhow
p6662
S'WRB'
p6663
tp6664
a(Vmany
p6665
S'JJ'
p6666
tp6667
a(Vlegal
p6668
S'JJ'
p6669
tp6670
a(Voffences
p6671
S'NNS'
p6672
tp6673
a(Vhas
p6674
S'VBZ'
p6675
tp6676
a(Vlindsey
p6677
S'JJR'
p6678
tp6679
a(Vlohan
p6680
S'NN'
p6681
tp6682
a(Vcommitted
p6683
S'VBD'
p6684
tp6685
aa(lp6686
(Vhow
p6687
S'WRB'
p6688
tp6689
a(Vmany
p6690
S'JJ'
p6691
tp6692
a(Vpeople
p6693
S'NNS'
p6694
tp6695
a(Vvisit
p6696
S'VBP'
p6697
tp6698
a(Vthe
p6699
S'DT'
p6700
tp6701
a(Vnew
p6702
S'JJ'
p6703
tp6704
a(Vyork
p6705
S'NN'
p6706
tp6707
a(Vpublic
p6708
S'JJ'
p6709
tp6710
a(Vlibrary
p6711
g6706
tp6712
a(Vannually
p6713
S'RB'
p6714
tp6715
aa(lp6716
(Vhow
p6717
S'WRB'
p6718
tp6719
a(Vmany
p6720
S'JJ'
p6721
tp6722
a(Vcomic
p6723
S'JJ'
p6724
tp6725
a(Vstories
p6726
S'NNS'
p6727
tp6728
a(Vhas
p6729
S'VBZ'
p6730
tp6731
a(Vadrienne
p6732
S'VBN'
p6733
tp6734
a(Vroy
p6735
g6727
tp6736
a(Vcolored
p6737
S'VBD'
p6738
tp6739
aa(lp6740
(Vwhat
p6741
S'WP'
p6742
tp6743
a(Vgames
p6744
S'NNS'
p6745
tp6746
a(Vhas
p6747
S'VBZ'
p6748
tp6749
a(Vgarry
p6750
S'VBN'
p6751
tp6752
a(Vkasparov
p6753
S'NNS'
p6754
tp6755
a(Vwon
p6756
S'VBD'
p6757
tp6758
aa(lp6759
(Vhow
p6760
S'WRB'
p6761
tp6762
a(Vtall
p6763
S'JJ'
p6764
tp6765
a(Vdo
p6766
S'VBP'
p6767
tp6768
a(Vyou
p6769
S'PRP'
p6770
tp6771
a(Vhave
p6772
S'VB'
p6773
tp6774
a(Vto
p6775
S'TO'
p6776
tp6777
a(Vbe
p6778
S'VB'
p6779
tp6780
a(Vto
p6781
g6776
tp6782
a(Vride
p6783
g6773
tp6784
a(Vthe
p6785
S'DT'
p6786
tp6787
a(Vamerican
p6788
g6764
tp6789
a(Veagle
p6790
S'NN'
p6791
tp6792
aa(lp6793
(V\ufeffwho
p6794
S'NN'
p6795
tp6796
a(Vis
p6797
S'VBZ'
p6798
tp6799
a(Vthe
p6800
S'DT'
p6801
tp6802
a(Vhead
p6803
S'JJ'
p6804
tp6805
a(Vcoach
p6806
g6795
tp6807
a(Vof
p6808
S'IN'
p6809
tp6810
a(Vthe
p6811
g6801
tp6812
a(Vpittsburgh
p6813
g6795
tp6814
a(Vsteelers
p6815
S'NNS'
p6816
tp6817
aa(lp6818
(Vwhat
p6819
S'WP'
p6820
tp6821
a(Vconditions
p6822
S'NNS'
p6823
tp6824
a(Vdoes
p6825
S'VBZ'
p6826
tp6827
a(Vaspirin
p6828
S'VB'
p6829
tp6830
a(Vtreat
p6831
g6829
tp6832
aa(lp6833
(Vfor
p6834
S'IN'
p6835
tp6836
a(Vwhat
p6837
S'WP'
p6838
tp6839
a(Vteam
p6840
S'NN'
p6841
tp6842
a(Vdoes
p6843
S'VBZ'
p6844
tp6845
a(Vfedor
p6846
S'VB'
p6847
tp6848
a(Vtyutin
p6849
g6847
tp6850
a(Vplay
p6851
g6841
tp6852
aa(lp6853
(Vhow
p6854
S'WRB'
p6855
tp6856
a(Vmany
p6857
S'JJ'
p6858
tp6859
a(Vtv
p6860
S'NN'
p6861
tp6862
a(Vshows
p6863
S'NNS'
p6864
tp6865
a(Vwas
p6866
S'VBD'
p6867
tp6868
a(Vron
p6869
S'JJ'
p6870
tp6871
a(Vglass
p6872
g6861
tp6873
a(Vin
p6874
S'IN'
p6875
tp6876
aa(lp6877
(Vhow
p6878
S'WRB'
p6879
tp6880
a(Vmany
p6881
S'JJ'
p6882
tp6883
a(Vships
p6884
S'NNS'
p6885
tp6886
a(Vwere
p6887
S'VBD'
p6888
tp6889
a(Vbuilt
p6890
S'VBN'
p6891
tp6892
a(Vby
p6893
S'IN'
p6894
tp6895
a(Vbath
p6896
S'NN'
p6897
tp6898
a(Viron
p6899
g6897
tp6900
a(Vworks
p6901
g6885
tp6902
aa(lp6903
(Vwho
p6904
S'WP'
p6905
tp6906
a(Vwas
p6907
S'VBD'
p6908
tp6909
a(Vnominated
p6910
S'VBN'
p6911
tp6912
a(Vfor
p6913
S'IN'
p6914
tp6915
a(Vthe
p6916
S'DT'
p6917
tp6918
a(Vacademy
p6919
S'JJ'
p6920
tp6921
a(Vaward
p6922
S'NN'
p6923
tp6924
a(Vfor
p6925
g6914
tp6926
a(Vbest
p6927
S'JJS'
p6928
tp6929
a(Vdirector
p6930
S'NN'
p6931
tp6932
a(Vin
p6933
S'IN'
p6934
tp6935
a(V2011
p6936
S'CD'
p6937
tp6938
aa(lp6939
(Vwhat
p6940
S'WP'
p6941
tp6942
a(Vcharacter
p6943
S'NN'
p6944
tp6945
a(Vsays
p6946
S'VBZ'
p6947
tp6948
a(V``
p6949
S'``'
p6950
tp6951
a(Vi
p6952
S'JJ'
p6953
tp6954
a(V'll
p6955
S'MD'
p6956
tp6957
a(Vbe
p6958
S'VB'
p6959
tp6960
a(Vback
p6961
S'RB'
p6962
tp6963
a(V''
p6964
S"''"
p6965
tp6966
aa(lp6967
(Vwhat
p6968
S'WP'
p6969
tp6970
a(Vis
p6971
S'VBZ'
p6972
tp6973
a(Vbritney
p6974
S'JJ'
p6975
tp6976
a(Vspears
p6977
S'NNS'
p6978
tp6979
a(g2705
S'POS'
p6980
tp6981
a(Vsexual
p6982
g6975
tp6983
a(Vorientation
p6984
S'NN'
p6985
tp6986
aa(lp6987
(Vhow
p6988
S'WRB'
p6989
tp6990
a(Vmany
p6991
S'JJ'
p6992
tp6993
a(Vengines
p6994
S'NNS'
p6995
tp6996
a(Vhave
p6997
S'VBP'
p6998
tp6999
a(g19
S'DT'
p7000
tp7001
a(Vstraight-4
p7002
S'JJ'
p7003
tp7004
a(Vpiston
p7005
S'NN'
p7006
tp7007
a(Vconfiguration
p7008
g7006
tp7009
aa(lp7010
(Vwhat
p7011
S'WP'
p7012
tp7013
a(Vplayers
p7014
S'NNS'
p7015
tp7016
a(Vscored
p7017
S'VBD'
p7018
tp7019
a(Vin
p7020
S'IN'
p7021
tp7022
a(Vthe
p7023
S'DT'
p7024
tp7025
a(V2006
p7026
S'CD'
p7027
tp7028
a(Vfifa
p7029
S'NN'
p7030
tp7031
a(Vworld
p7032
S'NN'
p7033
tp7034
a(Vcup
p7035
g7030
tp7036
a(Vfinal
p7037
S'JJ'
p7038
tp7039
aa(lp7040
(Vhow
p7041
S'WRB'
p7042
tp7043
a(Vmany
p7044
S'JJ'
p7045
tp7046
a(Vathletes
p7047
S'NNS'
p7048
tp7049
a(Vhave
p7050
S'VBP'
p7051
tp7052
a(Vgotten
p7053
S'VBN'
p7054
tp7055
a(Van
p7056
S'DT'
p7057
tp7058
a(Volympic
p7059
S'NN'
p7060
tp7061
a(Vgold
p7062
g7060
tp7063
a(Vmedal
p7064
g7060
tp7065
aa(lp7066
(Vwhat
p7067
S'WP'
p7068
tp7069
a(Vmovies
p7070
S'NNS'
p7071
tp7072
a(Vwere
p7073
S'VBD'
p7074
tp7075
a(Vnominated
p7076
S'VBN'
p7077
tp7078
a(Vfor
p7079
S'IN'
p7080
tp7081
a(Vfavorite
p7082
S'JJ'
p7083
tp7084
a(Vcomedy
p7085
S'NN'
p7086
tp7087
a(Vmovie
p7088
S'NN'
p7089
tp7090
aa(lp7091
(Vwho
p7092
S'WP'
p7093
tp7094
a(Vlived
p7095
S'VBD'
p7096
tp7097
a(Vin
p7098
S'IN'
p7099
tp7100
a(Vfallingwater
p7101
S'NN'
p7102
tp7103
aa(lp7104
(Vwho
p7105
S'WP'
p7106
tp7107
a(Vdeveloped
p7108
S'VBD'
p7109
tp7110
a(Vcapri
p7111
S'NN'
p7112
tp7113
a(Vsun
p7114
g7112
tp7115
aa(lp7116
(Vwhat
p7117
S'WP'
p7118
tp7119
a(Vlodges
p7120
S'VBZ'
p7121
tp7122
a(Vare
p7123
S'VBP'
p7124
tp7125
a(Vin
p7126
S'IN'
p7127
tp7128
a(Vthe
p7129
S'DT'
p7130
tp7131
a(Valta
p7132
S'NN'
p7133
tp7134
a(Vski
p7135
S'JJ'
p7136
tp7137
a(Varea
p7138
S'NN'
p7139
tp7140
aa(lp7141
(Vdoes
p7142
S'VBZ'
p7143
tp7144
a(Vthe
p7145
S'DT'
p7146
tp7147
a(Vcanon
p7148
S'NN'
p7149
tp7150
a(Vpowershot
p7151
g7149
tp7152
a(Va75
p7153
g7149
tp7154
a(Vhave
p7155
S'VBP'
p7156
tp7157
a(Van
p7158
S'DT'
p7159
tp7160
a(Vorientation
p7161
g7149
tp7162
a(Vsensor
p7163
g7149
tp7164
aa(lp7165
(Vhow
p7166
S'WRB'
p7167
tp7168
a(Vlong
p7169
S'JJ'
p7170
tp7171
a(Vis
p7172
S'VBZ'
p7173
tp7174
a(Vtitanic
p7175
g7170
tp7176
a(V's
p7177
S'POS'
p7178
tp7179
a(Vruntime
p7180
S'NN'
p7181
tp7182
aa(lp7183
(Vwhat
p7184
S'WP'
p7185
tp7186
a(Vteam
p7187
S'NN'
p7188
tp7189
a(Vdoes
p7190
S'VBZ'
p7191
tp7192
a(Vmike
p7193
S'VB'
p7194
tp7195
a(Vbrown
p7196
S'IN'
p7197
tp7198
a(Vcoach
p7199
g7188
tp7200
aa(lp7201
(Vwhat
p7202
S'WP'
p7203
tp7204
a(Vteam
p7205
S'NN'
p7206
tp7207
a(Vdoes
p7208
S'VBZ'
p7209
tp7210
a(Vjoe
p7211
S'VB'
p7212
tp7213
a(Vgirardi
p7214
g7212
tp7215
a(Vcurrently
p7216
S'RB'
p7217
tp7218
a(Vmanage
p7219
g7212
tp7220
aa(lp7221
(Vwhen
p7222
S'WRB'
p7223
tp7224
a(Vwas
p7225
S'VBD'
p7226
tp7227
a(Vcountry
p7228
S'NN'
p7229
tp7230
a(Vtime
p7231
S'NN'
p7232
tp7233
a(Vproduced
p7234
g7226
tp7235
aa(lp7236
(Vwho
p7237
S'WP'
p7238
tp7239
a(Vis
p7240
S'VBZ'
p7241
tp7242
a(Vthe
p7243
S'DT'
p7244
tp7245
a(Vceo
p7246
S'NN'
p7247
tp7248
a(Vof
p7249
S'IN'
p7250
tp7251
a(Vapple
p7252
S'NN'
p7253
tp7254
aa(lp7255
(Vhow
p7256
S'WRB'
p7257
tp7258
a(Vmany
p7259
S'JJ'
p7260
tp7261
a(Vcommanders
p7262
S'NNS'
p7263
tp7264
a(Vwere
p7265
S'VBD'
p7266
tp7267
a(Vthere
p7268
S'RB'
p7269
tp7270
a(Vin
p7271
S'IN'
p7272
tp7273
a(Vthe
p7274
S'DT'
p7275
tp7276
a(Vcivil
p7277
S'JJ'
p7278
tp7279
a(Vwar
p7280
S'NN'
p7281
tp7282
aa(lp7283
(Vwhen
p7284
S'WRB'
p7285
tp7286
a(Vdid
p7287
S'VBD'
p7288
tp7289
a(Vfrancesco
p7290
S'VB'
p7291
tp7292
a(Vsabatini
p7293
S'JJ'
p7294
tp7295
a(Vstart
p7296
S'NN'
p7297
tp7298
a(Vworking
p7299
S'VBG'
p7300
tp7301
a(Von
p7302
S'IN'
p7303
tp7304
a(Vthe
p7305
S'DT'
p7306
tp7307
a(Vpuerta
p7308
g7297
tp7309
a(Vde
p7310
S'IN'
p7311
tp7312
a(Vsan
p7313
S'FW'
p7314
tp7315
a(Vvicente
p7316
g7297
tp7317
aa(lp7318
(Vwhen
p7319
S'WRB'
p7320
tp7321
a(Vdid
p7322
S'VBD'
p7323
tp7324
a(Vmartin
p7325
S'VB'
p7326
tp7327
a(Vmargiela
p7328
S'JJ'
p7329
tp7330
a(Vstart
p7331
S'NN'
p7332
tp7333
a(Vdesigning
p7334
S'VBG'
p7335
tp7336
a(Vfor
p7337
S'IN'
p7338
tp7339
a(Vherm
p7340
g7332
tp7341
aa(lp7342
(Vwho
p7343
S'WP'
p7344
tp7345
a(Vdirected
p7346
S'VBD'
p7347
tp7348
a(g2081
S'CD'
p7349
tp7350
a(Vfast
p7351
S'RB'
p7352
tp7353
a(g2081
g7349
tp7354
a(Vfurious
p7355
S'JJ'
p7356
tp7357
aa(lp7358
(Vhow
p7359
S'WRB'
p7360
tp7361
a(Vmany
p7362
S'JJ'
p7363
tp7364
a(Vlanguages
p7365
S'NNS'
p7366
tp7367
a(Vhas
p7368
S'VBZ'
p7369
tp7370
a(Vjrr
p7371
S'NN'
p7372
tp7373
a(Vtolkein
p7374
g7372
tp7375
a(Vcreated
p7376
S'VBD'
p7377
tp7378
aa(lp7379
(Vwhat
p7380
S'WP'
p7381
tp7382
a(Vtelescopes
p7383
S'VBZ'
p7384
tp7385
a(Vdoes
p7386
S'VBZ'
p7387
tp7388
a(Vthe
p7389
S'DT'
p7390
tp7391
a(Vlowell
p7392
S'NN'
p7393
tp7394
a(Vobservatory
p7395
g7393
tp7396
a(Vhave
p7397
S'VBP'
p7398
tp7399
aa(lp7400
(Vhow
p7401
S'WRB'
p7402
tp7403
a(Vlong
p7404
S'JJ'
p7405
tp7406
a(Vis
p7407
S'VBZ'
p7408
tp7409
a(Vthe
p7410
S'DT'
p7411
tp7412
a(Vtokyu
p7413
g7405
tp7414
a(Vtamagawa
p7415
S'NN'
p7416
tp7417
a(Vline
p7418
S'NN'
p7419
tp7420
aa(lp7421
(Vwho
p7422
S'WP'
p7423
tp7424
a(Vwas
p7425
S'VBD'
p7426
tp7427
a(Vthe
p7428
S'DT'
p7429
tp7430
a(Vnewscaster
p7431
S'NN'
p7432
tp7433
a(Vin
p7434
S'IN'
p7435
tp7436
a(V1948
p7437
S'CD'
p7438
tp7439
a(Von
p7440
S'IN'
p7441
tp7442
a(Vcbs
p7443
g7432
tp7444
a(Vevening
p7445
S'VBG'
p7446
tp7447
a(Vnews
p7448
S'NN'
p7449
tp7450
aa(lp7451
(Vwho
p7452
S'WP'
p7453
tp7454
a(Vis
p7455
S'VBZ'
p7456
tp7457
a(Vthe
p7458
S'DT'
p7459
tp7460
a(Vmusic
p7461
S'NN'
p7462
tp7463
a(Vby
p7464
S'IN'
p7465
tp7466
a(Vin
p7467
S'IN'
p7468
tp7469
a(Vbruce
p7470
S'NN'
p7471
tp7472
a(Valmighty
p7473
g7471
tp7474
aa(lp7475
(Vhow
p7476
S'WRB'
p7477
tp7478
a(Vmany
p7479
S'JJ'
p7480
tp7481
a(Vepisodes
p7482
S'NNS'
p7483
tp7484
a(Vdoes
p7485
S'VBZ'
p7486
tp7487
a(Vsesame
p7488
S'JJ'
p7489
tp7490
a(Vstreet
p7491
S'NN'
p7492
tp7493
a(Vhave
p7494
S'VBP'
p7495
tp7496
aa(lp7497
(Vwhat
p7498
S'WP'
p7499
tp7500
a(Vis
p7501
S'VBZ'
p7502
tp7503
a(Vthe
p7504
S'DT'
p7505
tp7506
a(Varea
p7507
S'NN'
p7508
tp7509
a(Vof
p7510
S'IN'
p7511
tp7512
a(Vaustralia
p7513
S'NNS'
p7514
tp7515
aa(lp7516
(Vwhat
p7517
S'WP'
p7518
tp7519
a(Vis
p7520
S'VBZ'
p7521
tp7522
a(Vthe
p7523
S'DT'
p7524
tp7525
a(Vchemical
p7526
S'NN'
p7527
tp7528
a(Vformula
p7529
g7527
tp7530
a(Vfor
p7531
S'IN'
p7532
tp7533
a(Vbutane
p7534
g7527
tp7535
aa(lp7536
(Vhow
p7537
S'WRB'
p7538
tp7539
a(Vmany
p7540
S'JJ'
p7541
tp7542
a(Vseasons
p7543
S'NNS'
p7544
tp7545
a(Vof
p7546
S'IN'
p7547
tp7548
a(Vsesame
p7549
S'JJ'
p7550
tp7551
a(Vstreet
p7552
S'NN'
p7553
tp7554
a(Vare
p7555
S'VBP'
p7556
tp7557
a(Vthere
p7558
S'RB'
p7559
tp7560
aa(lp7561
(Vwho
p7562
S'WP'
p7563
tp7564
a(Vcreated
p7565
S'VBD'
p7566
tp7567
a(Vsuperman
p7568
S'NN'
p7569
tp7570
aa(lp7571
(Vwhat
p7572
S'WP'
p7573
tp7574
a(Vis
p7575
S'VBZ'
p7576
tp7577
a(Vthe
p7578
S'DT'
p7579
tp7580
a(Vruntime
p7581
S'NN'
p7582
tp7583
a(Vfor
p7584
S'IN'
p7585
tp7586
a(Vmeet
p7587
g7582
tp7588
a(Vthe
p7589
g7579
tp7590
a(Vparents
p7591
S'NNS'
p7592
tp7593
aa(lp7594
(Vwho
p7595
S'WP'
p7596
tp7597
a(Vwas
p7598
S'VBD'
p7599
tp7600
a(Vthe
p7601
S'DT'
p7602
tp7603
a(Vcasting
p7604
S'NN'
p7605
tp7606
a(Vdirector
p7607
S'NN'
p7608
tp7609
a(Vfor
p7610
S'IN'
p7611
tp7612
a(Vmeet
p7613
g7605
tp7614
a(Vthe
p7615
g7602
tp7616
a(Vparents
p7617
S'NNS'
p7618
tp7619
aa(lp7620
(Vhow
p7621
S'WRB'
p7622
tp7623
a(Vmany
p7624
S'JJ'
p7625
tp7626
a(Vgenerations
p7627
S'NNS'
p7628
tp7629
a(Vof
p7630
S'IN'
p7631
tp7632
a(Vthe
p7633
S'DT'
p7634
tp7635
a(Vipod
p7636
S'NN'
p7637
tp7638
a(Vare
p7639
S'VBP'
p7640
tp7641
a(Vthere
p7642
S'RB'
p7643
tp7644
aa(lp7645
(Vhow
p7646
S'WRB'
p7647
tp7648
a(Vmany
p7649
S'JJ'
p7650
tp7651
a(Vawards
p7652
S'NNS'
p7653
tp7654
a(Vdid
p7655
S'VBD'
p7656
tp7657
a(Vjack
p7658
S'NN'
p7659
tp7660
a(Valbertson
p7661
g7659
tp7662
a(Vwin
p7663
g7659
tp7664
aa(lp7665
(Vsince
p7666
S'IN'
p7667
tp7668
a(Vwhen
p7669
S'WRB'
p7670
tp7671
a(Vhas
p7672
S'VBZ'
p7673
tp7674
a(Vthe
p7675
S'DT'
p7676
tp7677
a(Vcalifornia
p7678
S'NN'
p7679
tp7680
a(Vgull
p7681
g7679
tp7682
a(Vbeen
p7683
S'VBN'
p7684
tp7685
a(Vthe
p7686
g7676
tp7687
a(Vstate
p7688
S'NN'
p7689
tp7690
a(Vbird
p7691
g7679
tp7692
a(Vof
p7693
S'IN'
p7694
tp7695
a(Vutah
p7696
g7679
tp7697
aa(lp7698
(Vwhat
p7699
S'WDT'
p7700
tp7701
a(Vare
p7702
S'VBP'
p7703
tp7704
a(Vthe
p7705
S'DT'
p7706
tp7707
a(Vnew
p7708
S'JJ'
p7709
tp7710
a(Vyork
p7711
S'NN'
p7712
tp7713
a(Vgiants
p7714
S'NNS'
p7715
tp7716
a(Valso
p7717
S'RB'
p7718
tp7719
a(Vknown
p7720
S'VBN'
p7721
tp7722
a(Vas
p7723
S'IN'
p7724
tp7725
aa(lp7726
(Vwhen
p7727
S'WRB'
p7728
tp7729
a(Vwas
p7730
S'VBD'
p7731
tp7732
a(Vuniversal
p7733
S'JJ'
p7734
tp7735
a(Vstudios
p7736
S'NNS'
p7737
tp7738
a(Vjapan
p7739
S'NN'
p7740
tp7741
a(Vopened
p7742
g7731
tp7743
aa(lp7744
(Vhow
p7745
S'WRB'
p7746
tp7747
a(Vmany
p7748
S'JJ'
p7749
tp7750
a(Vpeople
p7751
S'NNS'
p7752
tp7753
a(Vworked
p7754
S'VBN'
p7755
tp7756
a(Von
p7757
S'IN'
p7758
tp7759
a(Vthe
p7760
S'DT'
p7761
tp7762
a(Vdesign
p7763
S'NN'
p7764
tp7765
a(Vand
p7766
S'CC'
p7767
tp7768
a(Vconstruction
p7769
S'NN'
p7770
tp7771
a(Vof
p7772
S'IN'
p7773
tp7774
a(Vthe
p7775
g7761
tp7776
a(Vgolden
p7777
S'JJ'
p7778
tp7779
a(Vgate
p7780
g7764
tp7781
a(Vbridge
p7782
g7764
tp7783
aa(lp7784
(Vdoes
p7785
S'VBZ'
p7786
tp7787
a(Vdoom
p7788
S'NN'
p7789
tp7790
a(Vhave
p7791
S'VB'
p7792
tp7793
a(g19
S'DT'
p7794
tp7795
a(Vmultiplayer
p7796
g7789
tp7797
a(Vmode
p7798
g7789
tp7799
aa(lp7800
(Vwhen
p7801
S'WRB'
p7802
tp7803
a(Vwas
p7804
S'VBD'
p7805
tp7806
a(Vstarbucks
p7807
S'NNS'
p7808
tp7809
a(Vfounded
p7810
g7805
tp7811
aa(lp7812
(Vhow
p7813
S'WRB'
p7814
tp7815
a(Vmuch
p7816
S'JJ'
p7817
tp7818
a(Vmoney
p7819
S'NN'
p7820
tp7821
a(Vin
p7822
S'IN'
p7823
tp7824
a(Vdamages
p7825
S'NNS'
p7826
tp7827
a(Vdid
p7828
S'VBD'
p7829
tp7830
a(Vthe
p7831
S'DT'
p7832
tp7833
a(V1904
p7834
S'CD'
p7835
tp7836
a(Vtoronto
p7837
S'NN'
p7838
tp7839
a(Vfire
p7840
g7838
tp7841
a(Vcost
p7842
g7838
tp7843
aa(lp7844
(Vwhat
p7845
S'WP'
p7846
tp7847
a(Vnewspapers
p7848
S'VBZ'
p7849
tp7850
a(Vdoes
p7851
S'VBZ'
p7852
tp7853
a(Vcarnegie
p7854
S'VB'
p7855
tp7856
a(Vmellon
p7857
S'NN'
p7858
tp7859
a(Vpublish
p7860
g7858
tp7861
aa(lp7862
(Vhow
p7863
S'WRB'
p7864
tp7865
a(Vmany
p7866
S'JJ'
p7867
tp7868
a(Vschools
p7869
S'NNS'
p7870
tp7871
a(Vare
p7872
S'VBP'
p7873
tp7874
a(Vin
p7875
S'IN'
p7876
tp7877
a(Vthe
p7878
S'DT'
p7879
tp7880
a(Vschool
p7881
S'NN'
p7882
tp7883
a(Vdistrict
p7884
S'NN'
p7885
tp7886
a(Vof
p7887
S'IN'
p7888
tp7889
a(Vphiladelphia
p7890
S'NN'
p7891
tp7892
aa(lp7893
(Vwhat
p7894
S'WP'
p7895
tp7896
a(Vrehab
p7897
S'NN'
p7898
tp7899
a(Vfacilities
p7900
S'NNS'
p7901
tp7902
a(Vhas
p7903
S'VBZ'
p7904
tp7905
a(Vjerry
p7906
g7898
tp7907
a(Vgarcia
p7908
g7898
tp7909
a(Vgone
p7910
S'VBN'
p7911
tp7912
a(Vto
p7913
S'TO'
p7914
tp7915
aa(lp7916
(Vhow
p7917
S'WRB'
p7918
tp7919
a(Vmany
p7920
S'JJ'
p7921
tp7922
a(Vpeabody
p7923
S'NN'
p7924
tp7925
a(Vaward
p7926
S'IN'
p7927
tp7928
a(Vwinners
p7929
S'NNS'
p7930
tp7931
a(Vare
p7932
S'VBP'
p7933
tp7934
a(Vthere
p7935
S'RB'
p7936
tp7937
aa(lp7938
(Vhow
p7939
S'WRB'
p7940
tp7941
a(Vmany
p7942
S'JJ'
p7943
tp7944
a(Vgames
p7945
S'NNS'
p7946
tp7947
a(Vare
p7948
S'VBP'
p7949
tp7950
a(Vthere
p7951
S'RB'
p7952
tp7953
a(Vfor
p7954
S'IN'
p7955
tp7956
a(Vnintendo
p7957
S'JJ'
p7958
tp7959
a(Vds
p7960
S'NN'
p7961
tp7962
aa(lp7963
(Vwho
p7964
S'WP'
p7965
tp7966
a(Vinvented
p7967
S'VBD'
p7968
tp7969
a(Vscrabble
p7970
S'JJ'
p7971
tp7972
aa(lp7973
(Vwhere
p7974
S'WRB'
p7975
tp7976
a(Vwas
p7977
S'VBD'
p7978
tp7979
a(Vthe
p7980
S'DT'
p7981
tp7982
a(Varmory
p7983
S'NN'
p7984
tp7985
a(Vshow
p7986
g7984
tp7987
a(Vexhibited
p7988
g7978
tp7989
aa(lp7990
(Vwhat
p7991
S'WP'
p7992
tp7993
a(Vstadium
p7994
S'NN'
p7995
tp7996
a(Vdo
p7997
S'VBP'
p7998
tp7999
a(Vthe
p8000
S'DT'
p8001
tp8002
a(Vphillies
p8003
S'NNS'
p8004
tp8005
a(Vplay
p8006
g7998
tp8007
a(Vin
p8008
S'IN'
p8009
tp8010
aa(lp8011
(Vwho
p8012
S'WP'
p8013
tp8014
a(Vwas
p8015
S'VBD'
p8016
tp8017
a(Vthe
p8018
S'DT'
p8019
tp8020
a(Vdirector
p8021
S'NN'
p8022
tp8023
a(Vof
p8024
S'IN'
p8025
tp8026
a(Vthe
p8027
g8019
tp8028
a(Vnutty
p8029
S'NN'
p8030
tp8031
a(Vprofessor
p8032
g8030
tp8033
aa(lp8034
(Vwhat
p8035
S'WP'
p8036
tp8037
a(Vis
p8038
S'VBZ'
p8039
tp8040
a(Vthe
p8041
S'DT'
p8042
tp8043
a(Vspin
p8044
S'NN'
p8045
tp8046
a(Vof
p8047
S'IN'
p8048
tp8049
a(g19
S'DT'
p8050
tp8051
a(Vpositron
p8052
g8045
tp8053
aa(lp8054
(Vhow
p8055
S'WRB'
p8056
tp8057
a(Vmany
p8058
S'JJ'
p8059
tp8060
a(Vbrands
p8061
S'NNS'
p8062
tp8063
a(Vdoes
p8064
S'VBZ'
p8065
tp8066
a(Vsara
p8067
S'VB'
p8068
tp8069
a(Vlee
p8070
g8068
tp8071
a(Vown
p8072
S'JJ'
p8073
tp8074
aa(lp8075
(Vwho
p8076
S'WP'
p8077
tp8078
a(Vwas
p8079
S'VBD'
p8080
tp8081
a(Vthe
p8082
S'DT'
p8083
tp8084
a(V22nd
p8085
S'CD'
p8086
tp8087
a(Vpresident
p8088
S'NN'
p8089
tp8090
aa(lp8091
(Vwhat
p8092
S'WP'
p8093
tp8094
a(Vgenre
p8095
S'NN'
p8096
tp8097
a(Vis
p8098
S'VBZ'
p8099
tp8100
a(Vthe
p8101
S'DT'
p8102
tp8103
a(Vhound
p8104
g8096
tp8105
a(Vof
p8106
S'IN'
p8107
tp8108
a(Vthe
p8109
g8102
tp8110
a(Vbaskervilles
p8111
S'NNS'
p8112
tp8113
aa(lp8114
(Vwhat
p8115
S'WP'
p8116
tp8117
a(Vis
p8118
S'VBZ'
p8119
tp8120
a(Vthe
p8121
S'DT'
p8122
tp8123
a(Vdry
p8124
S'JJ'
p8125
tp8126
a(Vmass
p8127
S'NN'
p8128
tp8129
a(Vof
p8130
S'IN'
p8131
tp8132
a(Vthe
p8133
g8122
tp8134
a(Vhubble
p8135
g8125
tp8136
a(Vspace
p8137
S'NN'
p8138
tp8139
a(Vtelescope
p8140
g8128
tp8141
aa(lp8142
(Vwhat
p8143
S'WDT'
p8144
tp8145
a(Vare
p8146
S'VBP'
p8147
tp8148
a(Vsome
p8149
S'DT'
p8150
tp8151
a(Vexamples
p8152
S'NNS'
p8153
tp8154
a(Vof
p8155
S'IN'
p8156
tp8157
a(g19
S'DT'
p8158
tp8159
a(Vroad
p8160
S'NN'
p8161
tp8162
a(Vbike
p8163
S'NN'
p8164
tp8165
aa(lp8166
(Vwhat
p8167
S'WP'
p8168
tp8169
a(Vparticles
p8170
S'NNS'
p8171
tp8172
a(Vare
p8173
S'VBP'
p8174
tp8175
a(Vin
p8176
S'IN'
p8177
tp8178
a(Vthe
p8179
S'DT'
p8180
tp8181
a(Vlepton
p8182
S'NN'
p8183
tp8184
a(Vfamily
p8185
S'NN'
p8186
tp8187
aa(lp8188
(Vwhat
p8189
S'WP'
p8190
tp8191
a(Vcategory
p8192
S'NN'
p8193
tp8194
a(Vdoes
p8195
S'VBZ'
p8196
tp8197
a(Vthe
p8198
S'DT'
p8199
tp8200
a(Vfilm
p8201
S'NN'
p8202
tp8203
a(Vdomain
p8204
g8193
tp8205
a(Vbelong
p8206
g8193
tp8207
a(Vto
p8208
S'TO'
p8209
tp8210
aa(lp8211
(Vwhat
p8212
S'WP'
p8213
tp8214
a(Vrock
p8215
S'NN'
p8216
tp8217
a(Vis
p8218
S'VBZ'
p8219
tp8220
a(Vgruta
p8221
S'JJ'
p8222
tp8223
a(Vdas
p8224
g8216
tp8225
a(Vtorres
p8226
S'NNS'
p8227
tp8228
a(Vmade
p8229
S'VBN'
p8230
tp8231
a(Vof
p8232
S'IN'
p8233
tp8234
aa(lp8235
(Vwhat
p8236
S'WP'
p8237
tp8238
a(Vprocessor
p8239
S'NN'
p8240
tp8241
a(Vdid
p8242
S'VBD'
p8243
tp8244
a(Vthe
p8245
S'DT'
p8246
tp8247
a(Vapple
p8248
S'NN'
p8249
tp8250
a(Vii
p8251
g8240
tp8252
a(Vuse
p8253
g8240
tp8254
aa(lp8255
(Vwhen
p8256
S'WRB'
p8257
tp8258
a(Vis
p8259
S'VBZ'
p8260
tp8261
a(Vjerry
p8262
S'JJ'
p8263
tp8264
a(Vseinfeld
p8265
S'NN'
p8266
tp8267
a(V's
p8268
S'POS'
p8269
tp8270
a(Vbirthday
p8271
g8266
tp8272
aa(lp8273
(Vwhat
p8274
S'WP'
p8275
tp8276
a(Vlanguage
p8277
S'NN'
p8278
tp8279
a(Vis
p8280
S'VBZ'
p8281
tp8282
a(Vtagliablog
p8283
S'VBN'
p8284
tp8285
a(Vin
p8286
S'IN'
p8287
tp8288
aa(lp8289
(Vwho
p8290
S'WP'
p8291
tp8292
a(Vproduced
p8293
S'VBD'
p8294
tp8295
a(Vthe
p8296
S'DT'
p8297
tp8298
a(Vthree
p8299
S'CD'
p8300
tp8301
a(Vdoctors
p8302
S'NNS'
p8303
tp8304
aa(lp8305
(Vwho
p8306
S'WP'
p8307
tp8308
a(Vmanufactured
p8309
S'VBD'
p8310
tp8311
a(Vthe
p8312
S'DT'
p8313
tp8314
a(Vspace
p8315
S'NN'
p8316
tp8317
a(Vshuttle
p8318
S'NN'
p8319
tp8320
a(Vdiscovery
p8321
g8319
tp8322
aa(lp8323
(Vwhat
p8324
S'WP'
p8325
tp8326
a(Vis
p8327
S'VBZ'
p8328
tp8329
a(Vthe
p8330
S'DT'
p8331
tp8332
a(Vpopulation
p8333
S'NN'
p8334
tp8335
a(Vof
p8336
S'IN'
p8337
tp8338
a(Vasia
p8339
g8334
tp8340
aa(lp8341
(Vhow
p8342
S'WRB'
p8343
tp8344
a(Vmany
p8345
S'JJ'
p8346
tp8347
a(Vareas
p8348
S'NNS'
p8349
tp8350
a(Vwere
p8351
S'VBD'
p8352
tp8353
a(Vaffected
p8354
S'VBN'
p8355
tp8356
a(Vby
p8357
S'IN'
p8358
tp8359
a(Vhurricane
p8360
S'NN'
p8361
tp8362
a(Vivan
p8363
g8361
tp8364
aa(lp8365
(Vwhen
p8366
S'WRB'
p8367
tp8368
a(Vwas
p8369
S'VBD'
p8370
tp8371
a(Vkid_s
p8372
S'NN'
p8373
tp8374
a(Vcorner
p8375
g8373
tp8376
a(Vfirst
p8377
S'RB'
p8378
tp8379
a(Vbroadcast
p8380
g8370
tp8381
aa(lp8382
(Vwhat
p8383
S'WP'
p8384
tp8385
a(Vis
p8386
S'VBZ'
p8387
tp8388
a(Vcurrency
p8389
S'NN'
p8390
tp8391
a(Vcode
p8392
S'NN'
p8393
tp8394
a(Vfor
p8395
S'IN'
p8396
tp8397
a(Vthe
p8398
S'DT'
p8399
tp8400
a(Vmexican
p8401
S'JJ'
p8402
tp8403
a(Vpeso
p8404
g8393
tp8405
aa(lp8406
(Vwhat
p8407
S'WP'
p8408
tp8409
a(Vlanguages
p8410
S'VBZ'
p8411
tp8412
a(Vuse
p8413
S'VBP'
p8414
tp8415
a(Vbengali
p8416
S'JJ'
p8417
tp8418
a(Vscript
p8419
S'NN'
p8420
tp8421
aa(lp8422
(Vhow
p8423
S'WRB'
p8424
tp8425
a(Vtall
p8426
S'JJ'
p8427
tp8428
a(Vis
p8429
S'VBZ'
p8430
tp8431
a(Vmount
p8432
g8427
tp8433
a(Veverest
p8434
S'RB'
p8435
tp8436
aa(lp8437
(Vwho
p8438
S'WP'
p8439
tp8440
a(Vare
p8441
S'VBP'
p8442
tp8443
a(Vthe
p8444
S'DT'
p8445
tp8446
a(Vhosts
p8447
S'NNS'
p8448
tp8449
a(Vof
p8450
S'IN'
p8451
tp8452
a(Vcar
p8453
S'NN'
p8454
tp8455
a(Vtalk
p8456
S'NN'
p8457
tp8458
aa(lp8459
(Vwhere
p8460
S'WRB'
p8461
tp8462
a(Vwas
p8463
S'VBD'
p8464
tp8465
a(Vhenry
p8466
S'VBN'
p8467
tp8468
a(Viii
p8469
S'NN'
p8470
tp8471
a(Vburied
p8472
g8467
tp8473
aa(lp8474
(Vwho
p8475
S'WP'
p8476
tp8477
a(Vmanufactures
p8478
S'VBZ'
p8479
tp8480
a(Vthe
p8481
S'DT'
p8482
tp8483
a(Vt-38
p8484
S'JJ'
p8485
tp8486
a(Vtalon
p8487
S'NN'
p8488
tp8489
aa(lp8490
(Vwhat
p8491
S'WP'
p8492
tp8493
a(Vaward
p8494
S'NN'
p8495
tp8496
a(Vdoes
p8497
S'VBZ'
p8498
tp8499
a(Vthe
p8500
S'DT'
p8501
tp8502
a(Vroyal
p8503
S'JJ'
p8504
tp8505
a(Vinstitute
p8506
g8495
tp8507
a(Vof
p8508
S'IN'
p8509
tp8510
a(Vbritish
p8511
g8504
tp8512
a(Varchitects
p8513
S'NNS'
p8514
tp8515
a(Vpresent
p8516
g8504
tp8517
aa(lp8518
(Vhow
p8519
S'WRB'
p8520
tp8521
a(Vmany
p8522
S'JJ'
p8523
tp8524
a(Vorders
p8525
S'NNS'
p8526
tp8527
a(Vdid
p8528
S'VBD'
p8529
tp8530
a(Vqueen
p8531
S'JJ'
p8532
tp8533
a(Vvictoria
p8534
S'NN'
p8535
tp8536
a(Vfound
p8537
S'VBD'
p8538
tp8539
aa(lp8540
(Vwhat
p8541
S'WP'
p8542
tp8543
a(Vwas
p8544
S'VBD'
p8545
tp8546
a(Vrobert
p8547
S'JJ'
p8548
tp8549
a(Voppenheimer
p8550
S'NN'
p8551
tp8552
a(V's
p8553
S'POS'
p8554
tp8555
a(Vrole
p8556
S'NN'
p8557
tp8558
a(Vin
p8559
S'IN'
p8560
tp8561
a(Vthe
p8562
S'DT'
p8563
tp8564
a(Vmanhattan
p8565
g8551
tp8566
a(Vproject
p8567
g8551
tp8568
aa(lp8569
(Vwho
p8570
S'WP'
p8571
tp8572
a(Vare
p8573
S'VBP'
p8574
tp8575
a(Vthe
p8576
S'DT'
p8577
tp8578
a(Vplayers
p8579
S'NNS'
p8580
tp8581
a(Vcurrently
p8582
S'RB'
p8583
tp8584
a(Von
p8585
S'IN'
p8586
tp8587
a(Vthe
p8588
g8577
tp8589
a(Vlos
p8590
S'NN'
p8591
tp8592
a(Vangeles
p8593
S'VBZ'
p8594
tp8595
a(Vdodgers
p8596
S'NNS'
p8597
tp8598
aa(lp8599
(Vwhat
p8600
S'WP'
p8601
tp8602
a(Vreligion
p8603
S'NN'
p8604
tp8605
a(Vdid
p8606
S'VBD'
p8607
tp8608
a(Vmartin
p8609
S'VB'
p8610
tp8611
a(Vluther
p8612
g8604
tp8613
a(Vfound
p8614
S'VBD'
p8615
tp8616
aa(lp8617
(Vwhat
p8618
S'WP'
p8619
tp8620
a(Vcharacter
p8621
S'NN'
p8622
tp8623
a(Vwas
p8624
S'VBD'
p8625
tp8626
a(Vborn
p8627
S'VBN'
p8628
tp8629
a(Vin
p8630
S'IN'
p8631
tp8632
a(Vgotham
p8633
S'JJ'
p8634
tp8635
a(Vcity
p8636
S'NN'
p8637
tp8638
aa(lp8639
(Vhow
p8640
S'WRB'
p8641
tp8642
a(Vmuch
p8643
S'JJ'
p8644
tp8645
a(Vprotein
p8646
S'NN'
p8647
tp8648
a(Vis
p8649
S'VBZ'
p8650
tp8651
a(Vin
p8652
S'IN'
p8653
tp8654
a(Vquinoa
p8655
g8647
tp8656
aa(lp8657
(Vwhen
p8658
S'WRB'
p8659
tp8660
a(Vwas
p8661
S'VBD'
p8662
tp8663
a(Vthe
p8664
S'DT'
p8665
tp8666
a(Vmovie
p8667
S'NN'
p8668
tp8669
a(Vbig
p8670
S'JJ'
p8671
tp8672
a(Vdaddy
p8673
S'NN'
p8674
tp8675
a(Vreleased
p8676
g8662
tp8677
aa(lp8678
(Vwhat
p8679
S'WP'
p8680
tp8681
a(Vcity
p8682
S'NN'
p8683
tp8684
a(Vhosted
p8685
S'VBD'
p8686
tp8687
a(Vthe
p8688
S'DT'
p8689
tp8690
a(V1948
p8691
S'CD'
p8692
tp8693
a(Vsummer
p8694
S'NN'
p8695
tp8696
a(Volympics
p8697
S'NNS'
p8698
tp8699
aa(lp8700
(Vhow
p8701
S'WRB'
p8702
tp8703
a(Vmany
p8704
S'JJ'
p8705
tp8706
a(Vbeers
p8707
S'NNS'
p8708
tp8709
a(Vare
p8710
S'VBP'
p8711
tp8712
a(Vthere
p8713
S'RB'
p8714
tp8715
a(Von
p8716
S'IN'
p8717
tp8718
a(Vfreebase
p8719
S'NN'
p8720
tp8721
aa(lp8722
(Vwhen
p8723
S'WRB'
p8724
tp8725
a(Vwas
p8726
S'VBD'
p8727
tp8728
a(Vtarget
p8729
S'NN'
p8730
tp8731
a(Vfounded
p8732
g8727
tp8733
aa(lp8734
(Vhow
p8735
S'WRB'
p8736
tp8737
a(Vmany
p8738
S'JJ'
p8739
tp8740
a(Vcountries
p8741
S'NNS'
p8742
tp8743
a(Vuse
p8744
S'VBP'
p8745
tp8746
a(Vuk
p8747
S'JJ'
p8748
tp8749
a(Vmoney
p8750
S'NN'
p8751
tp8752
aa(lp8753
(Vwhat
p8754
S'WDT'
p8755
tp8756
a(Vare
p8757
S'VBP'
p8758
tp8759
a(Vcolumbia
p8760
S'JJ'
p8761
tp8762
a(Vuniversity
p8763
S'NN'
p8764
tp8765
a(V's
p8766
S'POS'
p8767
tp8768
a(Vcolors
p8769
S'NNS'
p8770
tp8771
aa(lp8772
(Vwhat
p8773
S'WP'
p8774
tp8775
a(Vinstrument
p8776
S'NN'
p8777
tp8778
a(Vdid
p8779
S'VBD'
p8780
tp8781
a(Vlightnin
p8782
g8777
tp8783
a(g2705
S"''"
p8784
tp8785
a(Vhopkins
p8786
S'NNS'
p8787
tp8788
a(Vplay
p8789
S'VBP'
p8790
tp8791
aa(lp8792
(Vwhat
p8793
S'WDT'
p8794
tp8795
a(Vare
p8796
S'VBP'
p8797
tp8798
a(Vthe
p8799
S'DT'
p8800
tp8801
a(Vpractices
p8802
S'NNS'
p8803
tp8804
a(Vof
p8805
S'IN'
p8806
tp8807
a(Vsikhism
p8808
S'NN'
p8809
tp8810
aa(lp8811
(Vhow
p8812
S'WRB'
p8813
tp8814
a(Vmany
p8815
S'JJ'
p8816
tp8817
a(Vpeople
p8818
S'NNS'
p8819
tp8820
a(Vblog
p8821
S'VBP'
p8822
tp8823
a(Von
p8824
S'IN'
p8825
tp8826
a(Vbeyond
p8827
S'IN'
p8828
tp8829
a(Vrobson
p8830
S'NN'
p8831
tp8832
aa(lp8833
(Vhow
p8834
S'WRB'
p8835
tp8836
a(Vmany
p8837
S'JJ'
p8838
tp8839
a(Vindustries
p8840
S'NNS'
p8841
tp8842
a(Vdoes
p8843
S'VBZ'
p8844
tp8845
a(Vwalmart
p8846
S'JJ'
p8847
tp8848
a(Vconsist
p8849
S'NN'
p8850
tp8851
a(Vof
p8852
S'IN'
p8853
tp8854
aa(lp8855
(Vwhat
p8856
S'WP'
p8857
tp8858
a(Vis
p8859
S'VBZ'
p8860
tp8861
a(Vthe
p8862
S'DT'
p8863
tp8864
a(Vpopulation
p8865
S'NN'
p8866
tp8867
a(Vin
p8868
S'IN'
p8869
tp8870
a(Viowa
p8871
g8866
tp8872
aa(lp8873
(Vwhere
p8874
S'WRB'
p8875
tp8876
a(Vdoes
p8877
S'VBZ'
p8878
tp8879
a(Vthe
p8880
S'DT'
p8881
tp8882
a(Vmarket-frankford
p8883
S'JJ'
p8884
tp8885
a(Vline
p8886
S'NN'
p8887
tp8888
a(Vstop
p8889
S'NN'
p8890
tp8891
aa(lp8892
(Vwhat
p8893
S'WDT'
p8894
tp8895
a(Vare
p8896
S'VBP'
p8897
tp8898
a(Vthe
p8899
S'DT'
p8900
tp8901
a(Vsubclasses
p8902
S'NNS'
p8903
tp8904
a(Vof
p8905
S'IN'
p8906
tp8907
a(Vthe
p8908
g8900
tp8909
a(Vboson
p8910
S'NN'
p8911
tp8912
a(Vclass
p8913
S'NN'
p8914
tp8915
aa(lp8916
(Vhow
p8917
S'WRB'
p8918
tp8919
a(Vlong
p8920
S'JJ'
p8921
tp8922
a(Vis
p8923
S'VBZ'
p8924
tp8925
a(Vthe
p8926
S'DT'
p8927
tp8928
a(Vgolden
p8929
S'JJ'
p8930
tp8931
a(Vgate
p8932
S'NN'
p8933
tp8934
a(Vbridge
p8935
g8933
tp8936
aa(lp8937
(Vhow
p8938
S'WRB'
p8939
tp8940
a(Vmany
p8941
S'JJ'
p8942
tp8943
a(Vboats
p8944
S'NN'
p8945
tp8946
a(Vdoes
p8947
S'VBZ'
p8948
tp8949
a(Vthe
p8950
S'DT'
p8951
tp8952
a(Vroyal
p8953
g8945
tp8954
a(Vnavy
p8955
S'RB'
p8956
tp8957
a(Vown
p8958
S'JJ'
p8959
tp8960
aa(lp8961
(Vwhere
p8962
S'WRB'
p8963
tp8964
a(Vwas
p8965
S'VBD'
p8966
tp8967
a(Vluke
p8968
S'JJ'
p8969
tp8970
a(Vskywalker
p8971
S'NN'
p8972
tp8973
a(Vborn
p8974
g8972
tp8975
aa(lp8976
(Vwho
p8977
S'WP'
p8978
tp8979
a(Vwas
p8980
S'VBD'
p8981
tp8982
a(Vthe
p8983
S'DT'
p8984
tp8985
a(Vstory
p8986
S'NN'
p8987
tp8988
a(Vof
p8989
S'IN'
p8990
tp8991
a(Vcharlie_s
p8992
S'NN'
p8993
tp8994
a(Vangels
p8995
S'NNS'
p8996
tp8997
a(Vby
p8998
S'IN'
p8999
tp9000
aa(lp9001
(Vwhat
p9002
S'WDT'
p9003
tp9004
a(Vwas
p9005
S'VBD'
p9006
tp9007
a(Vthe
p9008
S'DT'
p9009
tp9010
a(Vmanhattan
p9011
S'NN'
p9012
tp9013
a(Vproject
p9014
g9012
tp9015
a(Vabout
p9016
S'IN'
p9017
tp9018
aa(lp9019
(Vwhat
p9020
S'WP'
p9021
tp9022
a(Vparty
p9023
S'NN'
p9024
tp9025
a(Vdid
p9026
S'VBD'
p9027
tp9028
a(Vgrover
p9029
S'RB'
p9030
tp9031
a(Vcleveland
p9032
S'VB'
p9033
tp9034
a(Vbelong
p9035
S'NN'
p9036
tp9037
a(Vto
p9038
S'TO'
p9039
tp9040
aa(lp9041
(Vwhat
p9042
S'WP'
p9043
tp9044
a(Vis
p9045
S'VBZ'
p9046
tp9047
a(Vthe
p9048
S'DT'
p9049
tp9050
a(Vpassenger
p9051
S'NN'
p9052
tp9053
a(Vcapacity
p9054
S'NN'
p9055
tp9056
a(Vof
p9057
S'IN'
p9058
tp9059
a(g19
S'DT'
p9060
tp9061
a(Vcessna
p9062
S'JJ'
p9063
tp9064
a(Vcitation
p9065
g9052
tp9066
a(Vx
p9067
g9052
tp9068
aa(lp9069
(Vwhen
p9070
S'WRB'
p9071
tp9072
a(Vwas
p9073
S'VBD'
p9074
tp9075
a(Vpanasonic
p9076
S'JJ'
p9077
tp9078
a(Vcorporation
p9079
S'NN'
p9080
tp9081
a(Vfounded
p9082
g9074
tp9083
aa(lp9084
(Vwho
p9085
S'WP'
p9086
tp9087
a(Vgot
p9088
S'VBD'
p9089
tp9090
a(Vthe
p9091
S'DT'
p9092
tp9093
a(Vgold
p9094
S'NN'
p9095
tp9096
a(Vmedal
p9097
g9095
tp9098
a(Vin
p9099
S'IN'
p9100
tp9101
a(Vmen_s
p9102
g9095
tp9103
a(Vsingles
p9104
S'NNS'
p9105
tp9106
a(Vtennis
p9107
g9095
tp9108
a(Vat
p9109
S'IN'
p9110
tp9111
a(Vthe
p9112
g9092
tp9113
a(V1896
p9114
S'CD'
p9115
tp9116
a(Vsummer
p9117
S'NN'
p9118
tp9119
a(Volympics
p9120
g9105
tp9121
aa(lp9122
(Vin
p9123
S'IN'
p9124
tp9125
a(Vwhat
p9126
S'WP'
p9127
tp9128
a(Vyear
p9129
S'NN'
p9130
tp9131
a(Vdid
p9132
S'VBD'
p9133
tp9134
a(Vharry
p9135
S'VB'
p9136
tp9137
a(Vpotter
p9138
S'NN'
p9139
tp9140
a(Vand
p9141
S'CC'
p9142
tp9143
a(Vthe
p9144
S'DT'
p9145
tp9146
a(Vgoblet
p9147
g9139
tp9148
a(Vof
p9149
S'IN'
p9150
tp9151
a(Vfire
p9152
g9139
tp9153
a(Vwin
p9154
S'VBP'
p9155
tp9156
a(Vthe
p9157
g9145
tp9158
a(Vhugo
p9159
g9139
tp9160
a(Vaward
p9161
g9139
tp9162
a(Vfor
p9163
S'IN'
p9164
tp9165
a(Vbest
p9166
S'JJS'
p9167
tp9168
a(Vnovel
p9169
g9139
tp9170
aa(lp9171
(Vhow
p9172
S'WRB'
p9173
tp9174
a(Vmany
p9175
S'JJ'
p9176
tp9177
a(Vdinosaur
p9178
S'NN'
p9179
tp9180
a(Vspecies
p9181
S'NNS'
p9182
tp9183
a(Vare
p9184
S'VBP'
p9185
tp9186
a(Vthere
p9187
S'RB'
p9188
tp9189
a(Vin
p9190
S'IN'
p9191
tp9192
a(Vnorth
p9193
g9179
tp9194
a(Vamerica
p9195
g9179
tp9196
aa(lp9197
(Vwhat
p9198
S'WP'
p9199
tp9200
a(Vis
p9201
S'VBZ'
p9202
tp9203
a(Vthe
p9204
S'DT'
p9205
tp9206
a(Vparent
p9207
S'NN'
p9208
tp9209
a(Vdisease
p9210
g9208
tp9211
a(Vof
p9212
S'IN'
p9213
tp9214
a(g19
S'DT'
p9215
tp9216
a(Vstroke
p9217
g9208
tp9218
aa(lp9219
(Vwho
p9220
S'WP'
p9221
tp9222
a(Vdirected
p9223
S'VBD'
p9224
tp9225
a(V13
p9226
S'CD'
p9227
tp9228
a(Vgoing
p9229
S'VBG'
p9230
tp9231
a(Von
p9232
S'IN'
p9233
tp9234
a(V30
p9235
S'CD'
p9236
tp9237
aa(lp9238
(Vwhat
p9239
S'WP'
p9240
tp9241
a(Vteam
p9242
S'NN'
p9243
tp9244
a(Vdoes
p9245
S'VBZ'
p9246
tp9247
a(Vdennis
p9248
S'VB'
p9249
tp9250
a(Vbergkamp
p9251
g9249
tp9252
a(Vplay
p9253
g9243
tp9254
a(Vfor
p9255
S'IN'
p9256
tp9257
aa(lp9258
(Vin
p9259
S'IN'
p9260
tp9261
a(Vhow
p9262
S'WRB'
p9263
tp9264
a(Vmany
p9265
S'JJ'
p9266
tp9267
a(Vmilitary
p9268
S'JJ'
p9269
tp9270
a(Vconflicts
p9271
S'NNS'
p9272
tp9273
a(Vdid
p9274
S'VBD'
p9275
tp9276
a(Vmussolini
p9277
S'CD'
p9278
tp9279
a(Vcommand
p9280
S'NN'
p9281
tp9282
aa(lp9283
(Vwhat
p9284
S'WP'
p9285
tp9286
a(Vstructures
p9287
S'VBZ'
p9288
tp9289
a(Vdid
p9290
S'VBD'
p9291
tp9292
a(Vfrank
p9293
S'VB'
p9294
tp9295
a(Vlloyd
p9296
S'NN'
p9297
tp9298
a(Vwright
p9299
g9297
tp9300
a(Vdesign
p9301
g9297
tp9302
aa(lp9303
(Vin
p9304
S'IN'
p9305
tp9306
a(Vwhat
p9307
S'WP'
p9308
tp9309
a(Vtime
p9310
S'NN'
p9311
tp9312
a(Vzone
p9313
S'NN'
p9314
tp9315
a(Vis
p9316
S'VBZ'
p9317
tp9318
a(Villinois
p9319
S'JJ'
p9320
tp9321
aa(lp9322
(Vwho
p9323
S'WP'
p9324
tp9325
a(Vare
p9326
S'VBP'
p9327
tp9328
a(Vthe
p9329
S'DT'
p9330
tp9331
a(Vmain
p9332
S'JJ'
p9333
tp9334
a(Vcast
p9335
S'NN'
p9336
tp9337
a(Vmembers
p9338
S'NNS'
p9339
tp9340
a(Vof
p9341
S'IN'
p9342
tp9343
a(Vsesame
p9344
S'JJ'
p9345
tp9346
a(Vstreet
p9347
g9336
tp9348
aa(lp9349
(Vwho
p9350
S'WP'
p9351
tp9352
a(Vare
p9353
S'VBP'
p9354
tp9355
a(Vthe
p9356
S'DT'
p9357
tp9358
a(Vcharacters
p9359
S'NNS'
p9360
tp9361
a(Vin
p9362
S'IN'
p9363
tp9364
a(Vto
p9365
S'TO'
p9366
tp9367
a(Vkill
p9368
S'VB'
p9369
tp9370
a(g19
S'DT'
p9371
tp9372
a(Vmockingbird
p9373
S'NN'
p9374
tp9375
aa(lp9376
(Vwho
p9377
S'WP'
p9378
tp9379
a(Vare
p9380
S'VBP'
p9381
tp9382
a(Vthe
p9383
S'DT'
p9384
tp9385
a(Vstudents
p9386
S'NNS'
p9387
tp9388
a(Vof
p9389
S'IN'
p9390
tp9391
a(Vbruce
p9392
S'NN'
p9393
tp9394
a(Vlee
p9395
g9393
tp9396
aa(lp9397
(Vhow
p9398
S'WRB'
p9399
tp9400
a(Vtall
p9401
S'DT'
p9402
tp9403
a(Vwas
p9404
S'VBD'
p9405
tp9406
a(Vseabiscuit
p9407
S'NN'
p9408
tp9409
aa(lp9410
(Vwho
p9411
S'WP'
p9412
tp9413
a(Vwon
p9414
S'VBD'
p9415
tp9416
a(Vmuhammad
p9417
S'JJ'
p9418
tp9419
a(Vali
p9420
S'NN'
p9421
tp9422
a(Vvs.
p9423
S'FW'
p9424
tp9425
a(Vjoe
p9426
g9421
tp9427
a(Vfrazier
p9428
g9421
tp9429
a(Vii
p9430
g9421
tp9431
aa(lp9432
(Vwhat
p9433
S'WP'
p9434
tp9435
a(Vis
p9436
S'VBZ'
p9437
tp9438
a(Vthe
p9439
S'DT'
p9440
tp9441
a(Vengine
p9442
S'NN'
p9443
tp9444
a(Vin
p9445
S'IN'
p9446
tp9447
a(g19
S'DT'
p9448
tp9449
a(V2010
p9450
S'CD'
p9451
tp9452
a(Vferrari
p9453
S'NN'
p9454
tp9455
a(Vcalifornia
p9456
g9454
tp9457
aa(lp9458
(Vhow
p9459
S'WRB'
p9460
tp9461
a(Vmany
p9462
S'JJ'
p9463
tp9464
a(Vother
p9465
S'JJ'
p9466
tp9467
a(Vnames
p9468
S'NNS'
p9469
tp9470
a(Vis
p9471
S'VBZ'
p9472
tp9473
a(Vpanasonic
p9474
S'JJ'
p9475
tp9476
a(Vcorporation
p9477
S'NN'
p9478
tp9479
a(Vknown
p9480
S'VBN'
p9481
tp9482
a(Vby
p9483
S'IN'
p9484
tp9485
aa(lp9486
(Vwhat
p9487
S'WP'
p9488
tp9489
a(Vgenre
p9490
S'NN'
p9491
tp9492
a(Vdid
p9493
S'VBD'
p9494
tp9495
a(Vlil
p9496
S'JJ'
p9497
tp9498
a(Vhardin
p9499
g9491
tp9500
a(Varmstrong
p9501
g9497
tp9502
a(Vrepresent
p9503
g9491
tp9504
aa(lp9505
(Vwhat
p9506
S'WP'
p9507
tp9508
a(Vis
p9509
S'VBZ'
p9510
tp9511
a(Vcurrency
p9512
S'NN'
p9513
tp9514
a(Vcode
p9515
S'NN'
p9516
tp9517
a(Vfor
p9518
S'IN'
p9519
tp9520
a(Vthe
p9521
S'DT'
p9522
tp9523
a(Vjapanese
p9524
S'JJ'
p9525
tp9526
a(Vyen
p9527
g9516
tp9528
aa(lp9529
(Vwhat
p9530
S'WDT'
p9531
tp9532
a(Vwas
p9533
S'VBD'
p9534
tp9535
a(Vthe
p9536
S'DT'
p9537
tp9538
a(Vfawlty
p9539
S'NN'
p9540
tp9541
a(Vtowers
p9542
S'NNS'
p9543
tp9544
a(Vepisode
p9545
S'VBP'
p9546
tp9547
a(Vafter
p9548
S'IN'
p9549
tp9550
a(Vthe
p9551
g9537
tp9552
a(Vpsychiatrist
p9553
g9540
tp9554
aa(lp9555
(Vwho
p9556
S'WP'
p9557
tp9558
a(Vis
p9559
S'VBZ'
p9560
tp9561
a(Vthe
p9562
S'DT'
p9563
tp9564
a(Vpresident
p9565
S'NN'
p9566
tp9567
a(Vof
p9568
S'IN'
p9569
tp9570
a(Vgap
p9571
S'NN'
p9572
tp9573
a(g94
S','
p9574
tp9575
a(Vinc
p9576
g9572
tp9577
a(g655
S'.'
p9578
tp9579
aa(lp9580
(Vwhat
p9581
S'WP'
p9582
tp9583
a(Vchemical
p9584
S'NN'
p9585
tp9586
a(Vseries
p9587
S'NN'
p9588
tp9589
a(Vis
p9590
S'VBZ'
p9591
tp9592
a(Vtungsten
p9593
S'VBN'
p9594
tp9595
a(Vin
p9596
S'IN'
p9597
tp9598
aa(lp9599
(Vhow
p9600
S'WRB'
p9601
tp9602
a(Vmany
p9603
S'JJ'
p9604
tp9605
a(Vworks
p9606
S'NNS'
p9607
tp9608
a(Vhave
p9609
S'VBP'
p9610
tp9611
a(Vbeen
p9612
S'VBN'
p9613
tp9614
a(Vset
p9615
S'VBN'
p9616
tp9617
a(Von
p9618
S'IN'
p9619
tp9620
a(Vthe
p9621
S'DT'
p9622
tp9623
a(Vmoon
p9624
S'NN'
p9625
tp9626
aa(lp9627
(Vwhen
p9628
S'WRB'
p9629
tp9630
a(Vwas
p9631
S'VBD'
p9632
tp9633
a(Vjcpenney
p9634
S'NN'
p9635
tp9636
a(Vfounded
p9637
S'VBN'
p9638
tp9639
aa(lp9640
(Vwhat
p9641
S'WP'
p9642
tp9643
a(Vis
p9644
S'VBZ'
p9645
tp9646
a(Vthe
p9647
S'DT'
p9648
tp9649
a(Vsetting
p9650
S'NN'
p9651
tp9652
a(Vof
p9653
S'IN'
p9654
tp9655
a(Vthe
p9656
g9648
tp9657
a(Vmagician_s
p9658
g9651
tp9659
a(Vnephew
p9660
g9651
tp9661
aa(lp9662
(Vwho
p9663
S'WP'
p9664
tp9665
a(Vproduces
p9666
S'VBZ'
p9667
tp9668
a(Vmeet
p9669
S'VB'
p9670
tp9671
a(Vthe
p9672
S'DT'
p9673
tp9674
a(Vpress
p9675
S'NN'
p9676
tp9677
aa(lp9678
(Vwhen
p9679
S'WRB'
p9680
tp9681
a(Vdid
p9682
S'VBD'
p9683
tp9684
a(Vjack
p9685
S'NN'
p9686
tp9687
a(Valbertson
p9688
g9686
tp9689
a(Vdie
p9690
g9686
tp9691
aa(lp9692
(Vwhat
p9693
S'WP'
p9694
tp9695
a(Vtv
p9696
S'NN'
p9697
tp9698
a(Vprograms
p9699
S'NNS'
p9700
tp9701
a(Vhas
p9702
S'VBZ'
p9703
tp9704
a(Vhugh
p9705
S'VBN'
p9706
tp9707
a(Vlaurie
p9708
S'RB'
p9709
tp9710
a(Vcreated
p9711
g9706
tp9712
aa(lp9713
(Vhow
p9714
S'WRB'
p9715
tp9716
a(Vmany
p9717
S'JJ'
p9718
tp9719
a(Vbreeds
p9720
S'NNS'
p9721
tp9722
a(Vare
p9723
S'VBP'
p9724
tp9725
a(Vin
p9726
S'IN'
p9727
tp9728
a(Vthe
p9729
S'DT'
p9730
tp9731
a(Vsporting
p9732
S'VBG'
p9733
tp9734
a(Vgroup
p9735
S'NN'
p9736
tp9737
a(Vof
p9738
S'IN'
p9739
tp9740
a(Vthe
p9741
g9730
tp9742
a(Vamerican
p9743
S'JJ'
p9744
tp9745
a(Vkennel
p9746
S'NN'
p9747
tp9748
a(Vclub
p9749
g9747
tp9750
aa(lp9751
(Vhow
p9752
S'WRB'
p9753
tp9754
a(Vmany
p9755
S'JJ'
p9756
tp9757
a(Vvisitors
p9758
S'NNS'
p9759
tp9760
a(Vdoes
p9761
S'VBZ'
p9762
tp9763
a(Vmammoth
p9764
g9759
tp9765
a(Vcave
p9766
S'VBP'
p9767
tp9768
a(Vnational
p9769
S'JJ'
p9770
tp9771
a(Vpark
p9772
S'NN'
p9773
tp9774
a(Vget
p9775
g9773
tp9776
a(Vin
p9777
S'IN'
p9778
tp9779
a(g19
S'DT'
p9780
tp9781
a(Vyear
p9782
S'NN'
p9783
tp9784
aa(lp9785
(Vhow
p9786
S'WRB'
p9787
tp9788
a(Vmany
p9789
S'JJ'
p9790
tp9791
a(Vanimals
p9792
S'NNS'
p9793
tp9794
a(Vare
p9795
S'VBP'
p9796
tp9797
a(Vthere
p9798
S'RB'
p9799
tp9800
a(Vat
p9801
S'IN'
p9802
tp9803
a(Vthe
p9804
S'DT'
p9805
tp9806
a(Vlondon
p9807
S'NN'
p9808
tp9809
a(Vzoo
p9810
g9808
tp9811
aa(lp9812
(Vwhere
p9813
S'WRB'
p9814
tp9815
a(Vis
p9816
S'VBZ'
p9817
tp9818
a(Vindependence
p9819
S'NN'
p9820
tp9821
a(Vhall
p9822
g9820
tp9823
a(Vlocated
p9824
S'VBD'
p9825
tp9826
aa(lp9827
(Vwhen
p9828
S'WRB'
p9829
tp9830
a(Vwas
p9831
S'VBD'
p9832
tp9833
a(Vmark
p9834
S'NN'
p9835
tp9836
a(Vmckinney
p9837
g9835
tp9838
a(Vborn
p9839
S'VBN'
p9840
tp9841
aa(lp9842
(Vwhen
p9843
S'WRB'
p9844
tp9845
a(Vwere
p9846
S'VBD'
p9847
tp9848
a(Vritz
p9849
S'JJ'
p9850
tp9851
a(Vcrackers
p9852
S'NNS'
p9853
tp9854
a(Vintroduced
p9855
S'VBD'
p9856
tp9857
aa(lp9858
(Vwhen
p9859
S'WRB'
p9860
tp9861
a(Vwas
p9862
S'VBD'
p9863
tp9864
a(Vtostitos
p9865
S'RB'
p9866
tp9867
a(Vintroduced
p9868
S'VBN'
p9869
tp9870
aa(lp9871
(Vwhat
p9872
S'WDT'
p9873
tp9874
a(Vare
p9875
S'VBP'
p9876
tp9877
a(Vsome
p9878
S'DT'
p9879
tp9880
a(Vperiodicals
p9881
S'NNS'
p9882
tp9883
a(Von
p9884
S'IN'
p9885
tp9886
a(Vcomputer
p9887
S'NN'
p9888
tp9889
a(Vscience
p9890
S'NN'
p9891
tp9892
aa(lp9893
(Vin
p9894
S'IN'
p9895
tp9896
a(Vwhat
p9897
S'WP'
p9898
tp9899
a(Vyear
p9900
S'NN'
p9901
tp9902
a(Vdid
p9903
S'VBD'
p9904
tp9905
a(Vmotorola
p9906
S'NNS'
p9907
tp9908
a(Vhave
p9909
S'VB'
p9910
tp9911
a(Vthe
p9912
S'DT'
p9913
tp9914
a(Vmost
p9915
S'RBS'
p9916
tp9917
a(Vrevenue
p9918
S'NN'
p9919
tp9920
aa(lp9921
(Vhow
p9922
S'WRB'
p9923
tp9924
a(Vmany
p9925
S'JJ'
p9926
tp9927
a(Vother
p9928
S'JJ'
p9929
tp9930
a(Vnames
p9931
S'NNS'
p9932
tp9933
a(Vis
p9934
S'VBZ'
p9935
tp9936
a(Vprostate
p9937
S'JJ'
p9938
tp9939
a(Vcancer
p9940
S'NN'
p9941
tp9942
a(Vknown
p9943
S'VBN'
p9944
tp9945
a(Vas
p9946
S'IN'
p9947
tp9948
aa(lp9949
(Vwho
p9950
S'WP'
p9951
tp9952
a(Vare
p9953
S'VBP'
p9954
tp9955
a(Vthe
p9956
S'DT'
p9957
tp9958
a(Vcreators
p9959
S'NNS'
p9960
tp9961
a(Vof
p9962
S'IN'
p9963
tp9964
a(Vteenage
p9965
S'NN'
p9966
tp9967
a(Vmutant
p9968
S'JJ'
p9969
tp9970
a(Vninja
p9971
g9966
tp9972
a(Vturtles
p9973
g9960
tp9974
aa(lp9975
(Vwho
p9976
S'WP'
p9977
tp9978
a(Vproposed
p9979
S'VBD'
p9980
tp9981
a(Vthe
p9982
S'DT'
p9983
tp9984
a(Vfifth
p9985
S'JJ'
p9986
tp9987
a(Vamendment
p9988
S'NN'
p9989
tp9990
aa(lp9991
(Vwhat
p9992
S'WP'
p9993
tp9994
a(Vprogramming
p9995
S'NN'
p9996
tp9997
a(Vlanguages
p9998
S'NNS'
p9999
tp10000
a(Vwere
p10001
S'VBD'
p10002
tp10003
a(Vused
p10004
S'VBN'
p10005
tp10006
a(Vfor
p10007
S'IN'
p10008
tp10009
a(Vaol
p10010
S'JJ'
p10011
tp10012
a(Vinstant
p10013
g10011
tp10014
a(Vmessenger
p10015
g9996
tp10016
aa(lp10017
(Vhow
p10018
S'WRB'
p10019
tp10020
a(Vmany
p10021
S'JJ'
p10022
tp10023
a(Vawards
p10024
S'NNS'
p10025
tp10026
a(Vdid
p10027
S'VBD'
p10028
tp10029
a(Vsesame
p10030
S'JJ'
p10031
tp10032
a(Vstreet
p10033
S'NN'
p10034
tp10035
a(Vwin
p10036
g10025
tp10037
aa(lp10038
(Vin
p10039
S'IN'
p10040
tp10041
a(Vwhat
p10042
S'WP'
p10043
tp10044
a(Vdivision
p10045
S'NN'
p10046
tp10047
a(Vare
p10048
S'VBP'
p10049
tp10050
a(Vthe
p10051
S'DT'
p10052
tp10053
a(Vst.
p10054
S'JJ'
p10055
tp10056
a(Vlouis
p10057
S'NN'
p10058
tp10059
a(Vcardinals
p10060
S'NNS'
p10061
tp10062
aa(lp10063
(Vwhat
p10064
S'WDT'
p10065
tp10066
a(Vare
p10067
S'VBP'
p10068
tp10069
a(Vthe
p10070
S'DT'
p10071
tp10072
a(Vdna
p10073
S'JJ'
p10074
tp10075
a(Vcodons
p10076
S'NNS'
p10077
tp10078
a(Vof
p10079
S'IN'
p10080
tp10081
a(Vglutamine
p10082
S'NN'
p10083
tp10084
aa(lp10085
(Vhow
p10086
S'WRB'
p10087
tp10088
a(Vmany
p10089
S'JJ'
p10090
tp10091
a(Vus
p10092
S'PRP'
p10093
tp10094
a(Vsupreme
p10095
S'JJ'
p10096
tp10097
a(Vcourt
p10098
S'NN'
p10099
tp10100
a(Vcases
p10101
S'NNS'
p10102
tp10103
a(Vhave
p10104
S'VBP'
p10105
tp10106
a(Vthere
p10107
S'RB'
p10108
tp10109
a(Vbeen
p10110
S'VBN'
p10111
tp10112
aa(lp10113
(Vwho
p10114
S'WP'
p10115
tp10116
a(Vis
p10117
S'VBZ'
p10118
tp10119
a(Vcurrently
p10120
S'RB'
p10121
tp10122
a(Vnumber
p10123
S'NN'
p10124
tp10125
a(V6
p10126
S'CD'
p10127
tp10128
a(Von
p10129
S'IN'
p10130
tp10131
a(Vthe
p10132
S'DT'
p10133
tp10134
a(Vwashington
p10135
S'NN'
p10136
tp10137
a(Vwizards
p10138
S'NNS'
p10139
tp10140
aa(lp10141
(Vwhat
p10142
S'WP'
p10143
tp10144
a(Vmakes
p10145
S'VBZ'
p10146
tp10147
a(Vdoes
p10148
S'VBZ'
p10149
tp10150
a(Vford
p10151
S'NNS'
p10152
tp10153
a(Vhave
p10154
S'VB'
p10155
tp10156
aa(lp10157
(Vwhat
p10158
S'WDT'
p10159
tp10160
a(Vare
p10161
S'VBP'
p10162
tp10163
a(Vsome
p10164
S'DT'
p10165
tp10166
a(Vfilms
p10167
S'NNS'
p10168
tp10169
a(Von
p10170
S'IN'
p10171
tp10172
a(Vthe
p10173
S'DT'
p10174
tp10175
a(Vapollo
p10176
S'JJ'
p10177
tp10178
a(V11
p10179
S'CD'
p10180
tp10181
a(Vmission
p10182
S'NN'
p10183
tp10184
aa(lp10185
(Vwhat
p10186
S'WDT'
p10187
tp10188
a(Vare
p10189
S'VBP'
p10190
tp10191
a(Vsome
p10192
S'DT'
p10193
tp10194
a(Vbooks
p10195
S'NNS'
p10196
tp10197
a(Vabout
p10198
S'IN'
p10199
tp10200
a(Vart
p10201
S'NN'
p10202
tp10203
a(Vdeco
p10204
g10202
tp10205
aa(lp10206
(Vwhat
p10207
S'WP'
p10208
tp10209
a(Vis
p10210
S'VBZ'
p10211
tp10212
a(Vthe
p10213
S'DT'
p10214
tp10215
a(Vofficial
p10216
S'JJ'
p10217
tp10218
a(Vlanguage
p10219
S'NN'
p10220
tp10221
a(Vof
p10222
S'IN'
p10223
tp10224
a(Vmauritania
p10225
S'NN'
p10226
tp10227
aa(lp10228
(Vwhat
p10229
S'WP'
p10230
tp10231
a(Vcities
p10232
S'NNS'
p10233
tp10234
a(Vdoes
p10235
S'VBZ'
p10236
tp10237
a(Vus
p10238
S'PRP'
p10239
tp10240
a(Vinterstate
p10241
S'VB'
p10242
tp10243
a(V5
p10244
S'CD'
p10245
tp10246
a(Vpass
p10247
S'NN'
p10248
tp10249
aa(lp10250
(Vhow
p10251
S'WRB'
p10252
tp10253
a(Vmany
p10254
S'JJ'
p10255
tp10256
a(Vpeople
p10257
S'NNS'
p10258
tp10259
a(Vcollect
p10260
S'VBP'
p10261
tp10262
a(Vautomobiles
p10263
S'NNS'
p10264
tp10265
aa(lp10266
(Vhow
p10267
S'WRB'
p10268
tp10269
a(Vmany
p10270
S'JJ'
p10271
tp10272
a(Vparent
p10273
S'NN'
p10274
tp10275
a(Vtypes
p10276
S'NNS'
p10277
tp10278
a(Vdoes
p10279
S'VBZ'
p10280
tp10281
a(Vigneous
p10282
S'JJ'
p10283
tp10284
a(Vrock
p10285
g10274
tp10286
a(Vhave
p10287
S'VBP'
p10288
tp10289
aa(lp10290
(Vwhat
p10291
S'WP'
p10292
tp10293
a(Vis
p10294
S'VBZ'
p10295
tp10296
a(Vthe
p10297
S'DT'
p10298
tp10299
a(Vpiston
p10300
S'NN'
p10301
tp10302
a(Vconfiguration
p10303
g10301
tp10304
a(Vof
p10305
S'IN'
p10306
tp10307
a(g19
S'DT'
p10308
tp10309
a(Vford
p10310
g10301
tp10311
a(Vmodel
p10312
g10301
tp10313
a(Vt
p10314
S'CD'
p10315
tp10316
a(Vengine
p10317
S'NN'
p10318
tp10319
aa(lp10320
(Vwhat
p10321
S'WP'
p10322
tp10323
a(Vdigital
p10324
S'JJ'
p10325
tp10326
a(Vcameras
p10327
S'NNS'
p10328
tp10329
a(Vtake
p10330
S'VBP'
p10331
tp10332
a(Van
p10333
S'DT'
p10334
tp10335
a(Vsdhc
p10336
S'NN'
p10337
tp10338
a(Vcard
p10339
g10337
tp10340
aa(lp10341
(Vwhere
p10342
S'WRB'
p10343
tp10344
a(Vis
p10345
S'VBZ'
p10346
tp10347
a(Vthe
p10348
S'DT'
p10349
tp10350
a(Vuss
p10351
S'JJ'
p10352
tp10353
a(Valabama
p10354
S'NN'
p10355
tp10356
a(Vcurrently
p10357
S'RB'
p10358
tp10359
a(Vmoored
p10360
S'VBD'
p10361
tp10362
aa(lp10363
(Vwhat
p10364
S'WDT'
p10365
tp10366
a(Vare
p10367
S'VBP'
p10368
tp10369
a(Vthe
p10370
S'DT'
p10371
tp10372
a(Vdivisions
p10373
S'NNS'
p10374
tp10375
a(Vof
p10376
S'IN'
p10377
tp10378
a(Vthe
p10379
g10371
tp10380
a(Vwestern
p10381
S'JJ'
p10382
tp10383
a(Vconference
p10384
S'NN'
p10385
tp10386
a(Vof
p10387
g10377
tp10388
a(Vthe
p10389
g10371
tp10390
a(Vnhl
p10391
S'NN'
p10392
tp10393
aa(lp10394
(Vwhat
p10395
S'WDT'
p10396
tp10397
a(Vwere
p10398
S'VBD'
p10399
tp10400
a(Vthe
p10401
S'DT'
p10402
tp10403
a(Vhighest
p10404
S'JJS'
p10405
tp10406
a(Vwind
p10407
S'NN'
p10408
tp10409
a(Vspeeds
p10410
S'NNS'
p10411
tp10412
a(Vin
p10413
S'IN'
p10414
tp10415
a(Vhurricane
p10416
g10408
tp10417
a(Vkatrina
p10418
g10408
tp10419
aa(lp10420
(Vhow
p10421
S'WRB'
p10422
tp10423
a(Vlong
p10424
S'JJ'
p10425
tp10426
a(Voverall
p10427
g10425
tp10428
a(Vis
p10429
S'VBZ'
p10430
tp10431
a(Vthe
p10432
S'DT'
p10433
tp10434
a(Vtahina
p10435
S'NN'
p10436
tp10437
aa(lp10438
(Vwhen
p10439
S'WRB'
p10440
tp10441
a(Vwas
p10442
S'VBD'
p10443
tp10444
a(Vthe
p10445
S'DT'
p10446
tp10447
a(Vmark
p10448
S'NN'
p10449
tp10450
a(Vvii
p10451
g10449
tp10452
a(Vmonorail
p10453
g10449
tp10454
a(Vintroduced
p10455
g10443
tp10456
aa(lp10457
(Vwhere
p10458
S'WRB'
p10459
tp10460
a(Vis
p10461
S'VBZ'
p10462
tp10463
a(Vwalden
p10464
S'JJ'
p10465
tp10466
a(Vpond
p10467
S'NN'
p10468
tp10469
a(Vlocated
p10470
S'VBN'
p10471
tp10472
aa(lp10473
(Vwhat
p10474
S'WP'
p10475
tp10476
a(Vdiseases
p10477
S'VBZ'
p10478
tp10479
a(Vis
p10480
S'VBZ'
p10481
tp10482
a(Vfatigue
p10483
S'VBN'
p10484
tp10485
a(g19
S'DT'
p10486
tp10487
a(Vsymptom
p10488
S'NN'
p10489
tp10490
a(Vof
p10491
S'IN'
p10492
tp10493
aa(lp10494
(Vwhat
p10495
S'WP'
p10496
tp10497
a(Vrock
p10498
S'NN'
p10499
tp10500
a(Vformations
p10501
S'NNS'
p10502
tp10503
a(Vformed
p10504
S'VBN'
p10505
tp10506
a(Vin
p10507
S'IN'
p10508
tp10509
a(Vthe
p10510
S'DT'
p10511
tp10512
a(Vbarremian
p10513
S'JJ'
p10514
tp10515
a(Vperiod
p10516
S'NN'
p10517
tp10518
aa(lp10519
(Vwhat
p10520
S'WP'
p10521
tp10522
a(Vis
p10523
S'VBZ'
p10524
tp10525
a(Vjcpenney
p10526
S'NN'
p10527
tp10528
a(V's
p10529
S'POS'
p10530
tp10531
a(Voperating
p10532
g10527
tp10533
a(Vincome
p10534
S'NN'
p10535
tp10536
aa(lp10537
(Vwhat
p10538
S'WP'
p10539
tp10540
a(Vtypes
p10541
S'VBZ'
p10542
tp10543
a(Vof
p10544
S'IN'
p10545
tp10546
a(Vjudaism
p10547
S'NN'
p10548
tp10549
a(Vare
p10550
S'VBP'
p10551
tp10552
a(Vthere
p10553
S'RB'
p10554
tp10555
aa(lp10556
(Vhow
p10557
S'WRB'
p10558
tp10559
a(Vmany
p10560
S'JJ'
p10561
tp10562
a(Vfilm
p10563
S'NN'
p10564
tp10565
a(Vperformances
p10566
S'NNS'
p10567
tp10568
a(Vdid
p10569
S'VBD'
p10570
tp10571
a(Vron
p10572
S'VB'
p10573
tp10574
a(Vglass
p10575
S'NN'
p10576
tp10577
a(Vdo
p10578
g10573
tp10579
aa(lp10580
(Vwhere
p10581
S'WRB'
p10582
tp10583
a(Vwas
p10584
S'VBD'
p10585
tp10586
a(Vthe
p10587
S'DT'
p10588
tp10589
a(Vuss
p10590
S'JJ'
p10591
tp10592
a(Vconstitution
p10593
S'NN'
p10594
tp10595
a(Vbuilt
p10596
g10585
tp10597
aa(lp10598
(Vwhat
p10599
S'WP'
p10600
tp10601
a(Vtreatments
p10602
S'NNS'
p10603
tp10604
a(Vare
p10605
S'VBP'
p10606
tp10607
a(Vthere
p10608
S'RB'
p10609
tp10610
a(Vfor
p10611
S'IN'
p10612
tp10613
a(Vleukemia
p10614
S'NN'
p10615
tp10616
aa(lp10617
(Vwhat
p10618
S'WP'
p10619
tp10620
a(Vkind
p10621
S'NN'
p10622
tp10623
a(Vof
p10624
S'IN'
p10625
tp10626
a(Vwebsite
p10627
S'NN'
p10628
tp10629
a(Vis
p10630
S'VBZ'
p10631
tp10632
a(Vbing
p10633
S'VBG'
p10634
tp10635
aa(lp10636
(Vwhen
p10637
S'WRB'
p10638
tp10639
a(Vdid
p10640
S'VBD'
p10641
tp10642
a(Vthe
p10643
S'DT'
p10644
tp10645
a(Vstandard
p10646
S'JJ'
p10647
tp10648
a(Vschool
p10649
S'NN'
p10650
tp10651
a(Vbroadcast
p10652
g10647
tp10653
a(Vstart
p10654
S'NN'
p10655
tp10656
a(Vproduction
p10657
S'NN'
p10658
tp10659
aa(lp10660
(Vwhat
p10661
S'WDT'
p10662
tp10663
a(Vare
p10664
S'VBP'
p10665
tp10666
a(Vthe
p10667
S'DT'
p10668
tp10669
a(Vrides
p10670
S'NNS'
p10671
tp10672
a(Vat
p10673
S'IN'
p10674
tp10675
a(Vsix
p10676
S'CD'
p10677
tp10678
a(Vflags
p10679
g10671
tp10680
a(Vamerica
p10681
S'VBP'
p10682
tp10683
aa(lp10684
(Vwhere
p10685
S'WRB'
p10686
tp10687
a(Vdid
p10688
S'VBD'
p10689
tp10690
a(Vomarion
p10691
S'NN'
p10692
tp10693
a(V's
p10694
S'POS'
p10695
tp10696
a(Vmusical
p10697
S'JJ'
p10698
tp10699
a(Vcareer
p10700
g10692
tp10701
a(Vbegin
p10702
g10692
tp10703
aa(lp10704
(Vhow
p10705
S'WRB'
p10706
tp10707
a(Vmany
p10708
S'JJ'
p10709
tp10710
a(Vtracks
p10711
S'NNS'
p10712
tp10713
a(Vhas
p10714
S'VBZ'
p10715
tp10716
a(Vthe
p10717
S'DT'
p10718
tp10719
a(Vband
p10720
S'NN'
p10721
tp10722
a(Vrecorded
p10723
S'VBD'
p10724
tp10725
aa(lp10726
(Vwhat
p10727
S'WP'
p10728
tp10729
a(Varticles
p10730
S'NNS'
p10731
tp10732
a(Vare
p10733
S'VBP'
p10734
tp10735
a(Vin
p10736
S'IN'
p10737
tp10738
a(Vthe
p10739
S'DT'
p10740
tp10741
a(Vjuly
p10742
S'NN'
p10743
tp10744
a(V1967
p10745
S'CD'
p10746
tp10747
a(Vissue
p10748
g10743
tp10749
a(Vof
p10750
S'IN'
p10751
tp10752
a(Vfrontier
p10753
S'JJR'
p10754
tp10755
a(Vtimes
p10756
g10731
tp10757
aa(lp10758
(Vwhat
p10759
S'WP'
p10760
tp10761
a(Vspecies
p10762
S'VBZ'
p10763
tp10764
a(Vis
p10765
S'VBZ'
p10766
tp10767
a(Vspock
p10768
S'NN'
p10769
tp10770
aa(lp10771
(Vhow
p10772
S'WRB'
p10773
tp10774
a(Vmany
p10775
S'JJ'
p10776
tp10777
a(Vknights
p10778
S'NNS'
p10779
tp10780
a(Vof
p10781
S'IN'
p10782
tp10783
a(Vthe
p10784
S'DT'
p10785
tp10786
a(Vgarter
p10787
S'NN'
p10788
tp10789
a(Vdid
p10790
S'VBD'
p10791
tp10792
a(Vthe
p10793
g10785
tp10794
a(Vorder
p10795
S'NN'
p10796
tp10797
a(Vof
p10798
g10782
tp10799
a(Vthe
p10800
g10785
tp10801
a(Vgarter
p10802
g10788
tp10803
a(Vhave
p10804
S'VBP'
p10805
tp10806
aa(lp10807
(Vwhen
p10808
S'WRB'
p10809
tp10810
a(Vdid
p10811
S'VBD'
p10812
tp10813
a(Vcharlie_s
p10814
S'NN'
p10815
tp10816
a(Vangels
p10817
S'NNS'
p10818
tp10819
a(Vcome
p10820
S'VBP'
p10821
tp10822
a(Vout
p10823
S'RP'
p10824
tp10825
aa(lp10826
(Vat
p10827
S'IN'
p10828
tp10829
a(Vwhat
p10830
S'WP'
p10831
tp10832
a(Vage
p10833
S'NN'
p10834
tp10835
a(Vto
p10836
S'TO'
p10837
tp10838
a(Vkids
p10839
S'VB'
p10840
tp10841
a(Vusually
p10842
S'RB'
p10843
tp10844
a(Vstart
p10845
S'JJ'
p10846
tp10847
a(Vsecond
p10848
g10846
tp10849
a(Vgrade
p10850
S'NN'
p10851
tp10852
aa(lp10853
(Vwhen
p10854
S'WRB'
p10855
tp10856
a(Vwas
p10857
S'VBD'
p10858
tp10859
a(Vyosemite
p10860
S'JJ'
p10861
tp10862
a(Vnational
p10863
S'JJ'
p10864
tp10865
a(Vpark
p10866
S'NN'
p10867
tp10868
a(Vdesignated
p10869
S'VBN'
p10870
tp10871
a(Vas
p10872
S'IN'
p10873
tp10874
a(g19
S'DT'
p10875
tp10876
a(Vprotected
p10877
g10861
tp10878
a(Vplace
p10879
g10867
tp10880
aa(lp10881
(Vwhat
p10882
S'WP'
p10883
tp10884
a(Vsubstancs
p10885
S'NN'
p10886
tp10887
a(Vhas
p10888
S'VBZ'
p10889
tp10890
a(Vrobert
p10891
S'VBN'
p10892
tp10893
a(Vdowney
p10894
S'NNP'
p10895
tp10896
a(Vjr
p10897
g10886
tp10898
a(Vabused
p10899
S'VBD'
p10900
tp10901
aa(lp10902
(Vwhat
p10903
S'WP'
p10904
tp10905
a(Vdid
p10906
S'VBD'
p10907
tp10908
a(Velizabeth
p10909
S'VB'
p10910
tp10911
a(Vii
p10912
S'NN'
p10913
tp10914
a(Vcollect
p10915
g10913
tp10916
aa(lp10917
(Vwho
p10918
S'WP'
p10919
tp10920
a(Vowned
p10921
S'VBD'
p10922
tp10923
a(Vdoritos
p10924
S'NNS'
p10925
tp10926
aa(lp10927
(Vhow
p10928
S'WRB'
p10929
tp10930
a(Vmany
p10931
S'JJ'
p10932
tp10933
a(Vsub-types
p10934
S'NNS'
p10935
tp10936
a(Vof
p10937
S'IN'
p10938
tp10939
a(Vmetamorphic
p10940
S'JJ'
p10941
tp10942
a(Vrock
p10943
S'NN'
p10944
tp10945
a(Vare
p10946
S'VBP'
p10947
tp10948
a(Vthere
p10949
S'RB'
p10950
tp10951
aa(lp10952
(Vwhat
p10953
S'WP'
p10954
tp10955
a(Vspecies
p10956
S'VBZ'
p10957
tp10958
a(Vis
p10959
S'VBZ'
p10960
tp10961
a(Vthe
p10962
S'DT'
p10963
tp10964
a(Vdoctor
p10965
S'NN'
p10966
tp10967
aa(lp10968
(Vwhen
p10969
S'WRB'
p10970
tp10971
a(Vdid
p10972
S'VBD'
p10973
tp10974
a(Vchips
p10975
S'NNS'
p10976
tp10977
a(Vahoy
p10978
S'VB'
p10979
tp10980
a(Vdebut
p10981
S'NN'
p10982
tp10983
aa(lp10984
(Vwhat
p10985
S'WP'
p10986
tp10987
a(Vis
p10988
S'VBZ'
p10989
tp10990
a(Vthe
p10991
S'DT'
p10992
tp10993
a(Vprice
p10994
S'NN'
p10995
tp10996
a(Vof
p10997
S'IN'
p10998
tp10999
a(g19
S'DT'
p11000
tp11001
a(V2012
p11002
S'CD'
p11003
tp11004
a(Vjeep
p11005
S'NN'
p11006
tp11007
a(Vwrangler
p11008
g11006
tp11009
a(Vsport
p11010
g11006
tp11011
aa(lp11012
(Vhow
p11013
S'WRB'
p11014
tp11015
a(Vmany
p11016
S'JJ'
p11017
tp11018
a(Vnominations
p11019
S'NNS'
p11020
tp11021
a(Vdid
p11022
S'VBD'
p11023
tp11024
a(Vnutty
p11025
S'RB'
p11026
tp11027
a(Vprofessor
p11028
S'NN'
p11029
tp11030
a(Vhave
p11031
S'VBP'
p11032
tp11033
aa(lp11034
(Vwhat
p11035
S'WP'
p11036
tp11037
a(Vcompanies
p11038
S'NNS'
p11039
tp11040
a(Vproduce
p11041
S'VBP'
p11042
tp11043
a(Vsmartphones
p11044
S'NNS'
p11045
tp11046
aa(lp11047
(Vhow
p11048
S'WRB'
p11049
tp11050
a(Vmany
p11051
S'JJ'
p11052
tp11053
a(Vfrench
p11054
S'JJ'
p11055
tp11056
a(Voperas
p11057
S'NNS'
p11058
tp11059
a(Vare
p11060
S'VBP'
p11061
tp11062
a(Vthere
p11063
S'RB'
p11064
tp11065
aa(lp11066
(Vwhat
p11067
S'WP'
p11068
tp11069
a(Vis
p11070
S'VBZ'
p11071
tp11072
a(Vthe
p11073
S'DT'
p11074
tp11075
a(Vpopulation
p11076
S'NN'
p11077
tp11078
a(Vof
p11079
S'IN'
p11080
tp11081
a(Vthe
p11082
g11074
tp11083
a(Vpeople
p11084
S'NNS'
p11085
tp11086
a(Von
p11087
S'IN'
p11088
tp11089
a(Vthe
p11090
g11074
tp11091
a(Vearth
p11092
g11077
tp11093
aa(lp11094
(Vwhat
p11095
S'WP'
p11096
tp11097
a(Vopera
p11098
S'NN'
p11099
tp11100
a(Vdid
p11101
S'VBD'
p11102
tp11103
a(Vjonathan
p11104
S'VB'
p11105
tp11106
a(Vmiller
p11107
g11099
tp11108
a(Vdirect
p11109
g11099
tp11110
aa(lp11111
(Vwhat
p11112
S'WDT'
p11113
tp11114
a(Vare
p11115
S'VBP'
p11116
tp11117
a(Vsome
p11118
S'DT'
p11119
tp11120
a(Vtypes
p11121
S'NNS'
p11122
tp11123
a(Vof
p11124
S'IN'
p11125
tp11126
a(Vhats
p11127
g11122
tp11128
aa(lp11129
(Vwhen
p11130
S'WRB'
p11131
tp11132
a(Vwas
p11133
S'VBD'
p11134
tp11135
a(Vscope
p11136
S'NN'
p11137
tp11138
a(Vintroduced
p11139
g11134
tp11140
aa(lp11141
(Vwhat
p11142
S'WP'
p11143
tp11144
a(Vaward
p11145
S'NN'
p11146
tp11147
a(Vdid
p11148
S'VBD'
p11149
tp11150
a(Vjack
p11151
g11146
tp11152
a(Valbertson
p11153
g11146
tp11154
a(Vwin
p11155
g11146
tp11156
a(Vin
p11157
S'IN'
p11158
tp11159
a(V1968
p11160
S'CD'
p11161
tp11162
aa(lp11163
(Vwho
p11164
S'WP'
p11165
tp11166
a(Vmakes
p11167
S'VBZ'
p11168
tp11169
a(Vup
p11170
S'RP'
p11171
tp11172
a(Vtomkat
p11173
S'NNS'
p11174
tp11175
aa(lp11176
(Vwhat
p11177
S'WP'
p11178
tp11179
a(Varea
p11180
S'NN'
p11181
tp11182
a(Vof
p11183
S'IN'
p11184
tp11185
a(Vdisneyland
p11186
S'NN'
p11187
tp11188
a(Vis
p11189
S'VBZ'
p11190
tp11191
a(Vspace
p11192
S'NN'
p11193
tp11194
a(Vmountain
p11195
g11187
tp11196
a(Vin
p11197
S'IN'
p11198
tp11199
aa(lp11200
(Vwho
p11201
S'WP'
p11202
tp11203
a(Vwas
p11204
S'VBD'
p11205
tp11206
a(Vthe
p11207
S'DT'
p11208
tp11209
a(Vmusic
p11210
S'NN'
p11211
tp11212
a(Vby
p11213
S'IN'
p11214
tp11215
a(Vin
p11216
S'IN'
p11217
tp11218
a(Vtitanic
p11219
S'NN'
p11220
tp11221
aa(lp11222
(Vwhat
p11223
S'WP'
p11224
tp11225
a(Vmilitary
p11226
S'JJ'
p11227
tp11228
a(Vbranches
p11229
S'NNS'
p11230
tp11231
a(Vuse
p11232
S'VBP'
p11233
tp11234
a(Vthe
p11235
S'DT'
p11236
tp11237
a(Vf-5
p11238
g11227
tp11239
a(Vfreedom
p11240
S'NN'
p11241
tp11242
a(Vfighter
p11243
g11241
tp11244
aa(lp11245
(Vwhat
p11246
S'WDT'
p11247
tp11248
a(Vare
p11249
S'VBP'
p11250
tp11251
a(Vthe
p11252
S'DT'
p11253
tp11254
a(Vcauses
p11255
S'NNS'
p11256
tp11257
a(Vof
p11258
S'IN'
p11259
tp11260
a(Vsyphilis
p11261
S'NN'
p11262
tp11263
aa(lp11264
(Vwhat
p11265
S'WP'
p11266
tp11267
a(Vgenre
p11268
S'NN'
p11269
tp11270
a(Vof
p11271
S'IN'
p11272
tp11273
a(Vmusic
p11274
S'NN'
p11275
tp11276
a(Vis
p11277
S'VBZ'
p11278
tp11279
a(Vb12
p11280
S'JJ'
p11281
tp11282
aa(lp11283
(Vwho
p11284
S'WP'
p11285
tp11286
a(Vdesigns
p11287
S'VBZ'
p11288
tp11289
a(Vfor
p11290
S'IN'
p11291
tp11292
a(Vbill
p11293
S'NN'
p11294
tp11295
a(Vblass
p11296
S'NN'
p11297
tp11298
a(Vlimited
p11299
S'VBD'
p11300
tp11301
aa(lp11302
(Vwhen
p11303
S'WRB'
p11304
tp11305
a(Vdid
p11306
S'VBD'
p11307
tp11308
a(Vjohn
p11309
S'VB'
p11310
tp11311
a(Vf
p11312
S'NN'
p11313
tp11314
a(Vkennedy
p11315
g11313
tp11316
a(Vdie
p11317
g11313
tp11318
aa(lp11319
(Vwho
p11320
S'WP'
p11321
tp11322
a(Vwas
p11323
S'VBD'
p11324
tp11325
a(Vvice
p11326
S'NN'
p11327
tp11328
a(Vpresident
p11329
S'NN'
p11330
tp11331
a(Vto
p11332
S'TO'
p11333
tp11334
a(Vwoodrow
p11335
S'VB'
p11336
tp11337
a(Vwilson
p11338
S'NN'
p11339
tp11340
aa(lp11341
(Vwhen
p11342
S'WRB'
p11343
tp11344
a(Vwas
p11345
S'VBD'
p11346
tp11347
a(Vborders
p11348
S'NNS'
p11349
tp11350
a(Vfounded
p11351
g11346
tp11352
aa(lp11353
(Vwho
p11354
S'WP'
p11355
tp11356
a(Vfought
p11357
S'VBD'
p11358
tp11359
a(Vin
p11360
S'IN'
p11361
tp11362
a(Vthe
p11363
S'DT'
p11364
tp11365
a(Vthe
p11366
g11364
tp11367
a(Vbattle
p11368
S'NN'
p11369
tp11370
a(Vof
p11371
S'IN'
p11372
tp11373
a(Vthe
p11374
g11364
tp11375
a(Vchampions
p11376
S'NNS'
p11377
tp11378
aa(lp11379
(Vwho
p11380
S'WP'
p11381
tp11382
a(Vwas
p11383
S'VBD'
p11384
tp11385
a(Vthe
p11386
S'DT'
p11387
tp11388
a(Vcohost
p11389
S'NN'
p11390
tp11391
a(Vin
p11392
S'IN'
p11393
tp11394
a(V1993
p11395
S'CD'
p11396
tp11397
a(Von
p11398
S'IN'
p11399
tp11400
a(Vcbs
p11401
g11390
tp11402
a(Vevening
p11403
S'VBG'
p11404
tp11405
a(Vnews
p11406
S'NN'
p11407
tp11408
aa(lp11409
(Vfor
p11410
S'IN'
p11411
tp11412
a(Vwhat
p11413
S'WP'
p11414
tp11415
a(Valbums
p11416
S'NNS'
p11417
tp11418
a(Vdid
p11419
S'VBD'
p11420
tp11421
a(Vbarack
p11422
S'VB'
p11423
tp11424
a(Vobama
p11425
S'NN'
p11426
tp11427
a(Vwin
p11428
g11423
tp11429
a(g19
S'DT'
p11430
tp11431
a(Vgrammy
p11432
S'JJ'
p11433
tp11434
a(Vaward
p11435
g11426
tp11436
a(Vfor
p11437
g11411
tp11438
a(Vbest
p11439
S'JJS'
p11440
tp11441
a(Vspoken
p11442
g11426
tp11443
a(Vword
p11444
S'NN'
p11445
tp11446
a(Valbum
p11447
g11426
tp11448
aa(lp11449
(Vhow
p11450
S'WRB'
p11451
tp11452
a(Vmany
p11453
S'JJ'
p11454
tp11455
a(Vother
p11456
S'JJ'
p11457
tp11458
a(Vnames
p11459
S'NNS'
p11460
tp11461
a(Vis
p11462
S'VBZ'
p11463
tp11464
a(Vomarion
p11465
S'JJ'
p11466
tp11467
a(Vknown
p11468
S'VBN'
p11469
tp11470
a(Vby
p11471
S'IN'
p11472
tp11473
aa(lp11474
(Vwhat
p11475
S'WP'
p11476
tp11477
a(Vpercent
p11478
S'NN'
p11479
tp11480
a(Valcohol
p11481
g11479
tp11482
a(Vis
p11483
S'VBZ'
p11484
tp11485
a(g19
S'DT'
p11486
tp11487
a(Vg.h
p11488
g11479
tp11489
a(g655
S'.'
p11490
tp11491
a(Vmumm
p11492
S'JJ'
p11493
tp11494
a(Vcordon
p11495
g11479
tp11496
a(Vrouge
p11497
g11479
tp11498
a(Vbrut
p11499
g11479
tp11500
aa(lp11501
(Vhow
p11502
S'WRB'
p11503
tp11504
a(Vmany
p11505
S'JJ'
p11506
tp11507
a(Vcountries
p11508
S'NNS'
p11509
tp11510
a(Vuse
p11511
S'VBP'
p11512
tp11513
a(Vthe
p11514
S'DT'
p11515
tp11516
a(Vindian
p11517
S'JJ'
p11518
tp11519
a(Vrupee
p11520
S'NN'
p11521
tp11522
aa(lp11523
(Vwhen
p11524
S'WRB'
p11525
tp11526
a(Vwas
p11527
S'VBD'
p11528
tp11529
a(Vthe
p11530
S'DT'
p11531
tp11532
a(Vuss
p11533
S'JJ'
p11534
tp11535
a(Vcroaker
p11536
S'NN'
p11537
tp11538
a(Vlaunched
p11539
g11528
tp11540
aa(lp11541
(Vwho
p11542
S'WP'
p11543
tp11544
a(Vis
p11545
S'VBZ'
p11546
tp11547
a(Vthe
p11548
S'DT'
p11549
tp11550
a(Vproducer
p11551
S'NN'
p11552
tp11553
a(Vfor
p11554
S'IN'
p11555
tp11556
a(V13
p11557
S'CD'
p11558
tp11559
a(Vgoing
p11560
S'VBG'
p11561
tp11562
a(Von
p11563
S'IN'
p11564
tp11565
a(V30
p11566
S'CD'
p11567
tp11568
aa(lp11569
(Vwhat
p11570
S'WP'
p11571
tp11572
a(Vis
p11573
S'VBZ'
p11574
tp11575
a(Vthe
p11576
S'DT'
p11577
tp11578
a(Vaustralian
p11579
S'JJ'
p11580
tp11581
a(Vdollar
p11582
S'NN'
p11583
tp11584
a(Vcode
p11585
S'NN'
p11586
tp11587
aa(lp11588
(Vwho
p11589
S'WP'
p11590
tp11591
a(Vcomposed
p11592
S'VBD'
p11593
tp11594
a(Vthe
p11595
S'DT'
p11596
tp11597
a(Vsong
p11598
S'NN'
p11599
tp11600
a(Vship
p11601
g11599
tp11602
a(Vof
p11603
S'IN'
p11604
tp11605
a(Vfools
p11606
S'NNS'
p11607
tp11608
aa(lp11609
(Vwhat
p11610
S'WDT'
p11611
tp11612
a(Vare
p11613
S'VBP'
p11614
tp11615
a(Vsome
p11616
S'DT'
p11617
tp11618
a(Vadaptations
p11619
S'NNS'
p11620
tp11621
a(Vof
p11622
S'IN'
p11623
tp11624
a(Vthe
p11625
S'DT'
p11626
tp11627
a(Vwonderful
p11628
S'JJ'
p11629
tp11630
a(Vwizard
p11631
S'NN'
p11632
tp11633
a(Vof
p11634
g11623
tp11635
a(Voz
p11636
g11632
tp11637
aa(lp11638
(Vwhat
p11639
S'WP'
p11640
tp11641
a(Vgeneration
p11642
S'NN'
p11643
tp11644
a(Vof
p11645
S'IN'
p11646
tp11647
a(Vmatter
p11648
S'NN'
p11649
tp11650
a(Vis
p11651
S'VBZ'
p11652
tp11653
a(g19
S'DT'
p11654
tp11655
a(Vdown
p11656
S'JJ'
p11657
tp11658
a(Vquark
p11659
g11649
tp11660
aa(lp11661
(Vwhat
p11662
S'WP'
p11663
tp11664
a(Vis
p11665
S'VBZ'
p11666
tp11667
a(Vthe
p11668
S'DT'
p11669
tp11670
a(Vmax
p11671
S'JJ'
p11672
tp11673
a(Vspeed
p11674
S'NN'
p11675
tp11676
a(Vof
p11677
S'IN'
p11678
tp11679
a(Vkingda
p11680
g11675
tp11681
a(Vka
p11682
g11675
tp11683
aa(lp11684
(Vwhat
p11685
S'WP'
p11686
tp11687
a(Vis
p11688
S'VBZ'
p11689
tp11690
a(Vron
p11691
S'JJ'
p11692
tp11693
a(Vglass
p11694
S'NN'
p11695
tp11696
a(V's
p11697
S'POS'
p11698
tp11699
a(Vplace
p11700
g11695
tp11701
a(Vof
p11702
S'IN'
p11703
tp11704
a(Vbirth
p11705
g11695
tp11706
aa(lp11707
(Vwho
p11708
S'WP'
p11709
tp11710
a(Vwas
p11711
S'VBD'
p11712
tp11713
a(Vrolling
p11714
S'VBG'
p11715
tp11716
a(Vstones
p11717
S'NNS'
p11718
tp11719
a(g2705
S'POS'
p11720
tp11721
a(Vgreatest
p11722
S'JJS'
p11723
tp11724
a(Vguitarist
p11725
S'NN'
p11726
tp11727
a(Vof
p11728
S'IN'
p11729
tp11730
a(Vall
p11731
S'DT'
p11732
tp11733
a(Vtime
p11734
S'NN'
p11735
tp11736
a(Vin
p11737
S'IN'
p11738
tp11739
a(V2003
p11740
S'CD'
p11741
tp11742
aa(lp11743
(Vwhat
p11744
S'WP'
p11745
tp11746
a(Vreligion
p11747
S'NN'
p11748
tp11749
a(Vwas
p11750
S'VBD'
p11751
tp11752
a(Vpablo
p11753
S'JJ'
p11754
tp11755
a(Vpicasso
p11756
g11748
tp11757
aa(lp11758
(Vwho
p11759
S'WP'
p11760
tp11761
a(Vis
p11762
S'VBZ'
p11763
tp11764
a(Vthe
p11765
S'DT'
p11766
tp11767
a(Vowner
p11768
S'NN'
p11769
tp11770
a(Vof
p11771
S'IN'
p11772
tp11773
a(Veasy
p11774
S'JJ'
p11775
tp11776
a(Vcheese
p11777
S'NN'
p11778
tp11779
aa(lp11780
(Vwhich
p11781
S'WDT'
p11782
tp11783
a(Vcharacters
p11784
S'NNS'
p11785
tp11786
a(Vare
p11787
S'VBP'
p11788
tp11789
a(Vplayable
p11790
S'JJ'
p11791
tp11792
a(Vin
p11793
S'IN'
p11794
tp11795
a(Vsonic
p11796
g11791
tp11797
a(Vrush
p11798
S'NN'
p11799
tp11800
aa(lp11801
(Vwho
p11802
S'WP'
p11803
tp11804
a(Vcreated
p11805
S'VBD'
p11806
tp11807
a(Vthe
p11808
S'DT'
p11809
tp11810
a(Vrunaways
p11811
S'NNS'
p11812
tp11813
a(Vcomic
p11814
S'JJ'
p11815
tp11816
a(Vbook
p11817
S'NN'
p11818
tp11819
a(Vseries
p11820
S'NN'
p11821
tp11822
aa(lp11823
(Vwhat
p11824
S'WP'
p11825
tp11826
a(Vtextiles
p11827
S'NNS'
p11828
tp11829
a(Vare
p11830
S'VBP'
p11831
tp11832
a(Vmade
p11833
S'VBN'
p11834
tp11835
a(Vfrom
p11836
S'IN'
p11837
tp11838
a(Vcotton
p11839
S'NN'
p11840
tp11841
aa(lp11842
(Vwhat
p11843
S'WP'
p11844
tp11845
a(Vis
p11846
S'VBZ'
p11847
tp11848
a(Vthe
p11849
S'DT'
p11850
tp11851
a(Vtheme
p11852
S'NN'
p11853
tp11854
a(Vsong
p11855
g11853
tp11856
a(Vof
p11857
S'IN'
p11858
tp11859
a(Vsesame
p11860
g11853
tp11861
a(Vstreet
p11862
g11853
tp11863
aa(lp11864
(Vwhat
p11865
S'WP'
p11866
tp11867
a(Vmovies
p11868
S'NNS'
p11869
tp11870
a(Vwon
p11871
S'VBD'
p11872
tp11873
a(Vthe
p11874
S'DT'
p11875
tp11876
a(Vgolden
p11877
S'JJ'
p11878
tp11879
a(Vglobe
p11880
S'NN'
p11881
tp11882
a(Vaward
p11883
g11881
tp11884
a(Vfor
p11885
S'IN'
p11886
tp11887
a(Vbest
p11888
S'JJS'
p11889
tp11890
a(Vdrama
p11891
g11881
tp11892
a(Vfilm
p11893
S'NN'
p11894
tp11895
aa(lp11896
(Vwhat
p11897
S'WDT'
p11898
tp11899
a(Vare
p11900
S'VBP'
p11901
tp11902
a(Vthe
p11903
S'DT'
p11904
tp11905
a(Vcauses
p11906
S'NNS'
p11907
tp11908
a(Vof
p11909
S'IN'
p11910
tp11911
a(g19
S'DT'
p11912
tp11913
a(Vheart
p11914
S'NN'
p11915
tp11916
a(Vattack
p11917
S'NN'
p11918
tp11919
aa(lp11920
(Vhow
p11921
S'WRB'
p11922
tp11923
a(Vmany
p11924
S'JJ'
p11925
tp11926
a(Vmain
p11927
S'JJ'
p11928
tp11929
a(Vcharacters
p11930
S'NNS'
p11931
tp11932
a(Vdid
p11933
S'VBD'
p11934
tp11935
a(Vcharlie_s
p11936
S'NN'
p11937
tp11938
a(Vangels
p11939
g11931
tp11940
a(Vhave
p11941
S'VBP'
p11942
tp11943
aa(lp11944
(Vwhat
p11945
S'WP'
p11946
tp11947
a(Vship
p11948
S'NN'
p11949
tp11950
a(Vclass
p11951
S'NN'
p11952
tp11953
a(Vis
p11954
S'VBZ'
p11955
tp11956
a(Vthe
p11957
S'DT'
p11958
tp11959
a(Vuss
p11960
S'JJ'
p11961
tp11962
a(Vcobia
p11963
g11949
tp11964
aa(lp11965
(Vhow
p11966
S'WRB'
p11967
tp11968
a(Vmany
p11969
S'JJ'
p11970
tp11971
a(Vtv
p11972
S'NN'
p11973
tp11974
a(Vshows
p11975
S'NNS'
p11976
tp11977
a(Vdid
p11978
S'VBD'
p11979
tp11980
a(Vjerry
p11981
S'JJ'
p11982
tp11983
a(Vseinfeld
p11984
g11973
tp11985
a(Vproduce
p11986
g11973
tp11987
aa(lp11988
(Vwhat
p11989
S'WP'
p11990
tp11991
a(Vrock
p11992
S'NN'
p11993
tp11994
a(Vformations
p11995
S'NNS'
p11996
tp11997
a(Vare
p11998
S'VBP'
p11999
tp12000
a(Vmade
p12001
S'VBN'
p12002
tp12003
a(Vof
p12004
S'IN'
p12005
tp12006
a(Vquartzite
p12007
g11993
tp12008
aa(lp12009
(Vwhat
p12010
S'WP'
p12011
tp12012
a(Vis
p12013
S'VBZ'
p12014
tp12015
a(Vrna
p12016
S'JJ'
p12017
tp12018
a(Vbinding
p12019
S'VBG'
p12020
tp12021
aa(lp12022
(Vwhen
p12023
S'WRB'
p12024
tp12025
a(Vdid
p12026
S'VBD'
p12027
tp12028
a(Vthe
p12029
S'DT'
p12030
tp12031
a(Vband
p12032
S'NN'
p12033
tp12034
a(Vmassive
p12035
S'JJ'
p12036
tp12037
a(Vattack
p12038
g12033
tp12039
a(Vform
p12040
g12033
tp12041
aa(lp12042
(Vwhen
p12043
S'WRB'
p12044
tp12045
a(Vis
p12046
S'VBZ'
p12047
tp12048
a(Vthe
p12049
S'DT'
p12050
tp12051
a(Vrestoration
p12052
S'NN'
p12053
tp12054
a(Vof
p12055
S'IN'
p12056
tp12057
a(Vthe
p12058
g12050
tp12059
a(Vrijksmuseum
p12060
g12053
tp12061
a(Vsupposed
p12062
S'VBD'
p12063
tp12064
a(Vto
p12065
S'TO'
p12066
tp12067
a(Vfinish
p12068
S'VB'
p12069
tp12070
aa(lp12071
(Vwho
p12072
S'WP'
p12073
tp12074
a(Vfounded
p12075
S'VBD'
p12076
tp12077
a(Vgsusa
p12078
S'NN'
p12079
tp12080
aa(lp12081
(Vhow
p12082
S'WRB'
p12083
tp12084
a(Vmany
p12085
S'JJ'
p12086
tp12087
a(Vproducts
p12088
S'NNS'
p12089
tp12090
a(Vhas
p12091
S'VBZ'
p12092
tp12093
a(Vmattel
p12094
S'NN'
p12095
tp12096
a(Vproduced
p12097
S'VBN'
p12098
tp12099
aa(lp12100
(Vwhen
p12101
S'WRB'
p12102
tp12103
a(Vwas
p12104
S'VBD'
p12105
tp12106
a(Vtechvibes
p12107
S'RB'
p12108
tp12109
a(Vstarted
p12110
S'VBN'
p12111
tp12112
aa(lp12113
(Vwho
p12114
S'WP'
p12115
tp12116
a(Vwon
p12117
S'VBD'
p12118
tp12119
a(Vthe
p12120
S'DT'
p12121
tp12122
a(V1964
p12123
S'CD'
p12124
tp12125
a(Vunited
p12126
S'JJ'
p12127
tp12128
a(Vstates
p12129
S'NNS'
p12130
tp12131
a(Vpresidential
p12132
g12127
tp12133
a(Velection
p12134
S'NN'
p12135
tp12136
aa(lp12137
(Vhow
p12138
S'WRB'
p12139
tp12140
a(Vmany
p12141
S'JJ'
p12142
tp12143
a(Vcountries
p12144
S'NNS'
p12145
tp12146
a(Vare
p12147
S'VBP'
p12148
tp12149
a(Vwithin
p12150
S'IN'
p12151
tp12152
a(Vnorth
p12153
S'JJ'
p12154
tp12155
a(Vamerica
p12156
S'NN'
p12157
tp12158
aa(lp12159
(Vhow
p12160
S'WRB'
p12161
tp12162
a(Vmany
p12163
S'JJ'
p12164
tp12165
a(Vfilms
p12166
S'NNS'
p12167
tp12168
a(Vare
p12169
S'VBP'
p12170
tp12171
a(Vthere
p12172
S'RB'
p12173
tp12174
a(Von
p12175
S'IN'
p12176
tp12177
a(Vantarctica
p12178
S'NN'
p12179
tp12180
aa(lp12181
(Vwhen
p12182
S'WRB'
p12183
tp12184
a(Vwas
p12185
S'VBD'
p12186
tp12187
a(Vthe
p12188
S'DT'
p12189
tp12190
a(Vgreen
p12191
S'JJ'
p12192
tp12193
a(Vparty
p12194
S'NN'
p12195
tp12196
a(Vfounded
p12197
g12186
tp12198
aa(lp12199
(Vwhen
p12200
S'WRB'
p12201
tp12202
a(Vdid
p12203
S'VBD'
p12204
tp12205
a(Vthe
p12206
S'DT'
p12207
tp12208
a(Vprincetown
p12209
S'NN'
p12210
tp12211
a(Vrailway
p12212
g12210
tp12213
a(Vclose
p12214
S'JJ'
p12215
tp12216
aa(lp12217
(Vwho
p12218
S'WP'
p12219
tp12220
a(Vare
p12221
S'VBP'
p12222
tp12223
a(Vthe
p12224
S'DT'
p12225
tp12226
a(Vcharacters
p12227
S'NNS'
p12228
tp12229
a(Vin
p12230
S'IN'
p12231
tp12232
a(Vpeanuts
p12233
g12228
tp12234
aa(lp12235
(Vhow
p12236
S'WRB'
p12237
tp12238
a(Vmuch
p12239
S'JJ'
p12240
tp12241
a(Vdanish
p12242
g12240
tp12243
a(Vkroner
p12244
S'NN'
p12245
tp12246
a(Vis
p12247
S'VBZ'
p12248
tp12249
a(g19
S'DT'
p12250
tp12251
a(Vus
p12252
S'PRP'
p12253
tp12254
a(Vdollar
p12255
S'NN'
p12256
tp12257
a(Vworth
p12258
g12245
tp12259
aa(lp12260
(Vwhat
p12261
S'WP'
p12262
tp12263
a(Vseries
p12264
S'NN'
p12265
tp12266
a(Vis
p12267
S'VBZ'
p12268
tp12269
a(g19
S'DT'
p12270
tp12271
a(Vwrinkle
p12272
S'NN'
p12273
tp12274
a(Vin
p12275
S'IN'
p12276
tp12277
a(Vtime
p12278
S'NN'
p12279
tp12280
a(g19
g12270
tp12281
a(Vpart
p12282
S'NN'
p12283
tp12284
a(Vof
p12285
S'IN'
p12286
tp12287
aa(lp12288
(Vhow
p12289
S'WRB'
p12290
tp12291
a(Vmany
p12292
S'JJ'
p12293
tp12294
a(Vsoccer
p12295
S'NN'
p12296
tp12297
a(Vplayers
p12298
S'NNS'
p12299
tp12300
a(Vare
p12301
S'VBP'
p12302
tp12303
a(Vgoalkeepers
p12304
S'NNS'
p12305
tp12306
aa(lp12307
(Vwhat
p12308
S'WP'
p12309
tp12310
a(Vsoftware
p12311
S'NN'
p12312
tp12313
a(Vhas
p12314
S'VBZ'
p12315
tp12316
a(Voracle
p12317
S'VBN'
p12318
tp12319
a(Vdesigned
p12320
g12318
tp12321
aa(lp12322
(Vhow
p12323
S'WRB'
p12324
tp12325
a(Vmuch
p12326
S'JJ'
p12327
tp12328
a(Vtime
p12329
S'NN'
p12330
tp12331
a(Vdid
p12332
S'VBD'
p12333
tp12334
a(Valan
p12335
S'RB'
p12336
tp12337
a(Vshepard
p12338
g12327
tp12339
a(Vspend
p12340
S'NN'
p12341
tp12342
a(Vin
p12343
S'IN'
p12344
tp12345
a(Vspace
p12346
S'NN'
p12347
tp12348
aa(lp12349
(Vhow
p12350
S'WRB'
p12351
tp12352
a(Vmany
p12353
S'JJ'
p12354
tp12355
a(Vhockey
p12356
S'NN'
p12357
tp12358
a(Vplayers
p12359
S'NNS'
p12360
tp12361
a(Vplay
p12362
S'VBP'
p12363
tp12364
a(Vcenter
p12365
g12357
tp12366
aa(lp12367
(Vwho
p12368
S'WP'
p12369
tp12370
a(Vis
p12371
S'VBZ'
p12372
tp12373
a(Vwells
p12374
S'NNP'
p12375
tp12376
a(Vfargo
p12377
S'NN'
p12378
tp12379
a(V's
p12380
S'POS'
p12381
tp12382
a(Vsupplier
p12383
g12378
tp12384
aa(lp12385
(Vwho
p12386
S'WP'
p12387
tp12388
a(Vwere
p12389
S'VBD'
p12390
tp12391
a(Vthe
p12392
S'DT'
p12393
tp12394
a(Vmembers
p12395
S'NNS'
p12396
tp12397
a(Vof
p12398
S'IN'
p12399
tp12400
a(Vthe
p12401
g12393
tp12402
a(Vsoul
p12403
S'NN'
p12404
tp12405
a(Vstirrers
p12406
S'NNS'
p12407
tp12408
aa(lp12409
(Vwhere
p12410
S'WRB'
p12411
tp12412
a(Vdo
p12413
S'VB'
p12414
tp12415
a(Vthe
p12416
S'DT'
p12417
tp12418
a(Vdenver
p12419
S'NN'
p12420
tp12421
a(Vspurs
p12422
S'VBZ'
p12423
tp12424
a(Vplay
p12425
g12420
tp12426
aa(lp12427
(Vwho
p12428
S'WP'
p12429
tp12430
a(Vwon
p12431
S'VBD'
p12432
tp12433
a(Vbest
p12434
S'JJS'
p12435
tp12436
a(Vmovie
p12437
S'NN'
p12438
tp12439
a(Vof
p12440
S'IN'
p12441
tp12442
a(V2010
p12443
S'CD'
p12444
tp12445
aa(lp12446
(Vwhat
p12447
S'WP'
p12448
tp12449
a(Vhospitals
p12450
S'VBZ'
p12451
tp12452
a(Vspecialize
p12453
S'NN'
p12454
tp12455
a(Vin
p12456
S'IN'
p12457
tp12458
a(Vcardiology
p12459
g12454
tp12460
aa(lp12461
(Vwhen
p12462
S'WRB'
p12463
tp12464
a(Vwas
p12465
S'VBD'
p12466
tp12467
a(Vhank
p12468
S'VBN'
p12469
tp12470
a(Vaaron
p12471
S'RB'
p12472
tp12473
a(Vinducted
p12474
g12469
tp12475
a(Vinto
p12476
S'IN'
p12477
tp12478
a(Vthe
p12479
S'DT'
p12480
tp12481
a(Vhall
p12482
S'NN'
p12483
tp12484
a(Vof
p12485
S'IN'
p12486
tp12487
a(Vfame
p12488
g12483
tp12489
aa(lp12490
(Vwhat
p12491
S'WP'
p12492
tp12493
a(Vblog
p12494
S'NN'
p12495
tp12496
a(Vdoes
p12497
S'VBZ'
p12498
tp12499
a(Vrobert
p12500
S'VB'
p12501
tp12502
a(Vscoble
p12503
S'JJ'
p12504
tp12505
a(Vwrite
p12506
g12495
tp12507
aa(lp12508
(Vwhen
p12509
S'WRB'
p12510
tp12511
a(Vwas
p12512
S'VBD'
p12513
tp12514
a(Vgirl
p12515
S'VBN'
p12516
tp12517
a(Vscouts
p12518
S'NNS'
p12519
tp12520
a(Vof
p12521
S'IN'
p12522
tp12523
a(Vthe
p12524
S'DT'
p12525
tp12526
a(Vusa
p12527
S'NN'
p12528
tp12529
a(Vfounded
p12530
g12513
tp12531
aa(lp12532
(Vwhat
p12533
S'WP'
p12534
tp12535
a(Vis
p12536
S'VBZ'
p12537
tp12538
a(Vthe
p12539
S'DT'
p12540
tp12541
a(Vatomic
p12542
S'JJ'
p12543
tp12544
a(Vnumber
p12545
S'NN'
p12546
tp12547
a(Vof
p12548
S'IN'
p12549
tp12550
a(Vsilicon
p12551
S'NN'
p12552
tp12553
aa(lp12554
(Vwhen
p12555
S'WRB'
p12556
tp12557
a(Vdid
p12558
S'VBD'
p12559
tp12560
a(Vthe
p12561
S'DT'
p12562
tp12563
a(Vrenaissance
p12564
S'NN'
p12565
tp12566
a(Vbegin
p12567
g12565
tp12568
aa(lp12569
(Vwhat
p12570
S'WP'
p12571
tp12572
a(Vyear
p12573
S'NN'
p12574
tp12575
a(Vwas
p12576
S'VBD'
p12577
tp12578
a(Vdanny
p12579
S'JJ'
p12580
tp12581
a(Vdevito
p12582
S'NN'
p12583
tp12584
a(Vborn
p12585
g12583
tp12586
aa(lp12587
(Vhow
p12588
S'WRB'
p12589
tp12590
a(Vmuch
p12591
S'RB'
p12592
tp12593
a(Vdid
p12594
S'VBD'
p12595
tp12596
a(Vtransformers
p12597
S'NNS'
p12598
tp12599
a(Vcost
p12600
S'NN'
p12601
tp12602
a(Vto
p12603
S'TO'
p12604
tp12605
a(Vproduce
p12606
S'VB'
p12607
tp12608
aa(lp12609
(Vwhere
p12610
S'WRB'
p12611
tp12612
a(Vis
p12613
S'VBZ'
p12614
tp12615
a(Vthe
p12616
S'DT'
p12617
tp12618
a(Vguardian
p12619
S'JJ'
p12620
tp12621
a(Vcirculated
p12622
S'VBD'
p12623
tp12624
aa(lp12625
(Vwhat
p12626
S'WP'
p12627
tp12628
a(Vtype
p12629
S'NN'
p12630
tp12631
a(Vof
p12632
S'IN'
p12633
tp12634
a(Vbeer
p12635
S'NN'
p12636
tp12637
a(Vis
p12638
S'VBZ'
p12639
tp12640
a(Vmiller
p12641
S'RBS'
p12642
tp12643
a(Vlite
p12644
S'JJ'
p12645
tp12646
aa(lp12647
(Vwhat
p12648
S'WP'
p12649
tp12650
a(Vis
p12651
S'VBZ'
p12652
tp12653
a(Vthe
p12654
S'DT'
p12655
tp12656
a(Vtemperature
p12657
S'NN'
p12658
tp12659
a(Vof
p12660
S'IN'
p12661
tp12662
a(Vpolaris
p12663
g12658
tp12664
aa(lp12665
(Vwhat
p12666
S'WDT'
p12667
tp12668
a(Vare
p12669
S'VBP'
p12670
tp12671
a(Vdave
p12672
S'JJ'
p12673
tp12674
a(Vgrohl
p12675
S'NN'
p12676
tp12677
a(V's
p12678
S'POS'
p12679
tp12680
a(Vmusical
p12681
g12673
tp12682
a(Vgenres
p12683
S'NNS'
p12684
tp12685
aa(lp12686
(Vwhat
p12687
S'WP'
p12688
tp12689
a(Vis
p12690
S'VBZ'
p12691
tp12692
a(Vcurrency
p12693
S'NN'
p12694
tp12695
a(Vcode
p12696
S'NN'
p12697
tp12698
a(Vfor
p12699
S'IN'
p12700
tp12701
a(Vthe
p12702
S'DT'
p12703
tp12704
a(Vsingapore
p12705
g12697
tp12706
a(Vdollar
p12707
S'NN'
p12708
tp12709
aa(lp12710
(Vwhat
p12711
S'WP'
p12712
tp12713
a(Vmovies
p12714
S'NNS'
p12715
tp12716
a(Vwon
p12717
S'VBD'
p12718
tp12719
a(Vascap
p12720
S'NN'
p12721
tp12722
a(Vfilm
p12723
S'NN'
p12724
tp12725
a(Vand
p12726
S'CC'
p12727
tp12728
a(Vtelevision
p12729
S'NN'
p12730
tp12731
a(Vmusic
p12732
S'NN'
p12733
tp12734
a(Vawards
p12735
S'NNS'
p12736
tp12737
a(Vfor
p12738
S'IN'
p12739
tp12740
a(Vmost
p12741
S'JJS'
p12742
tp12743
a(Vperformed
p12744
S'JJ'
p12745
tp12746
a(Vsongs
p12747
g12736
tp12748
a(Vfrom
p12749
S'IN'
p12750
tp12751
a(Vmotion
p12752
g12721
tp12753
a(Vpictures
p12754
g12736
tp12755
aa(lp12756
(Vwhat
p12757
S'WP'
p12758
tp12759
a(Vis
p12760
S'VBZ'
p12761
tp12762
a(Vthe
p12763
S'DT'
p12764
tp12765
a(Vscientific
p12766
S'JJ'
p12767
tp12768
a(Vname
p12769
S'NN'
p12770
tp12771
a(Vfor
p12772
S'IN'
p12773
tp12774
a(g19
S'DT'
p12775
tp12776
a(Vhorse
p12777
g12770
tp12778
aa(lp12779
(Vwhat
p12780
S'WP'
p12781
tp12782
a(Vartists
p12783
S'VBZ'
p12784
tp12785
a(Vare
p12786
S'VBP'
p12787
tp12788
a(Vinfluenced
p12789
S'VBN'
p12790
tp12791
a(Vby
p12792
S'IN'
p12793
tp12794
a(Vlead
p12795
S'NN'
p12796
tp12797
a(Vbelly
p12798
S'RB'
p12799
tp12800
aa(lp12801
(Vhow
p12802
S'WRB'
p12803
tp12804
a(Vmany
p12805
S'JJ'
p12806
tp12807
a(Vfilm
p12808
S'NN'
p12809
tp12810
a(Vproductions
p12811
S'NNS'
p12812
tp12813
a(Vdid
p12814
S'VBD'
p12815
tp12816
a(Vhayden
p12817
S'VB'
p12818
tp12819
a(Vpanettiere
p12820
S'RB'
p12821
tp12822
a(Vappear
p12823
S'VBP'
p12824
tp12825
a(Vin
p12826
S'IN'
p12827
tp12828
aa(lp12829
(Vwhat
p12830
S'WP'
p12831
tp12832
a(Vis
p12833
S'VBZ'
p12834
tp12835
a(Vcurrency
p12836
S'NN'
p12837
tp12838
a(Vcode
p12839
S'NN'
p12840
tp12841
a(Vfor
p12842
S'IN'
p12843
tp12844
a(Vthe
p12845
S'DT'
p12846
tp12847
a(Vswedish
p12848
S'JJ'
p12849
tp12850
a(Vkrona
p12851
g12840
tp12852
aa(lp12853
(Vwho
p12854
S'WP'
p12855
tp12856
a(Vcoaches
p12857
S'VBZ'
p12858
tp12859
a(Vthe
p12860
S'DT'
p12861
tp12862
a(Vtoronto
p12863
S'NN'
p12864
tp12865
a(Vmaple
p12866
g12864
tp12867
a(Vleafs
p12868
g12864
tp12869
aa(lp12870
(Vwho
p12871
S'WP'
p12872
tp12873
a(Vwas
p12874
S'VBD'
p12875
tp12876
a(Vtitanic
p12877
S'JJ'
p12878
tp12879
a(Vproduced
p12880
S'VBN'
p12881
tp12882
a(Vby
p12883
S'IN'
p12884
tp12885
aa(lp12886
(Vhow
p12887
S'WRB'
p12888
tp12889
a(Vmany
p12890
S'JJ'
p12891
tp12892
a(Vtopics
p12893
S'NNS'
p12894
tp12895
a(Vare
p12896
S'VBP'
p12897
tp12898
a(Vequivalent
p12899
S'JJ'
p12900
tp12901
a(Vto
p12902
S'TO'
p12903
tp12904
a(Vcity/town/village
p12905
S'VB'
p12906
tp12907
aa(lp12908
(Vwhat
p12909
S'WDT'
p12910
tp12911
a(Vare
p12912
S'VBP'
p12913
tp12914
a(Vsome
p12915
S'DT'
p12916
tp12917
a(Vcajun
p12918
S'NN'
p12919
tp12920
a(Vdishes
p12921
S'NNS'
p12922
tp12923
aa(lp12924
(Vwho
p12925
S'WP'
p12926
tp12927
a(Vdid
p12928
S'VBD'
p12929
tp12930
a(Vthe
p12931
S'DT'
p12932
tp12933
a(Vcover
p12934
S'NN'
p12935
tp12936
a(Vart
p12937
g12935
tp12938
a(Vfor
p12939
S'IN'
p12940
tp12941
a(Vbatman
p12942
g12935
tp12943
a(V#
p12944
S'#'
p12945
tp12946
a(V477
p12947
S'CD'
p12948
tp12949
aa(lp12950
(Vhow
p12951
S'WRB'
p12952
tp12953
a(Vmany
p12954
S'JJ'
p12955
tp12956
a(Vcountries
p12957
S'NNS'
p12958
tp12959
a(Vuse
p12960
S'VBP'
p12961
tp12962
a(Veuros
p12963
S'NNS'
p12964
tp12965
aa(lp12966
(Vhow
p12967
S'WRB'
p12968
tp12969
a(Vmany
p12970
S'JJ'
p12971
tp12972
a(Vstorms
p12973
S'NNS'
p12974
tp12975
a(Vwere
p12976
S'VBD'
p12977
tp12978
a(Vin
p12979
S'IN'
p12980
tp12981
a(Vthe
p12982
S'DT'
p12983
tp12984
a(V2005
p12985
S'CD'
p12986
tp12987
a(Vatlantic
p12988
S'JJ'
p12989
tp12990
a(Vhurricane
p12991
S'NN'
p12992
tp12993
a(Vseason
p12994
S'NN'
p12995
tp12996
aa(lp12997
(Vwhat
p12998
S'WDT'
p12999
tp13000
a(Vwas
p13001
S'VBD'
p13002
tp13003
a(Vthe
p13004
S'DT'
p13005
tp13006
a(Vstrongest
p13007
S'JJS'
p13008
tp13009
a(Vstorm
p13010
S'NN'
p13011
tp13012
a(Vin
p13013
S'IN'
p13014
tp13015
a(Vthe
p13016
g13005
tp13017
a(V1992
p13018
S'CD'
p13019
tp13020
a(Vatlantic
p13021
S'JJ'
p13022
tp13023
a(Vhurricane
p13024
g13011
tp13025
a(Vseason
p13026
S'NN'
p13027
tp13028
aa(lp13029
(Vwhen
p13030
S'WRB'
p13031
tp13032
a(Vdid
p13033
S'VBD'
p13034
tp13035
a(Vthe
p13036
S'DT'
p13037
tp13038
a(Vapple
p13039
S'NN'
p13040
tp13041
a(g6952
S'NN'
p13042
tp13043
a(Vstop
p13044
S'VBP'
p13045
tp13046
a(Vbeing
p13047
S'VBG'
p13048
tp13049
a(Vsold
p13050
S'VBN'
p13051
tp13052
aa(lp13053
(Vwho
p13054
S'WP'
p13055
tp13056
a(Vhas
p13057
S'VBZ'
p13058
tp13059
a(Vheld
p13060
S'VBN'
p13061
tp13062
a(Vthe
p13063
S'DT'
p13064
tp13065
a(Vtitle
p13066
S'NN'
p13067
tp13068
a(Vof
p13069
S'IN'
p13070
tp13071
a(Vwba
p13072
S'JJ'
p13073
tp13074
a(Vworld
p13075
S'NN'
p13076
tp13077
a(Vchampion
p13078
g13067
tp13079
aa(lp13080
(Vwho
p13081
S'WP'
p13082
tp13083
a(Vstudied
p13084
S'VBD'
p13085
tp13086
a(Vmartial
p13087
S'JJ'
p13088
tp13089
a(Varts
p13090
S'NNS'
p13091
tp13092
a(Vunder
p13093
S'IN'
p13094
tp13095
a(Vyip
p13096
S'NN'
p13097
tp13098
a(Vman
p13099
S'NN'
p13100
tp13101
aa(lp13102
(Vhow
p13103
S'WRB'
p13104
tp13105
a(Vmany
p13106
S'JJ'
p13107
tp13108
a(Vlosses
p13109
S'NNS'
p13110
tp13111
a(Vhas
p13112
S'VBZ'
p13113
tp13114
a(Vsean
p13115
S'VBN'
p13116
tp13117
a(Vmiller
p13118
S'NN'
p13119
tp13120
a(Vhad
p13121
S'VBD'
p13122
tp13123
a(Vin
p13124
S'IN'
p13125
tp13126
a(Vhis
p13127
S'PRP$'
p13128
tp13129
a(Vcareer
p13130
g13119
tp13131
aa(lp13132
(Vwho
p13133
S'WP'
p13134
tp13135
a(Vwrote
p13136
S'VBD'
p13137
tp13138
a(Vtravels
p13139
S'NNS'
p13140
tp13141
a(Vwith
p13142
S'IN'
p13143
tp13144
a(Vmy
p13145
S'PRP$'
p13146
tp13147
a(Vcello
p13148
S'NN'
p13149
tp13150
aa(lp13151
(Vwho
p13152
S'WP'
p13153
tp13154
a(Vwere
p13155
S'VBD'
p13156
tp13157
a(Vthe
p13158
S'DT'
p13159
tp13160
a(Vparents
p13161
S'NNS'
p13162
tp13163
a(Vof
p13164
S'IN'
p13165
tp13166
a(Vferdinand
p13167
S'NN'
p13168
tp13169
a(Vii
p13170
g13168
tp13171
aa(lp13172
(Vwho
p13173
S'WP'
p13174
tp13175
a(Voperates
p13176
S'VBZ'
p13177
tp13178
a(Vthe
p13179
S'DT'
p13180
tp13181
a(Vsilver
p13182
S'NN'
p13183
tp13184
a(Vstar
p13185
g13183
tp13186
a(Vrailway
p13187
g13183
tp13188
aa(lp13189
(Vwhat
p13190
S'WP'
p13191
tp13192
a(Vlabels
p13193
S'VBZ'
p13194
tp13195
a(Vdoes
p13196
S'VBZ'
p13197
tp13198
a(Vsarah
p13199
S'VB'
p13200
tp13201
a(Vjessica
p13202
S'NN'
p13203
tp13204
a(Vparker
p13205
g13203
tp13206
a(Vwear
p13207
g13203
tp13208
aa(lp13209
(Vwhat
p13210
S'WP'
p13211
tp13212
a(Vawards
p13213
S'VBZ'
p13214
tp13215
a(Vhas
p13216
S'VBZ'
p13217
tp13218
a(Vlost
p13219
S'VBN'
p13220
tp13221
a(Vwon
p13222
S'NNS'
p13223
tp13224
aa(lp13225
(Vwhat
p13226
S'WP'
p13227
tp13228
a(Vingredients
p13229
S'NNS'
p13230
tp13231
a(Vare
p13232
S'VBP'
p13233
tp13234
a(Vin
p13235
S'IN'
p13236
tp13237
a(Vitalian
p13238
S'JJ'
p13239
tp13240
a(Vcuisine
p13241
S'NN'
p13242
tp13243
aa(lp13244
(Vwhat
p13245
S'WP'
p13246
tp13247
a(Vis
p13248
S'VBZ'
p13249
tp13250
a(Vthe
p13251
S'DT'
p13252
tp13253
a(Vmax
p13254
S'JJ'
p13255
tp13256
a(Vspeed
p13257
S'NN'
p13258
tp13259
a(Vof
p13260
S'IN'
p13261
tp13262
a(g19
S'DT'
p13263
tp13264
a(Vcollins
p13265
S'NNS'
p13266
tp13267
a(Vclass
p13268
S'NN'
p13269
tp13270
a(Vsubmarine
p13271
g13258
tp13272
aa(lp13273
(Vwhat
p13274
S'WP'
p13275
tp13276
a(Vcountry
p13277
S'NN'
p13278
tp13279
a(Vdoes
p13280
S'VBZ'
p13281
tp13282
a(Vthe
p13283
S'DT'
p13284
tp13285
a(Vroyal
p13286
S'NN'
p13287
tp13288
a(Vnavy
p13289
S'RB'
p13290
tp13291
a(Vbelong
p13292
g13290
tp13293
a(Vto
p13294
S'TO'
p13295
tp13296
aa(lp13297
(Vwho
p13298
S'WP'
p13299
tp13300
a(Vplayed
p13301
S'VBD'
p13302
tp13303
a(Vin
p13304
S'IN'
p13305
tp13306
a(Vthe
p13307
S'DT'
p13308
tp13309
a(V1973
p13310
S'CD'
p13311
tp13312
a(Vfa
p13313
S'JJ'
p13314
tp13315
a(Vcup
p13316
S'NN'
p13317
tp13318
a(Vfinal
p13319
S'JJ'
p13320
tp13321
aa(lp13322
(Vhow
p13323
S'WRB'
p13324
tp13325
a(Vmany
p13326
S'JJ'
p13327
tp13328
a(Vteams
p13329
S'NNS'
p13330
tp13331
a(Vdid
p13332
S'VBD'
p13333
tp13334
a(Vjim
p13335
S'NN'
p13336
tp13337
a(Vthorpe
p13338
g13336
tp13339
a(Vplay
p13340
g13336
tp13341
a(Vfor
p13342
S'IN'
p13343
tp13344
aa(lp13345
(Vwhat
p13346
S'WDT'
p13347
tp13348
a(Vare
p13349
S'VBP'
p13350
tp13351
a(Vsacred
p13352
S'JJ'
p13353
tp13354
a(Vsites
p13355
S'NNS'
p13356
tp13357
a(Vin
p13358
S'IN'
p13359
tp13360
a(Vsunni
p13361
S'NN'
p13362
tp13363
a(Vislam
p13364
g13362
tp13365
aa(lp13366
(Vwho
p13367
S'WP'
p13368
tp13369
a(Vproduced
p13370
S'VBD'
p13371
tp13372
a(Vcountry
p13373
S'NN'
p13374
tp13375
a(Vtime
p13376
S'NN'
p13377
tp13378
aa(lp13379
(Vwhat
p13380
S'WDT'
p13381
tp13382
a(Vare
p13383
S'VBP'
p13384
tp13385
a(Vsome
p13386
S'DT'
p13387
tp13388
a(Vgerman
p13389
S'JJ'
p13390
tp13391
a(Vbeers
p13392
S'NNS'
p13393
tp13394
aa(lp13395
(Vwhat
p13396
S'WP'
p13397
tp13398
a(Vis
p13399
S'VBZ'
p13400
tp13401
a(Vthe
p13402
S'DT'
p13403
tp13404
a(Vcurrency
p13405
S'NN'
p13406
tp13407
a(Vcode
p13408
S'NN'
p13409
tp13410
a(Vfor
p13411
S'IN'
p13412
tp13413
a(Vthe
p13414
g13403
tp13415
a(Vindonesian
p13416
S'JJ'
p13417
tp13418
a(Vrupiah
p13419
g13409
tp13420
aa(lp13421
(Vwhat
p13422
S'WP'
p13423
tp13424
a(Vis
p13425
S'VBZ'
p13426
tp13427
a(Vsarah
p13428
S'JJ'
p13429
tp13430
a(Vjessica
p13431
S'NN'
p13432
tp13433
a(Vparker
p13434
g13432
tp13435
a(V's
p13436
S'POS'
p13437
tp13438
a(Vhobby
p13439
g13432
tp13440
aa(lp13441
(Vwhat
p13442
S'WP'
p13443
tp13444
a(Vfictional
p13445
S'JJ'
p13446
tp13447
a(Vcharacters
p13448
S'NNS'
p13449
tp13450
a(Vhave
p13451
S'VBP'
p13452
tp13453
a(Vattended
p13454
S'VBN'
p13455
tp13456
a(Voxford
p13457
S'NN'
p13458
tp13459
aa(lp13460
(Vhow
p13461
S'WRB'
p13462
tp13463
a(Vmany
p13464
S'JJ'
p13465
tp13466
a(Vpeople
p13467
S'NNS'
p13468
tp13469
a(Vdied
p13470
S'VBD'
p13471
tp13472
a(Vin
p13473
S'IN'
p13474
tp13475
a(Vthe
p13476
S'DT'
p13477
tp13478
a(Vboston
p13479
S'NN'
p13480
tp13481
a(Vmolasses
p13482
S'VBZ'
p13483
tp13484
a(Vdisaster
p13485
g13480
tp13486
aa(lp13487
(Vwhat
p13488
S'WP'
p13489
tp13490
a(Vposition
p13491
S'NN'
p13492
tp13493
a(Vdoes
p13494
S'VBZ'
p13495
tp13496
a(Vkeyon
p13497
S'VB'
p13498
tp13499
a(Vdooling
p13500
S'VBG'
p13501
tp13502
a(Vplay
p13503
S'NN'
p13504
tp13505
aa(lp13506
(Vhow
p13507
S'WRB'
p13508
tp13509
a(Vmany
p13510
S'JJ'
p13511
tp13512
a(Voscar
p13513
S'NN'
p13514
tp13515
a(Vshows
p13516
S'NNS'
p13517
tp13518
a(Vdid
p13519
S'VBD'
p13520
tp13521
a(Vfrank
p13522
S'JJ'
p13523
tp13524
a(Vsinatra
p13525
g13514
tp13526
a(Vhost
p13527
g13514
tp13528
aa(lp13529
(Vwhere
p13530
S'WRB'
p13531
tp13532
a(Vwas
p13533
S'VBD'
p13534
tp13535
a(Vthe
p13536
S'DT'
p13537
tp13538
a(Vcross
p13539
S'NN'
p13540
tp13541
a(Vof
p13542
S'IN'
p13543
tp13544
a(Vgold
p13545
g13540
tp13546
a(Vspeech
p13547
g13540
tp13548
a(Vpresented
p13549
g13534
tp13550
aa(lp13551
(Vwhen
p13552
S'WRB'
p13553
tp13554
a(Vdid
p13555
S'VBD'
p13556
tp13557
a(Vhurricane
p13558
S'NN'
p13559
tp13560
a(Vandrew
p13561
g13559
tp13562
a(Vform
p13563
g13559
tp13564
aa(lp13565
(Vwho
p13566
S'WP'
p13567
tp13568
a(Vdesigned
p13569
S'VBD'
p13570
tp13571
a(Vthe
p13572
S'DT'
p13573
tp13574
a(Vrolls-royce
p13575
S'JJ'
p13576
tp13577
a(Vwelland
p13578
S'NN'
p13579
tp13580
aa(lp13581
(Vhow
p13582
S'WRB'
p13583
tp13584
a(Vmany
p13585
S'JJ'
p13586
tp13587
a(Vcancer
p13588
S'NN'
p13589
tp13590
a(Vcenters
p13591
S'NNS'
p13592
tp13593
a(Vare
p13594
S'VBP'
p13595
tp13596
a(Vcomprehensive
p13597
S'JJ'
p13598
tp13599
aa(lp13600
(Vhow
p13601
S'WRB'
p13602
tp13603
a(Vmany
p13604
S'JJ'
p13605
tp13606
a(Valbums
p13607
S'NNS'
p13608
tp13609
a(Vhas
p13610
S'VBZ'
p13611
tp13612
a(Vfleet
p13613
S'VBN'
p13614
tp13615
a(Vfoxes
p13616
g13608
tp13617
a(Vreleased
p13618
S'VBD'
p13619
tp13620
aa(lp13621
(Vwhat
p13622
S'WP'
p13623
tp13624
a(Vis
p13625
S'VBZ'
p13626
tp13627
a(Vthe
p13628
S'DT'
p13629
tp13630
a(Vearth
p13631
S'NN'
p13632
tp13633
a(V's
p13634
S'POS'
p13635
tp13636
a(Varea
p13637
S'NN'
p13638
tp13639
aa(lp13640
(Vhow
p13641
S'WRB'
p13642
tp13643
a(Vmany
p13644
S'JJ'
p13645
tp13646
a(Vother
p13647
S'JJ'
p13648
tp13649
a(Vnames
p13650
S'NNS'
p13651
tp13652
a(Vare
p13653
S'VBP'
p13654
tp13655
a(Vthere
p13656
S'RB'
p13657
tp13658
a(Vfor
p13659
S'IN'
p13660
tp13661
a(Vthe
p13662
S'DT'
p13663
tp13664
a(Vusa_s
p13665
S'JJ'
p13666
tp13667
a(Vcurrency
p13668
S'NN'
p13669
tp13670
aa(lp13671
(Vwho
p13672
S'WP'
p13673
tp13674
a(Vhas
p13675
S'VBZ'
p13676
tp13677
a(Vportrayed
p13678
S'VBN'
p13679
tp13680
a(Vjames
p13681
S'NNS'
p13682
tp13683
a(Vbond
p13684
S'NN'
p13685
tp13686
a(Vin
p13687
S'IN'
p13688
tp13689
a(Vfilm
p13690
S'NN'
p13691
tp13692
aa(lp13693
(Vwhat
p13694
S'WP'
p13695
tp13696
a(Vis
p13697
S'VBZ'
p13698
tp13699
a(Vthe
p13700
S'DT'
p13701
tp13702
a(Vslogan
p13703
S'NN'
p13704
tp13705
a(Vof
p13706
S'IN'
p13707
tp13708
a(Vbmw
p13709
g13704
tp13710
aa(lp13711
(Vwhen
p13712
S'WRB'
p13713
tp13714
a(Vdid
p13715
S'VBD'
p13716
tp13717
a(Vrobin
p13718
S'VB'
p13719
tp13720
a(Vwilliams
p13721
S'NNS'
p13722
tp13723
a(Vstop
p13724
g13719
tp13725
a(Vabusing
p13726
S'VBG'
p13727
tp13728
a(Vcocaine
p13729
S'NN'
p13730
tp13731
aa(lp13732
(Vhow
p13733
S'WRB'
p13734
tp13735
a(Vtall
p13736
S'NN'
p13737
tp13738
a(Vis
p13739
S'VBZ'
p13740
tp13741
a(Vthe
p13742
S'DT'
p13743
tp13744
a(Vyou
p13745
S'PRP'
p13746
tp13747
a(Vonly
p13748
S'RB'
p13749
tp13750
a(Vlive
p13751
S'VBP'
p13752
tp13753
a(Vonce
p13754
g13749
tp13755
a(Vimage
p13756
S'NN'
p13757
tp13758
aa(lp13759
(Vwhat
p13760
S'WP'
p13761
tp13762
a(Vis
p13763
S'VBZ'
p13764
tp13765
a(Vthe
p13766
S'DT'
p13767
tp13768
a(Vvoltage
p13769
S'NN'
p13770
tp13771
a(Vof
p13772
S'IN'
p13773
tp13774
a(g19
S'DT'
p13775
tp13776
a(Vaa
p13777
S'JJ'
p13778
tp13779
a(Valkaline
p13780
g13770
tp13781
a(Vbattery
p13782
g13770
tp13783
aa(lp13784
(Vhow
p13785
S'WRB'
p13786
tp13787
a(Vmany
p13788
S'JJ'
p13789
tp13790
a(Vstages
p13791
S'NNS'
p13792
tp13793
a(Vof
p13794
S'IN'
p13795
tp13796
a(Vbreast
p13797
S'NN'
p13798
tp13799
a(Vcancer
p13800
S'NN'
p13801
tp13802
a(Vare
p13803
S'VBP'
p13804
tp13805
a(Vthere
p13806
S'RB'
p13807
tp13808
aa(lp13809
(Vwhat
p13810
S'WP'
p13811
tp13812
a(Vlanguages
p13813
S'VBZ'
p13814
tp13815
a(Vare
p13816
S'VBP'
p13817
tp13818
a(Vspoken
p13819
S'VBN'
p13820
tp13821
a(Vin
p13822
S'IN'
p13823
tp13824
a(Vfirefly
p13825
S'NN'
p13826
tp13827
aa(lp13828
(Vwhen
p13829
S'WRB'
p13830
tp13831
a(Vwas
p13832
S'VBD'
p13833
tp13834
a(Vthe
p13835
S'DT'
p13836
tp13837
a(Vfrida
p13838
S'JJ'
p13839
tp13840
a(Vkahlo
p13841
S'NN'
p13842
tp13843
a(Vexhibit
p13844
g13842
tp13845
a(Vat
p13846
S'IN'
p13847
tp13848
a(Vthe
p13849
g13836
tp13850
a(Vphiladelphia
p13851
g13839
tp13852
a(Vart
p13853
g13842
tp13854
a(Vmuseum
p13855
g13842
tp13856
aa(lp13857
(Vwhen
p13858
S'WRB'
p13859
tp13860
a(Vwas
p13861
S'VBD'
p13862
tp13863
a(Vstove
p13864
S'RB'
p13865
tp13866
a(Vtop
p13867
S'JJ'
p13868
tp13869
a(Vstuffing
p13870
S'NN'
p13871
tp13872
a(Vintroduced
p13873
g13862
tp13874
aa(lp13875
(Vhow
p13876
S'WRB'
p13877
tp13878
a(Vmany
p13879
S'JJ'
p13880
tp13881
a(Vunits
p13882
S'NNS'
p13883
tp13884
a(Vdoes
p13885
S'VBZ'
p13886
tp13887
a(Vthe
p13888
S'DT'
p13889
tp13890
a(Vus
p13891
S'PRP'
p13892
tp13893
a(Varmy
p13894
S'VBP'
p13895
tp13896
a(Vhave
p13897
g13895
tp13898
aa(lp13899
(Vwho
p13900
S'WP'
p13901
tp13902
a(Vwas
p13903
S'VBD'
p13904
tp13905
a(Vthe
p13906
S'DT'
p13907
tp13908
a(Vnutty
p13909
S'JJ'
p13910
tp13911
a(Vprofessor
p13912
S'NN'
p13913
tp13914
a(Vproduced
p13915
S'VBN'
p13916
tp13917
a(Vby
p13918
S'IN'
p13919
tp13920
aa(lp13921
(Vhow
p13922
S'WRB'
p13923
tp13924
a(Vmany
p13925
S'JJ'
p13926
tp13927
a(Vdocumentaries
p13928
S'NNS'
p13929
tp13930
a(Vare
p13931
S'VBP'
p13932
tp13933
a(Vthere
p13934
S'RB'
p13935
tp13936
a(Von
p13937
S'IN'
p13938
tp13939
a(Vnetflix
p13940
S'NN'
p13941
tp13942
aa(lp13943
(Vwho
p13944
S'WP'
p13945
tp13946
a(Vare
p13947
S'VBP'
p13948
tp13949
a(Vthe
p13950
S'DT'
p13951
tp13952
a(Vcurrent
p13953
S'JJ'
p13954
tp13955
a(Vsenators
p13956
S'NNS'
p13957
tp13958
a(Vof
p13959
S'IN'
p13960
tp13961
a(Vcolorado
p13962
S'NN'
p13963
tp13964
aa(lp13965
(Vhow
p13966
S'WRB'
p13967
tp13968
a(Vmany
p13969
S'JJ'
p13970
tp13971
a(Vsongs
p13972
S'NNS'
p13973
tp13974
a(Vare
p13975
S'VBP'
p13976
tp13977
a(Vthere
p13978
S'RB'
p13979
tp13980
a(Vfor
p13981
S'IN'
p13982
tp13983
a(Vguitar
p13984
S'NN'
p13985
tp13986
a(Vhero
p13987
g13985
tp13988
a(g1552
S':'
p13989
tp13990
a(Vaerosmith
p13991
g13985
tp13992
aa(lp13993
(Vwhat
p13994
S'WP'
p13995
tp13996
a(Vis
p13997
S'VBZ'
p13998
tp13999
a(Vlamarcus
p14000
S'JJ'
p14001
tp14002
a(Valdridge
p14003
S'NN'
p14004
tp14005
a(V's
p14006
S'POS'
p14007
tp14008
a(Vnumber
p14009
S'NN'
p14010
tp14011
aa(lp14012
(Vwhat
p14013
S'WDT'
p14014
tp14015
a(Vare
p14016
S'VBP'
p14017
tp14018
a(Vthe
p14019
S'DT'
p14020
tp14021
a(Vsub-types
p14022
S'NNS'
p14023
tp14024
a(Vof
p14025
S'IN'
p14026
tp14027
a(Vcoal
p14028
S'NN'
p14029
tp14030
aa(lp14031
(Vhow
p14032
S'WRB'
p14033
tp14034
a(Vmany
p14035
S'JJ'
p14036
tp14037
a(Vbooks
p14038
S'NNS'
p14039
tp14040
a(Vare
p14041
S'VBP'
p14042
tp14043
a(Vthere
p14044
S'RB'
p14045
tp14046
a(Vwritten
p14047
S'VBN'
p14048
tp14049
a(Von
p14050
S'IN'
p14051
tp14052
a(Vcomputer
p14053
S'NN'
p14054
tp14055
a(Vprogramming
p14056
S'NN'
p14057
tp14058
aa(lp14059
(Vwhere
p14060
S'WRB'
p14061
tp14062
a(Vdid
p14063
S'VBD'
p14064
tp14065
a(Vthe
p14066
S'DT'
p14067
tp14068
a(Vrolling
p14069
S'NN'
p14070
tp14071
a(Vstones
p14072
S'NNS'
p14073
tp14074
a(V2009
p14075
S'CD'
p14076
tp14077
a(Vconcert
p14078
S'JJ'
p14079
tp14080
a(Vtour
p14081
g14073
tp14082
a(Vtake
p14083
S'VBP'
p14084
tp14085
a(Vplace
p14086
g14070
tp14087
aa(lp14088
(Vwhat
p14089
S'WP'
p14090
tp14091
a(Vis
p14092
S'VBZ'
p14093
tp14094
a(Vthe
p14095
S'DT'
p14096
tp14097
a(Velectric
p14098
S'JJ'
p14099
tp14100
a(Vcharge
p14101
S'NN'
p14102
tp14103
a(Vof
p14104
S'IN'
p14105
tp14106
a(g19
S'DT'
p14107
tp14108
a(Vproton
p14109
g14102
tp14110
aa(lp14111
(Vwhen
p14112
S'WRB'
p14113
tp14114
a(Vwas
p14115
S'VBD'
p14116
tp14117
a(Vmacintosh
p14118
S'RB'
p14119
tp14120
a(Vintroduced
p14121
S'VBN'
p14122
tp14123
aa(lp14124
(Vhow
p14125
S'WRB'
p14126
tp14127
a(Vmany
p14128
S'JJ'
p14129
tp14130
a(Vworks
p14131
S'NNS'
p14132
tp14133
a(Vdid
p14134
S'VBD'
p14135
tp14136
a(Vmozart
p14137
S'VB'
p14138
tp14139
a(Vdedicate
p14140
S'NN'
p14141
tp14142
a(Vto
p14143
S'TO'
p14144
tp14145
a(Vjoseph
p14146
g14138
tp14147
a(Vhaydn
p14148
g14141
tp14149
aa(lp14150
(Vwhat
p14151
S'WP'
p14152
tp14153
a(Vis
p14154
S'VBZ'
p14155
tp14156
a(Vthe
p14157
S'DT'
p14158
tp14159
a(Vsubject
p14160
S'NN'
p14161
tp14162
a(Vof
p14163
S'IN'
p14164
tp14165
a(V13
p14166
S'CD'
p14167
tp14168
a(Vgoing
p14169
S'VBG'
p14170
tp14171
a(Von
p14172
S'IN'
p14173
tp14174
a(V30
p14175
S'CD'
p14176
tp14177
aa(lp14178
(Vwho
p14179
S'WP'
p14180
tp14181
a(Vhas
p14182
S'VBZ'
p14183
tp14184
a(Vinfluenced
p14185
S'VBN'
p14186
tp14187
a(Vstephen
p14188
S'NN'
p14189
tp14190
a(Vfry
p14191
g14189
tp14192
aa(lp14193
(Vwho
p14194
S'WP'
p14195
tp14196
a(Vis
p14197
S'VBZ'
p14198
tp14199
a(Vthe
p14200
S'DT'
p14201
tp14202
a(Vcostume
p14203
S'NN'
p14204
tp14205
a(Vdesigner
p14206
g14204
tp14207
a(Vfor
p14208
S'IN'
p14209
tp14210
a(Vbruce
p14211
g14204
tp14212
a(Valmighty
p14213
g14204
tp14214
aa(lp14215
(Vwho
p14216
S'WP'
p14217
tp14218
a(Vwrote
p14219
S'VBD'
p14220
tp14221
a(Vthe
p14222
S'DT'
p14223
tp14224
a(Vepisode
p14225
S'NN'
p14226
tp14227
a(Vstraight
p14228
S'VBD'
p14229
tp14230
a(Vand
p14231
S'CC'
p14232
tp14233
a(Vtrue
p14234
S'JJ'
p14235
tp14236
a(Vof
p14237
S'IN'
p14238
tp14239
a(Vthe
p14240
g14223
tp14241
a(Vwire
p14242
g14226
tp14243
aa.