(lp0
(lp1
(Vhow
p2
S'WRB'
p3
tp4
a(Vmany
p5
S'JJ'
p6
tp7
a(Vtv
p8
S'NN'
p9
tp10
a(Vprograms
p11
S'NNS'
p12
tp13
a(Vdid
p14
S'VBD'
p15
tp16
a(VDanny
p17
S'NNP'
p18
tp19
a(VdeVito
p20
g9
tp21
a(Vproduce
p22
g9
tp23
aa(lp24
(Vhow
p25
S'WRB'
p26
tp27
a(Vmany
p28
S'JJ'
p29
tp30
a(Vcountries
p31
S'NNS'
p32
tp33
a(Vare
p34
S'VBP'
p35
tp36
a(Vin
p37
S'IN'
p38
tp39
a(VSouth
p40
S'NNP'
p41
tp42
a(VAmerica
p43
S'NNP'
p44
tp45
aa(lp46
(Vwhat
p47
S'WP'
p48
tp49
a(Vproduct
p50
S'NN'
p51
tp52
a(Vlines
p53
S'NNS'
p54
tp55
a(Vdoes
p56
S'VBZ'
p57
tp58
a(ViPod
p59
S'VB'
p60
tp61
a(Vinclude
p62
g60
tp63
aa(lp64
(Vwhen
p65
S'WRB'
p66
tp67
a(Vwas
p68
S'VBD'
p69
tp70
a(Vstarry
p71
S'JJ'
p72
tp73
a(Vnight
p74
S'NN'
p75
tp76
a(Vpainted
p77
g69
tp78
aa(lp79
(Vwhen
p80
S'WRB'
p81
tp82
a(Vwas
p83
S'VBD'
p84
tp85
a(VInterstate
p86
S'NNP'
p87
tp88
a(V579
p89
S'CD'
p90
tp91
a(Vformed
p92
g84
tp93
aa(lp94
(Vwhat
p95
S'WP'
p96
tp97
a(Varea
p98
S'NN'
p99
tp100
a(Vdid
p101
S'VBD'
p102
tp103
a(Vthe
p104
S'DT'
p105
tp106
a(Vmeiji
p107
S'NN'
p108
tp109
a(Vconstitution
p110
g108
tp111
a(Vgovern
p112
g108
tp113
aa(lp114
(Vwho
p115
S'WP'
p116
tp117
a(Vis
p118
S'VBZ'
p119
tp120
a(Vthe
p121
S'DT'
p122
tp123
a(Vlyricist
p124
S'NN'
p125
tp126
a(Vfor
p127
S'IN'
p128
tp129
a(Vspamalot
p130
g125
tp131
aa(lp132
(Vwhat
p133
S'WP'
p134
tp135
a(Vis
p136
S'VBZ'
p137
tp138
a(VYahoo
p139
S'JJ'
p140
tp141
a(V!
p142
S'.'
p143
tp144
a(V's
p145
S'POS'
p146
tp147
a(Vslogan
p148
g140
tp149
aa(lp150
(Vwhat
p151
S'WP'
p152
tp153
a(Vis
p154
S'VBZ'
p155
tp156
a(Vthe
p157
S'DT'
p158
tp159
a(Vpopulation
p160
S'NN'
p161
tp162
a(Vof
p163
S'IN'
p164
tp165
a(VBelgium
p166
S'NNP'
p167
tp168
aa(lp169
(Vwho
p170
S'WP'
p171
tp172
a(Vis
p173
S'VBZ'
p174
tp175
a(Vthe
p176
S'DT'
p177
tp178
a(Vfounder
p179
S'NN'
p180
tp181
a(Vof
p182
S'IN'
p183
tp184
a(Vsavealot
p185
S'NN'
p186
tp187
aa(lp188
(Vwhat
p189
S'WP'
p190
tp191
a(Vlibrary
p192
S'NN'
p193
tp194
a(Vsystem
p195
S'NN'
p196
tp197
a(Vis
p198
S'VBZ'
p199
tp200
a(Vthe
p201
S'DT'
p202
tp203
a(Vsunset
p204
g193
tp205
a(Vbranch
p206
g193
tp207
a(Vlibrary
p208
g193
tp209
a(Vin
p210
S'IN'
p211
tp212
aa(lp213
(Vwhere
p214
S'WRB'
p215
tp216
a(Vwas
p217
S'VBD'
p218
tp219
a(Vthe
p220
S'DT'
p221
tp222
a(V3
p223
S'CD'
p224
tp225
a(Vjuno
p226
S'NN'
p227
tp228
a(Vasteroid
p229
g227
tp230
a(Vdiscovered
p231
g218
tp232
aa(lp233
(Vwhat
p234
S'WP'
p235
tp236
a(Vis
p237
S'VBZ'
p238
tp239
a(Vthe
p240
S'DT'
p241
tp242
a(Vpopulation
p243
S'NN'
p244
tp245
a(Vof
p246
S'IN'
p247
tp248
a(VEurope
p249
S'NNP'
p250
tp251
aa(lp252
(Vwhat
p253
S'WP'
p254
tp255
a(Vweight
p256
S'VBD'
p257
tp258
a(Vclass
p259
S'NN'
p260
tp261
a(Vwas
p262
g257
tp263
a(Vthe
p264
S'DT'
p265
tp266
a(Vfight
p267
S'NN'
p268
tp269
a(Vof
p270
S'IN'
p271
tp272
a(Vthe
p273
g265
tp274
a(Vcentury
p275
S'NN'
p276
tp277
aa(lp278
(Vwho
p279
S'WP'
p280
tp281
a(Vdesigned
p282
S'VBD'
p283
tp284
a(VPac-man
p285
S'NNP'
p286
tp287
aa(lp288
(Vwhen
p289
S'WRB'
p290
tp291
a(Vwas
p292
S'VBD'
p293
tp294
a(Vthe
p295
S'DT'
p296
tp297
a(Vorder
p298
S'NN'
p299
tp300
a(Vof
p301
S'IN'
p302
tp303
a(VSaint
p304
S'NNP'
p305
tp306
a(VMichael
p307
S'NNP'
p308
tp309
a(Vfounded
p310
g293
tp311
aa(lp312
(Vwhat
p313
S'WP'
p314
tp315
a(Vis
p316
S'VBZ'
p317
tp318
a(Vthe
p319
S'DT'
p320
tp321
a(Vcollection
p322
S'NN'
p323
tp324
a(Vof
p325
S'IN'
p326
tp327
a(Vpostcards
p328
S'NNS'
p329
tp330
a(Vcalled
p331
S'VBN'
p332
tp333
aa(lp334
(Vwhat
p335
S'WP'
p336
tp337
a(Vyear
p338
S'NN'
p339
tp340
a(Vwas
p341
S'VBD'
p342
tp343
a(VRon
p344
S'NNP'
p345
tp346
a(VGlass
p347
g345
tp348
a(Van
p349
S'DT'
p350
tp351
a(Vaward
p352
S'NN'
p353
tp354
a(Vnominee
p355
g353
tp356
aa(lp357
(Vwhat
p358
S'WP'
p359
tp360
a(V's
p361
S'VBZ'
p362
tp363
a(Vthe
p364
S'DT'
p365
tp366
a(Vhorsepower
p367
S'NN'
p368
tp369
a(Vof
p370
S'IN'
p371
tp372
a(Van
p373
S'DT'
p374
tp375
a(Valluminum-alloy
p376
S'JJ'
p377
tp378
a(Vv6
p379
g368
tp380
a(Vengine
p381
S'NN'
p382
tp383
aa(lp384
(Vwhat
p385
S'WP'
p386
tp387
a(Vcauses
p388
S'VBZ'
p389
tp390
a(Vprostate
p391
S'NN'
p392
tp393
a(Vcancer
p394
S'NN'
p395
tp396
aa(lp397
(Vwhen
p398
S'WRB'
p399
tp400
a(Vwas
p401
S'VBD'
p402
tp403
a(Vthe
p404
S'DT'
p405
tp406
a(ViPhone
p407
S'NN'
p408
tp409
a(Vintroduced
p410
g402
tp411
aa(lp412
(Vin
p413
S'IN'
p414
tp415
a(Vwhat
p416
S'WP'
p417
tp418
a(Vmartial
p419
S'JJ'
p420
tp421
a(Vart
p422
S'NN'
p423
tp424
a(Vdoes
p425
S'VBZ'
p426
tp427
a(VChristopher
p428
S'NNP'
p429
tp430
a(VAdams
p431
g429
tp432
a(Vhave
p433
S'VBP'
p434
tp435
a(Va
p436
S'DT'
p437
tp438
a(Vblack
p439
S'JJ'
p440
tp441
a(Vbelt
p442
g423
tp443
aa(lp444
(Vwho
p445
S'WP'
p446
tp447
a(Vwas
p448
S'VBD'
p449
tp450
a(Vthe
p451
S'DT'
p452
tp453
a(Vlibrettist
p454
S'NN'
p455
tp456
a(Vfor
p457
S'IN'
p458
tp459
a(Vthe
p460
g452
tp461
a(Vmagic
p462
S'JJ'
p463
tp464
a(Vflute
p465
g455
tp466
aa(lp467
(Vwhat
p468
S'WP'
p469
tp470
a(Vepisode
p471
S'NN'
p472
tp473
a(Vof
p474
S'IN'
p475
tp476
a(Vsnl
p477
g472
tp478
a(Vdid
p479
S'VBD'
p480
tp481
a(VBen
p482
S'NNP'
p483
tp484
a(VStiller
p485
g483
tp486
a(Vhost
p487
g472
tp488
aa(lp489
(Vwho
p490
S'WP'
p491
tp492
a(Vcreated
p493
S'VBD'
p494
tp495
a(Vthe
p496
S'DT'
p497
tp498
a(Vphilosopher_s
p499
S'NN'
p500
tp501
a(Vstone
p502
g500
tp503
aa(lp504
(Vhow
p505
S'WRB'
p506
tp507
a(Vmany
p508
S'JJ'
p509
tp510
a(Vorganizations
p511
S'NNS'
p512
tp513
a(Vare
p514
S'VBP'
p515
tp516
a(Vin
p517
S'IN'
p518
tp519
a(Vthe
p520
S'DT'
p521
tp522
a(Vautomobile
p523
S'NN'
p524
tp525
a(Vindustry
p526
S'NN'
p527
tp528
aa(lp529
(Vwhat
p530
S'WP'
p531
tp532
a(Vwas
p533
S'VBD'
p534
tp535
a(VProcter
p536
S'NNP'
p537
tp538
a(V&
p539
S'CC'
p540
tp541
a(VGamble
p542
g537
tp543
a(V's
p544
S'POS'
p545
tp546
a(Vnet
p547
S'JJ'
p548
tp549
a(Vprofit
p550
S'NN'
p551
tp552
a(Vin
p553
S'IN'
p554
tp555
a(V1955
p556
S'CD'
p557
tp558
aa(lp559
(Vwhat
p560
S'WP'
p561
tp562
a(Vis
p563
S'VBZ'
p564
tp565
a(Vcurrency
p566
S'NN'
p567
tp568
a(Vcode
p569
S'NN'
p570
tp571
a(Vfor
p572
S'IN'
p573
tp574
a(VUK
p575
S'NNP'
p576
tp577
a(Vcurrency
p578
g567
tp579
aa(lp580
(Vwhat
p581
S'WP'
p582
tp583
a(V's
p584
S'VBZ'
p585
tp586
a(Vthe
p587
S'DT'
p588
tp589
a(Vsymbol
p590
S'NN'
p591
tp592
a(Vfor
p593
S'IN'
p594
tp595
a(Vmercury
p596
g591
tp597
aa(lp598
(Vwhat
p599
S'WP'
p600
tp601
a(Vis
p602
S'VBZ'
p603
tp604
a(VJerry
p605
S'NNP'
p606
tp607
a(VSeinfeld
p608
g606
tp609
a(Vreligion
p610
S'NN'
p611
tp612
aa(lp613
(Vhow
p614
S'WRB'
p615
tp616
a(Vbig
p617
S'JJ'
p618
tp619
a(Vis
p620
S'VBZ'
p621
tp622
a(Vthe
p623
S'DT'
p624
tp625
a(Vscreen
p626
S'NN'
p627
tp628
a(Von
p629
S'IN'
p630
tp631
a(g436
S'DT'
p632
tp633
a(VNikon
p634
S'NNP'
p635
tp636
a(VCoolpix
p637
g635
tp638
a(VS50
p639
g635
tp640
aa(lp641
(Vhow
p642
S'WRB'
p643
tp644
a(Vmany
p645
S'JJ'
p646
tp647
a(Vspeeches
p648
S'NNS'
p649
tp650
a(Vdid
p651
S'VBD'
p652
tp653
a(VWinston
p654
S'NNP'
p655
tp656
a(VChurchill
p657
g655
tp658
a(Vgive
p659
S'VB'
p660
tp661
aa(lp662
(Vhow
p663
S'WRB'
p664
tp665
a(Vmany
p666
S'JJ'
p667
tp668
a(Vreligions
p669
S'NNS'
p670
tp671
a(Vuse
p672
S'VBP'
p673
tp674
a(Vthe
p675
S'DT'
p676
tp677
a(Vbible
p678
S'NN'
p679
tp680
aa(lp681
(Vwhat
p682
S'WP'
p683
tp684
a(Vis
p685
S'VBZ'
p686
tp687
a(Vthe
p688
S'DT'
p689
tp690
a(Vcapital
p691
S'NN'
p692
tp693
a(Vof
p694
S'IN'
p695
tp696
a(VIceland
p697
S'NNP'
p698
tp699
aa(lp700
(Vwhat
p701
S'WP'
p702
tp703
a(Vpublic
p704
S'JJ'
p705
tp706
a(Vtransportation
p707
S'NN'
p708
tp709
a(Vis
p710
S'VBZ'
p711
tp712
a(Vthere
p713
S'RB'
p714
tp715
a(Vin
p716
S'IN'
p717
tp718
a(VTokyo
p719
S'NNP'
p720
tp721
aa(lp722
(Vwhat
p723
S'WP'
p724
tp725
a(Vis
p726
S'VBZ'
p727
tp728
a(VEurope
p729
S'NNP'
p730
tp731
a(V's
p732
S'POS'
p733
tp734
a(Varea
p735
S'NN'
p736
tp737
aa(lp738
(Vhow
p739
S'WRB'
p740
tp741
a(Vmany
p742
S'JJ'
p743
tp744
a(Vplayers
p745
S'NNS'
p746
tp747
a(Vare
p748
S'VBP'
p749
tp750
a(Vin
p751
S'IN'
p752
tp753
a(Vthe
p754
S'DT'
p755
tp756
a(Vcurrent
p757
S'JJ'
p758
tp759
a(Vroster
p760
S'NN'
p761
tp762
a(Vof
p763
S'IN'
p764
tp765
a(Vthe
p766
g755
tp767
a(VNew
p768
S'NNP'
p769
tp770
a(VYork
p771
S'NNP'
p772
tp773
a(VMets
p774
S'NNP'
p775
tp776
aa(lp777
(Vwhat
p778
S'WDT'
p779
tp780
a(Vare
p781
S'VBP'
p782
tp783
a(Vthe
p784
S'DT'
p785
tp786
a(Vtreatments
p787
S'NNS'
p788
tp789
a(Vof
p790
S'IN'
p791
tp792
a(Vprostate
p793
S'NN'
p794
tp795
a(Vcancer
p796
S'NN'
p797
tp798
aa(lp799
(Vwhere
p800
S'WRB'
p801
tp802
a(Vwas
p803
S'VBD'
p804
tp805
a(Vthe
p806
S'DT'
p807
tp808
a(Vpeseta
p809
S'NN'
p810
tp811
a(Vused
p812
S'VBN'
p813
tp814
a(Vas
p815
S'IN'
p816
tp817
a(Vcurrency
p818
S'NN'
p819
tp820
aa(lp821
(Vwhat
p822
S'WP'
p823
tp824
a(Vis
p825
S'VBZ'
p826
tp827
a(Vthe
p828
S'DT'
p829
tp830
a(Vcurrency
p831
S'NN'
p832
tp833
a(Vcode
p834
S'NN'
p835
tp836
a(Vfor
p837
S'IN'
p838
tp839
a(Vthe
p840
g829
tp841
a(Vspanish
p842
S'JJ'
p843
tp844
a(Vpeseta
p845
g835
tp846
aa(lp847
(Vhow
p848
S'WRB'
p849
tp850
a(Vmany
p851
S'JJ'
p852
tp853
a(Vawards
p854
S'NNS'
p855
tp856
a(Vdid
p857
S'VBD'
p858
tp859
a(Vbig
p860
S'JJ'
p861
tp862
a(Vdaddy
p863
S'NN'
p864
tp865
a(Vwin
p866
g864
tp867
aa(lp868
(Vwhat
p869
S'WP'
p870
tp871
a(Vbridges
p872
S'VBZ'
p873
tp874
a(Vgo
p875
S'VBP'
p876
tp877
a(Vover
p878
S'IN'
p879
tp880
a(Vthe
p881
S'DT'
p882
tp883
a(VSan
p884
S'NNP'
p885
tp886
a(VFrancisco
p887
S'NNP'
p888
tp889
a(VBay
p890
S'NNP'
p891
tp892
aa(lp893
(Vhow
p894
S'WRB'
p895
tp896
a(Vmany
p897
S'JJ'
p898
tp899
a(Vnotable
p900
S'JJ'
p901
tp902
a(Vpeople
p903
S'NNS'
p904
tp905
a(Vdied
p906
S'VBN'
p907
tp908
a(Vby
p909
S'IN'
p910
tp911
a(Vpoisoning
p912
S'VBG'
p913
tp914
aa(lp915
(Vwhat
p916
S'WP'
p917
tp918
a(Vparks
p919
S'NN'
p920
tp921
a(Vare
p922
S'VBP'
p923
tp924
a(Vin
p925
S'IN'
p926
tp927
a(Vthe
p928
S'DT'
p929
tp930
a(Vcanadian
p931
S'JJ'
p932
tp933
a(Vnational
p934
S'JJ'
p935
tp936
a(Vparks
p937
g920
tp938
a(Vsystem
p939
S'NN'
p940
tp941
aa(lp942
(Vwho
p943
S'WP'
p944
tp945
a(Vinstructed
p946
S'VBD'
p947
tp948
a(VSteven
p949
S'NNP'
p950
tp951
a(VSeagal
p952
g950
tp953
aa(lp954
(Vwhen
p955
S'WRB'
p956
tp957
a(Vdid
p958
S'VBD'
p959
tp960
a(Vthe
p961
S'DT'
p962
tp963
a(Vlast
p964
S'JJ'
p965
tp966
a(Vepisode
p967
S'NN'
p968
tp969
a(Vof
p970
S'IN'
p971
tp972
a(Vsix
p973
S'CD'
p974
tp975
a(Vfeet
p976
S'NNS'
p977
tp978
a(Vunder
p979
S'IN'
p980
tp981
a(Vair
p982
g968
tp983
aa(lp984
(Vhow
p985
S'WRB'
p986
tp987
a(Vmany
p988
S'JJ'
p989
tp990
a(Vmajor
p991
S'JJ'
p992
tp993
a(Vevents
p994
S'NNS'
p995
tp996
a(Vhappened
p997
S'VBN'
p998
tp999
a(Vin
p1000
S'IN'
p1001
tp1002
a(VAustralia
p1003
S'NNP'
p1004
tp1005
aa(lp1006
(Vhow
p1007
S'WRB'
p1008
tp1009
a(Vmany
p1010
S'JJ'
p1011
tp1012
a(Vreligions
p1013
S'NNS'
p1014
tp1015
a(Vbelieve
p1016
S'VBP'
p1017
tp1018
a(Vin
p1019
S'IN'
p1020
tp1021
a(Vreincarnation
p1022
S'NN'
p1023
tp1024
aa(lp1025
(Vwhat
p1026
S'WP'
p1027
tp1028
a(Vother
p1029
S'JJ'
p1030
tp1031
a(Vtitles
p1032
S'NN'
p1033
tp1034
a(Vdoes
p1035
S'VBZ'
p1036
tp1037
a(V13
p1038
S'CD'
p1039
tp1040
a(Vgoing
p1041
S'VBG'
p1042
tp1043
a(Von
p1044
S'IN'
p1045
tp1046
a(V30
p1047
S'CD'
p1048
tp1049
a(Vhave
p1050
S'VBP'
p1051
tp1052
aa(lp1053
(Vhow
p1054
S'WRB'
p1055
tp1056
a(Vmany
p1057
S'JJ'
p1058
tp1059
a(Vwriting
p1060
S'VBG'
p1061
tp1062
a(Vsystems
p1063
S'NNS'
p1064
tp1065
a(Vare
p1066
S'VBP'
p1067
tp1068
a(Vused
p1069
S'VBN'
p1070
tp1071
a(Vin
p1072
S'IN'
p1073
tp1074
a(Vjapanese
p1075
S'JJ'
p1076
tp1077
aa(lp1078
(Vwho
p1079
S'WP'
p1080
tp1081
a(Vis
p1082
S'VBZ'
p1083
tp1084
a(Vthe
p1085
S'DT'
p1086
tp1087
a(Vceo
p1088
S'NN'
p1089
tp1090
a(Vof
p1091
S'IN'
p1092
tp1093
a(VSavealot
p1094
S'NNP'
p1095
tp1096
aa(lp1097
(Vwhat
p1098
S'WP'
p1099
tp1100
a(Vstarts
p1101
S'VBZ'
p1102
tp1103
a(Vare
p1104
S'VBP'
p1105
tp1106
a(Vin
p1107
S'IN'
p1108
tp1109
a(Vursa
p1110
S'JJ'
p1111
tp1112
a(Vminor
p1113
S'NN'
p1114
tp1115
aa(lp1116
(Vhow
p1117
S'WRB'
p1118
tp1119
a(Vmany
p1120
S'JJ'
p1121
tp1122
a(Vconferences
p1123
S'NNS'
p1124
tp1125
a(Vhave
p1126
S'VBP'
p1127
tp1128
a(Vbeen
p1129
S'VBN'
p1130
tp1131
a(Vheld
p1132
S'VBN'
p1133
tp1134
a(Vat
p1135
S'IN'
p1136
tp1137
a(Vthe
p1138
S'DT'
p1139
tp1140
a(VLos
p1141
S'NNP'
p1142
tp1143
a(VAngeles
p1144
S'NNP'
p1145
tp1146
a(Vconvention
p1147
S'NN'
p1148
tp1149
a(Vcenter
p1150
g1148
tp1151
aa(lp1152
(Vwhen
p1153
S'WRB'
p1154
tp1155
a(Vwas
p1156
S'VBD'
p1157
tp1158
a(Vdiet
p1159
S'JJ'
p1160
tp1161
a(VMountain
p1162
S'NNP'
p1163
tp1164
a(VDew
p1165
g1163
tp1166
a(Vcreated
p1167
g1157
tp1168
aa(lp1169
(Vwhat
p1170
S'WDT'
p1171
tp1172
a(Vare
p1173
S'VBP'
p1174
tp1175
a(Vsome
p1176
S'DT'
p1177
tp1178
a(Vmountain
p1179
S'NN'
p1180
tp1181
a(Vbike
p1182
S'IN'
p1183
tp1184
a(Vmodels
p1185
S'NNS'
p1186
tp1187
aa(lp1188
(Vhow
p1189
S'WRB'
p1190
tp1191
a(Vmany
p1192
S'JJ'
p1193
tp1194
a(Vfilms
p1195
S'NNS'
p1196
tp1197
a(Vhas
p1198
S'VBZ'
p1199
tp1200
a(VJulie
p1201
S'NNP'
p1202
tp1203
a(VAndrews
p1204
g1202
tp1205
a(Vbeen
p1206
S'VBN'
p1207
tp1208
a(Vin
p1209
S'IN'
p1210
tp1211
aa(lp1212
(Vwho
p1213
S'WP'
p1214
tp1215
a(Vdesigned
p1216
S'VBD'
p1217
tp1218
a(Vthe
p1219
S'DT'
p1220
tp1221
a(Vcostumes
p1222
S'NNS'
p1223
tp1224
a(Vfor
p1225
S'IN'
p1226
tp1227
a(Valice
p1228
S'NN'
p1229
tp1230
a(Vin
p1231
S'IN'
p1232
tp1233
a(Vwonderland
p1234
g1229
tp1235
aa(lp1236
(Vwhat
p1237
S'WP'
p1238
tp1239
a(Vmountain
p1240
S'NN'
p1241
tp1242
a(Vrange
p1243
g1241
tp1244
a(Vis
p1245
S'VBZ'
p1246
tp1247
a(VKing
p1248
S'VBG'
p1249
tp1250
a(VEdward
p1251
S'NNP'
p1252
tp1253
a(VPeak
p1254
S'NNP'
p1255
tp1256
a(Vin
p1257
S'IN'
p1258
tp1259
aa(lp1260
(Vwhat
p1261
S'WDT'
p1262
tp1263
a(Vare
p1264
S'VBP'
p1265
tp1266
a(Vsome
p1267
S'DT'
p1268
tp1269
a(Vhotels
p1270
S'NNS'
p1271
tp1272
a(Vin
p1273
S'IN'
p1274
tp1275
a(VVancouver
p1276
S'NNP'
p1277
tp1278
aa(lp1279
(Vwhat
p1280
S'WP'
p1281
tp1282
a(Vyear
p1283
S'NN'
p1284
tp1285
a(Vwere
p1286
S'VBD'
p1287
tp1288
a(Vthe
p1289
S'DT'
p1290
tp1291
a(VNY
p1292
S'NNP'
p1293
tp1294
a(VYankees
p1295
g1293
tp1296
a(Vfounded
p1297
S'VBD'
p1298
tp1299
aa(lp1300
(Vhow
p1301
S'WRB'
p1302
tp1303
a(Vmany
p1304
S'JJ'
p1305
tp1306
a(Vnational
p1307
S'JJ'
p1308
tp1309
a(Vparks
p1310
S'NN'
p1311
tp1312
a(Vdoes
p1313
S'VBZ'
p1314
tp1315
a(Vthe
p1316
S'DT'
p1317
tp1318
a(Vnational
p1319
g1308
tp1320
a(Vwildlife
p1321
g1311
tp1322
a(Vrefuge
p1323
g1311
tp1324
a(Vhave
p1325
S'VBP'
p1326
tp1327
aa(lp1328
(Vhow
p1329
S'WRB'
p1330
tp1331
a(Vmany
p1332
S'JJ'
p1333
tp1334
a(Vactors
p1335
S'NNS'
p1336
tp1337
a(Vuse
p1338
S'VBP'
p1339
tp1340
a(Vtheir
p1341
S'PRP$'
p1342
tp1343
a(Vmiddle
p1344
S'JJ'
p1345
tp1346
a(Vname
p1347
S'NN'
p1348
tp1349
a(Vor
p1350
S'CC'
p1351
tp1352
a(Vinitial
p1353
S'JJ'
p1354
tp1355
aa(lp1356
(Vwhere
p1357
S'WRB'
p1358
tp1359
a(Vis
p1360
S'VBZ'
p1361
tp1362
a(VFry_s
p1363
S'NNP'
p1364
tp1365
a(Vturkish
p1366
S'JJ'
p1367
tp1368
a(Vdelight
p1369
S'NN'
p1370
tp1371
a(Vsold
p1372
S'VBD'
p1373
tp1374
aa(lp1375
(Vwho
p1376
S'WP'
p1377
tp1378
a(Vinvented
p1379
S'VBD'
p1380
tp1381
a(VKoolaid
p1382
S'NNP'
p1383
tp1384
aa(lp1385
(Vwhen
p1386
S'WRB'
p1387
tp1388
a(Vwas
p1389
S'VBD'
p1390
tp1391
a(VDoritos
p1392
S'NNP'
p1393
tp1394
a(Vproduced
p1395
g1390
tp1396
aa(lp1397
(Vhow
p1398
S'WRB'
p1399
tp1400
a(Vmany
p1401
S'JJ'
p1402
tp1403
a(Vcountries
p1404
S'NNS'
p1405
tp1406
a(Vuse
p1407
S'VBP'
p1408
tp1409
a(Vthe
p1410
S'DT'
p1411
tp1412
a(Vspanish
p1413
S'JJ'
p1414
tp1415
a(Vpeseta
p1416
S'NN'
p1417
tp1418
aa(lp1419
(Vwhen
p1420
S'WRB'
p1421
tp1422
a(Vwas
p1423
S'VBD'
p1424
tp1425
a(Vthe
p1426
S'DT'
p1427
tp1428
a(VPencarrow
p1429
S'NNP'
p1430
tp1431
a(Vhead
p1432
S'NN'
p1433
tp1434
a(Vlighthouse
p1435
g1433
tp1436
a(Vfirst
p1437
S'JJ'
p1438
tp1439
a(Vlit
p1440
g1433
tp1441
aa(lp1442
(Vwhat
p1443
S'WP'
p1444
tp1445
a(Vtitles
p1446
S'VBZ'
p1447
tp1448
a(Vdoes
p1449
S'VBZ'
p1450
tp1451
a(Vthe
p1452
S'DT'
p1453
tp1454
a(VWorld
p1455
S'NNP'
p1456
tp1457
a(VBoxing
p1458
g1456
tp1459
a(VAssociation
p1460
S'NNP'
p1461
tp1462
a(Vhave
p1463
S'VBP'
p1464
tp1465
aa(lp1466
(Vhow
p1467
S'WRB'
p1468
tp1469
a(Vmany
p1470
S'JJ'
p1471
tp1472
a(Vspecies
p1473
S'NNS'
p1474
tp1475
a(Vdoes
p1476
S'VBZ'
p1477
tp1478
a(Vthe
p1479
S'DT'
p1480
tp1481
a(VSan
p1482
S'NNP'
p1483
tp1484
a(VFrancisco
p1485
S'NNP'
p1486
tp1487
a(VZoo
p1488
S'NNP'
p1489
tp1490
a(Vhave
p1491
S'VBP'
p1492
tp1493
aa(lp1494
(Vwhat
p1495
S'WP'
p1496
tp1497
a(Vround
p1498
S'NN'
p1499
tp1500
a(Vdid
p1501
S'VBD'
p1502
tp1503
a(Vthrilla
p1504
g1499
tp1505
a(Vin
p1506
S'IN'
p1507
tp1508
a(VManila
p1509
S'NNP'
p1510
tp1511
a(Vend
p1512
g1499
tp1513
aa(lp1514
(Vwhat
p1515
S'WP'
p1516
tp1517
a(Vis
p1518
S'VBZ'
p1519
tp1520
a(Vpycon
p1521
S'NN'
p1522
tp1523
a(Vabout
p1524
S'IN'
p1525
tp1526
aa(lp1527
(Vhow
p1528
S'WRB'
p1529
tp1530
a(Vmany
p1531
S'JJ'
p1532
tp1533
a(Vworks
p1534
S'NNS'
p1535
tp1536
a(Vhave
p1537
S'VBP'
p1538
tp1539
a(Vbeen
p1540
S'VBN'
p1541
tp1542
a(Vlost
p1543
S'VBN'
p1544
tp1545
a(Vdue
p1546
S'JJ'
p1547
tp1548
a(Vto
p1549
S'TO'
p1550
tp1551
a(Vtheft
p1552
S'VB'
p1553
tp1554
aa(lp1555
(Vwhat
p1556
S'WP'
p1557
tp1558
a(Varmed
p1559
S'VBD'
p1560
tp1561
a(Vforces
p1562
S'NNS'
p1563
tp1564
a(Vdoes
p1565
S'VBZ'
p1566
tp1567
a(VThailand
p1568
S'NNP'
p1569
tp1570
a(Vhave
p1571
S'VB'
p1572
tp1573
aa(lp1574
(Vwhat
p1575
S'WP'
p1576
tp1577
a(Vmartial
p1578
S'JJ'
p1579
tp1580
a(Varts
p1581
S'NNS'
p1582
tp1583
a(Vdoes
p1584
S'VBZ'
p1585
tp1586
a(VChris
p1587
S'NNP'
p1588
tp1589
a(VMaden
p1590
g1588
tp1591
a(Vpractice
p1592
S'NN'
p1593
tp1594
aa(lp1595
(Vwhen
p1596
S'WRB'
p1597
tp1598
a(Vwas
p1599
S'VBD'
p1600
tp1601
a(Vkoolaid
p1602
S'VBN'
p1603
tp1604
a(Vinvented
p1605
S'JJ'
p1606
tp1607
aa(lp1608
(Vwhat
p1609
S'WP'
p1610
tp1611
a(Vyear
p1612
S'NN'
p1613
tp1614
a(Vdid
p1615
S'VBD'
p1616
tp1617
a(Vsgt
p1618
S'NN'
p1619
tp1620
a(V.
p1621
S'.'
p1622
tp1623
a(Vpepper
p1624
g1619
tp1625
a(V's
p1626
S'POS'
p1627
tp1628
a(Vlonely
p1629
S'JJ'
p1630
tp1631
a(Vhearts
p1632
S'NNS'
p1633
tp1634
a(Vclub
p1635
g1619
tp1636
a(Vband
p1637
S'VBP'
p1638
tp1639
a(Vwin
p1640
S'VB'
p1641
tp1642
a(g436
S'DT'
p1643
tp1644
a(Vgrammy
p1645
g1619
tp1646
aa(lp1647
(Vhow
p1648
S'WRB'
p1649
tp1650
a(Vmany
p1651
S'JJ'
p1652
tp1653
a(Vislands
p1654
S'NNS'
p1655
tp1656
a(Vare
p1657
S'VBP'
p1658
tp1659
a(Vthere
p1660
S'RB'
p1661
tp1662
a(Vin
p1663
S'IN'
p1664
tp1665
a(VLake
p1666
S'NNP'
p1667
tp1668
a(VSuperior
p1669
g1667
tp1670
aa(lp1671
(Vhow
p1672
S'WRB'
p1673
tp1674
a(Vmany
p1675
S'JJ'
p1676
tp1677
a(Vcountries
p1678
S'NNS'
p1679
tp1680
a(Vis
p1681
S'VBZ'
p1682
tp1683
a(Vspanish
p1684
S'JJ'
p1685
tp1686
a(Vspoken
p1687
S'NNS'
p1688
tp1689
a(Vin
p1690
S'IN'
p1691
tp1692
aa(lp1693
(Vwhen
p1694
S'WRB'
p1695
tp1696
a(Vwas
p1697
S'VBD'
p1698
tp1699
a(Vthe
p1700
S'DT'
p1701
tp1702
a(VSS
p1703
S'NNP'
p1704
tp1705
a(VGreat
p1706
g1704
tp1707
a(VBritain
p1708
S'NNP'
p1709
tp1710
a(Vestablished
p1711
g1698
tp1712
a(Vas
p1713
S'IN'
p1714
tp1715
a(g436
S'DT'
p1716
tp1717
a(Vmuseum
p1718
S'NN'
p1719
tp1720
aa(lp1721
(Vwhat
p1722
S'WP'
p1723
tp1724
a(Vtype
p1725
S'NN'
p1726
tp1727
a(Vof
p1728
S'IN'
p1729
tp1730
a(Vrock
p1731
g1726
tp1732
a(Vis
p1733
S'VBZ'
p1734
tp1735
a(Vthe
p1736
S'DT'
p1737
tp1738
a(VMarcellus
p1739
S'NNP'
p1740
tp1741
a(Vformation
p1742
g1726
tp1743
aa(lp1744
(Vwhen
p1745
S'WRB'
p1746
tp1747
a(Vwas
p1748
S'VBD'
p1749
tp1750
a(Vcapri
p1751
S'VBN'
p1752
tp1753
a(Vsun
p1754
S'NN'
p1755
tp1756
a(Vdeveloped
p1757
g1749
tp1758
aa(lp1759
(Vwhen
p1760
S'WRB'
p1761
tp1762
a(Vwas
p1763
S'VBD'
p1764
tp1765
a(V300
p1766
S'CD'
p1767
tp1768
a(Vreleased
p1769
S'VBN'
p1770
tp1771
aa(lp1772
(Vhow
p1773
S'WRB'
p1774
tp1775
a(Vmany
p1776
S'JJ'
p1777
tp1778
a(Vwins
p1779
S'NNS'
p1780
tp1781
a(Vdid
p1782
S'VBD'
p1783
tp1784
a(Vthe
p1785
S'DT'
p1786
tp1787
a(VPhiladelphia
p1788
S'NNP'
p1789
tp1790
a(VEagles
p1791
S'NNPS'
p1792
tp1793
a(Vhave
p1794
S'VBP'
p1795
tp1796
a(Vin
p1797
S'IN'
p1798
tp1799
a(Vthe
p1800
g1786
tp1801
a(V2008
p1802
S'CD'
p1803
tp1804
a(VNFL
p1805
S'NNP'
p1806
tp1807
a(Vseason
p1808
S'NN'
p1809
tp1810
aa(lp1811
(Vwhen
p1812
S'WRB'
p1813
tp1814
a(Vwas
p1815
S'VBD'
p1816
tp1817
a(Vbarbie
p1818
S'RB'
p1819
tp1820
a(Vlaunched
p1821
S'VBN'
p1822
tp1823
aa(lp1824
(Vhow
p1825
S'WRB'
p1826
tp1827
a(Vmany
p1828
S'JJ'
p1829
tp1830
a(Vlibretti
p1831
S'VBP'
p1832
tp1833
a(Vdid
p1834
S'VBD'
p1835
tp1836
a(VWagner
p1837
S'NNP'
p1838
tp1839
a(Vwrite
p1840
S'VB'
p1841
tp1842
aa(lp1843
(Vwhat
p1844
S'WP'
p1845
tp1846
a(Vis
p1847
S'VBZ'
p1848
tp1849
a(Vbruce
p1850
S'JJ'
p1851
tp1852
a(Valmighty
p1853
S'RB'
p1854
tp1855
a(Vrated
p1856
S'VBN'
p1857
tp1858
aa(lp1859
(Vwhere
p1860
S'WRB'
p1861
tp1862
a(Vwas
p1863
S'VBD'
p1864
tp1865
a(Vlady
p1866
S'JJ'
p1867
tp1868
a(Vwashington
p1869
S'NN'
p1870
tp1871
a(Vbuilt
p1872
S'VBN'
p1873
tp1874
aa(lp1875
(Vhow
p1876
S'WRB'
p1877
tp1878
a(Vmany
p1879
S'JJ'
p1880
tp1881
a(Vdomains
p1882
S'NNS'
p1883
tp1884
a(Vare
p1885
S'VBP'
p1886
tp1887
a(Vin
p1888
S'IN'
p1889
tp1890
a(Vthe
p1891
S'DT'
p1892
tp1893
a(Vscience
p1894
S'NN'
p1895
tp1896
a(g539
S'CC'
p1897
tp1898
a(Vtechnology
p1899
S'NN'
p1900
tp1901
a(Vcategory
p1902
g1895
tp1903
aa(lp1904
(Vwhat
p1905
S'WP'
p1906
tp1907
a(Vis
p1908
S'VBZ'
p1909
tp1910
a(Vthe
p1911
S'DT'
p1912
tp1913
a(Vbuilding
p1914
S'NN'
p1915
tp1916
a(Vfunction
p1917
g1915
tp1918
a(Vof
p1919
S'IN'
p1920
tp1921
a(Vthe
p1922
g1912
tp1923
a(VEiffel
p1924
S'NNP'
p1925
tp1926
a(Vtower
p1927
g1915
tp1928
aa(lp1929
(Vhow
p1930
S'WRB'
p1931
tp1932
a(Vmany
p1933
S'JJ'
p1934
tp1935
a(Vchildren
p1936
S'NNS'
p1937
tp1938
a(Vdoes
p1939
S'VBZ'
p1940
tp1941
a(VDanny
p1942
S'NNP'
p1943
tp1944
a(VdeVito
p1945
S'NNS'
p1946
tp1947
a(Vhave
p1948
S'VBP'
p1949
tp1950
aa(lp1951
(Vhow
p1952
S'WRB'
p1953
tp1954
a(Vmany
p1955
S'JJ'
p1956
tp1957
a(Vdifferent
p1958
S'JJ'
p1959
tp1960
a(Vindustries
p1961
S'NNS'
p1962
tp1963
a(Vare
p1964
S'VBP'
p1965
tp1966
a(Vthere
p1967
S'RB'
p1968
tp1969
a(Vin
p1970
S'IN'
p1971
tp1972
a(Vhome
p1973
S'NN'
p1974
tp1975
a(Vdepot
p1976
g1974
tp1977
aa(lp1978
(Vat
p1979
S'IN'
p1980
tp1981
a(Vwhat
p1982
S'WP'
p1983
tp1984
a(Vschool
p1985
S'NN'
p1986
tp1987
a(Vwas
p1988
S'VBD'
p1989
tp1990
a(Vdelta
p1991
S'JJ'
p1992
tp1993
a(Vdelta
p1994
g1992
tp1995
a(Vdelta
p1996
S'NN'
p1997
tp1998
a(Vfounded
p1999
g1989
tp2000
aa(lp2001
(Vin
p2002
S'IN'
p2003
tp2004
a(Vwhat
p2005
S'WP'
p2006
tp2007
a(Vseason
p2008
S'NN'
p2009
tp2010
a(Vof
p2011
S'IN'
p2012
tp2013
a(Vstargate
p2014
S'JJ'
p2015
tp2016
a(Vsg-1
p2017
S'NN'
p2018
tp2019
a(Vis
p2020
S'VBZ'
p2021
tp2022
a(Vthe
p2023
S'DT'
p2024
tp2025
a(Vepisode
p2026
g2018
tp2027
a(Vshow
p2028
g2018
tp2029
a(Vand
p2030
S'CC'
p2031
tp2032
a(Vtell
p2033
S'VB'
p2034
tp2035
aa(lp2036
(Vwho
p2037
S'WP'
p2038
tp2039
a(Vstarted
p2040
S'VBD'
p2041
tp2042
a(VStarbucks
p2043
S'NNP'
p2044
tp2045
aa(lp2046
(Vwho
p2047
S'WP'
p2048
tp2049
a(Vis
p2050
S'VBZ'
p2051
tp2052
a(Vthe
p2053
S'DT'
p2054
tp2055
a(Vcaptain
p2056
S'NN'
p2057
tp2058
a(Vof
p2059
S'IN'
p2060
tp2061
a(Vthe
p2062
g2054
tp2063
a(VEdmonton
p2064
S'NNP'
p2065
tp2066
a(VOilers
p2067
g2065
tp2068
aa(lp2069
(Vwho
p2070
S'WP'
p2071
tp2072
a(Vare
p2073
S'VBP'
p2074
tp2075
a(Vthe
p2076
S'DT'
p2077
tp2078
a(Vfounders
p2079
S'NNS'
p2080
tp2081
a(Vof
p2082
S'IN'
p2083
tp2084
a(VHome
p2085
S'NNP'
p2086
tp2087
a(VDepot
p2088
g2086
tp2089
aa(lp2090
(Vwhat
p2091
S'WDT'
p2092
tp2093
a(Vare
p2094
S'VBP'
p2095
tp2096
a(Vthe
p2097
S'DT'
p2098
tp2099
a(Vceltic
p2100
S'JJ'
p2101
tp2102
a(Vlanguages
p2103
S'NNS'
p2104
tp2105
aa(lp2106
(Vwhat
p2107
S'WP'
p2108
tp2109
a(Vis
p2110
S'VBZ'
p2111
tp2112
a(Vthe
p2113
S'DT'
p2114
tp2115
a(Vstate
p2116
S'NN'
p2117
tp2118
a(Vflower
p2119
S'NN'
p2120
tp2121
a(Vof
p2122
S'IN'
p2123
tp2124
a(VAlaska
p2125
S'NNP'
p2126
tp2127
aa(lp2128
(Vwhat
p2129
S'WDT'
p2130
tp2131
a(Vare
p2132
S'VBP'
p2133
tp2134
a(Vthe
p2135
S'DT'
p2136
tp2137
a(Vtheme
p2138
S'JJ'
p2139
tp2140
a(Vareas
p2141
S'NNS'
p2142
tp2143
a(Vat
p2144
S'IN'
p2145
tp2146
a(VDisneyland
p2147
S'NNP'
p2148
tp2149
aa(lp2150
(Vwhat
p2151
S'WP'
p2152
tp2153
a(Vproduction
p2154
S'NN'
p2155
tp2156
a(Vis
p2157
S'VBZ'
p2158
tp2159
a(Vthe
p2160
S'DT'
p2161
tp2162
a(VSopranos
p2163
S'NNP'
p2164
tp2165
a(Vcurrently
p2166
S'RB'
p2167
tp2168
a(Vin
p2169
S'IN'
p2170
tp2171
aa(lp2172
(Vwhere
p2173
S'WRB'
p2174
tp2175
a(Vdoes
p2176
S'VBZ'
p2177
tp2178
a(Vthe
p2179
S'DT'
p2180
tp2181
a(Vchow
p2182
S'NN'
p2183
tp2184
a(Vchow
p2185
g2183
tp2186
a(Voriginate
p2187
g2183
tp2188
aa(lp2189
(Vwhat
p2190
S'WP'
p2191
tp2192
a(Vposition
p2193
S'NN'
p2194
tp2195
a(Vdid
p2196
S'VBD'
p2197
tp2198
a(VMike
p2199
S'NNP'
p2200
tp2201
a(VSchmidt
p2202
g2200
tp2203
a(Vplay
p2204
S'NN'
p2205
tp2206
aa(lp2207
(Vwhat
p2208
S'WP'
p2209
tp2210
a(Vbreed
p2211
S'NN'
p2212
tp2213
a(Vgroup
p2214
S'NN'
p2215
tp2216
a(Vis
p2217
S'VBZ'
p2218
tp2219
a(g436
S'DT'
p2220
tp2221
a(Vshar
p2222
S'JJ'
p2223
tp2224
a(Vpei
p2225
g2212
tp2226
a(Vin
p2227
S'IN'
p2228
tp2229
a(Vthe
p2230
S'DT'
p2231
tp2232
a(Vamerican
p2233
g2223
tp2234
a(Vkennel
p2235
g2212
tp2236
a(Vclub
p2237
g2212
tp2238
aa(lp2239
(Vwhere
p2240
S'WRB'
p2241
tp2242
a(Vwas
p2243
S'VBD'
p2244
tp2245
a(Vpolonium
p2246
S'NN'
p2247
tp2248
a(Vdiscovered
p2249
g2244
tp2250
aa(lp2251
(Vhow
p2252
S'WRB'
p2253
tp2254
a(Vmany
p2255
S'JJ'
p2256
tp2257
a(Vepisodes
p2258
S'NNS'
p2259
tp2260
a(Vof
p2261
S'IN'
p2262
tp2263
a(Vtaylor
p2264
S'NN'
p2265
tp2266
a(Vmade
p2267
S'VBN'
p2268
tp2269
a(Vpiano
p2270
g2265
tp2271
a(Vwere
p2272
S'VBD'
p2273
tp2274
a(Vthere
p2275
S'RB'
p2276
tp2277
aa(lp2278
(Vwhat
p2279
S'WP'
p2280
tp2281
a(Vrecord
p2282
S'NN'
p2283
tp2284
a(Vlabel
p2285
g2283
tp2286
a(Vwas
p2287
S'VBD'
p2288
tp2289
a(VAli
p2290
S'NNP'
p2291
tp2292
a(VFarka
p2293
g2291
tp2294
a(VToure
p2295
g2291
tp2296
a(Vsigned
p2297
g2288
tp2298
a(Vto
p2299
S'TO'
p2300
tp2301
aa(lp2302
(Vwhat
p2303
S'WP'
p2304
tp2305
a(Vteam
p2306
S'NN'
p2307
tp2308
a(Vdoes
p2309
S'VBZ'
p2310
tp2311
a(VRichard
p2312
S'NNP'
p2313
tp2314
a(VHamilton
p2315
S'NNP'
p2316
tp2317
a(Vplay
p2318
g2307
tp2319
a(Vfor
p2320
S'IN'
p2321
tp2322
aa(lp2323
(Vwhat
p2324
S'WP'
p2325
tp2326
a(Vis
p2327
S'VBZ'
p2328
tp2329
a(VAfrica
p2330
S'NNP'
p2331
tp2332
a(V's
p2333
S'POS'
p2334
tp2335
a(Vpopulation
p2336
S'NN'
p2337
tp2338
aa(lp2339
(Vwhat
p2340
S'WDT'
p2341
tp2342
a(Vare
p2343
S'VBP'
p2344
tp2345
a(Vthe
p2346
S'DT'
p2347
tp2348
a(Visotopes
p2349
S'NNS'
p2350
tp2351
a(Vof
p2352
S'IN'
p2353
tp2354
a(Vzinc
p2355
S'NN'
p2356
tp2357
aa(lp2358
(Vwho
p2359
S'WP'
p2360
tp2361
a(Vpublished
p2362
S'VBD'
p2363
tp2364
a(Vthe
p2365
S'DT'
p2366
tp2367
a(Vamazing
p2368
S'JJ'
p2369
tp2370
a(Vspider-man
p2371
S'NN'
p2372
tp2373
aa(lp2374
(Vhow
p2375
S'WRB'
p2376
tp2377
a(Vthick
p2378
S'NN'
p2379
tp2380
a(Vis
p2381
S'VBZ'
p2382
tp2383
a(Vthe
p2384
S'DT'
p2385
tp2386
a(Valetsch
p2387
g2379
tp2388
a(Vglacier
p2389
g2379
tp2390
aa(lp2391
(Vwhen
p2392
S'WRB'
p2393
tp2394
a(Vwas
p2395
S'VBD'
p2396
tp2397
a(Vthe
p2398
S'DT'
p2399
tp2400
a(Vrelease
p2401
S'NN'
p2402
tp2403
a(Vdate
p2404
S'NN'
p2405
tp2406
a(Vfor
p2407
S'IN'
p2408
tp2409
a(VTitanic
p2410
S'NNP'
p2411
tp2412
aa(lp2413
(Vwhat
p2414
S'WDT'
p2415
tp2416
a(Vare
p2417
S'VBP'
p2418
tp2419
a(Vsome
p2420
S'DT'
p2421
tp2422
a(Vresearch
p2423
S'NN'
p2424
tp2425
a(Vonly
p2426
S'RB'
p2427
tp2428
a(Vcancer
p2429
S'NN'
p2430
tp2431
a(Vcenters
p2432
S'NNS'
p2433
tp2434
aa(lp2435
(Vwhat
p2436
S'WP'
p2437
tp2438
a(Vis
p2439
S'VBZ'
p2440
tp2441
a(Vthe
p2442
S'DT'
p2443
tp2444
a(Vtheme
p2445
S'NN'
p2446
tp2447
a(Vsong
p2448
g2446
tp2449
a(Vof
p2450
S'IN'
p2451
tp2452
a(Vfull
p2453
S'JJ'
p2454
tp2455
a(Vhouse
p2456
S'NN'
p2457
tp2458
aa(lp2459
(Vhow
p2460
S'WRB'
p2461
tp2462
a(Vwas
p2463
S'VBD'
p2464
tp2465
a(VPluto
p2466
S'NNP'
p2467
tp2468
a(Vdiscovered
p2469
g2464
tp2470
aa(lp2471
(Vwhat
p2472
S'WP'
p2473
tp2474
a(Vversions
p2475
S'NNS'
p2476
tp2477
a(Vof
p2478
S'IN'
p2479
tp2480
a(VMac
p2481
S'NNP'
p2482
tp2483
a(VOS
p2484
g2482
tp2485
a(VX
p2486
g2482
tp2487
a(Vis
p2488
S'VBZ'
p2489
tp2490
a(VMozilla
p2491
g2482
tp2492
a(VFirefox
p2493
g2482
tp2494
a(Vcompatible
p2495
S'JJ'
p2496
tp2497
a(Vwith
p2498
S'IN'
p2499
tp2500
aa(lp2501
(Vhow
p2502
S'WRB'
p2503
tp2504
a(Vmany
p2505
S'JJ'
p2506
tp2507
a(Vseasons
p2508
S'NNS'
p2509
tp2510
a(Vof
p2511
S'IN'
p2512
tp2513
a(VSeinfeld
p2514
S'NNP'
p2515
tp2516
a(Vare
p2517
S'VBP'
p2518
tp2519
a(Vthere
p2520
S'RB'
p2521
tp2522
aa(lp2523
(Vin
p2524
S'IN'
p2525
tp2526
a(V1982
p2527
S'CD'
p2528
tp2529
a(Vwho
p2530
S'WP'
p2531
tp2532
a(Vwere
p2533
S'VBD'
p2534
tp2535
a(Vthe
p2536
S'DT'
p2537
tp2538
a(Vprimetieme
p2539
S'NN'
p2540
tp2541
a(VEmmy
p2542
S'NNP'
p2543
tp2544
a(Vaward
p2545
g2540
tp2546
a(Vfor
p2547
S'IN'
p2548
tp2549
a(Vcomedy
p2550
g2540
tp2551
a(Vseries
p2552
S'NN'
p2553
tp2554
a(Vnominees
p2555
S'NNS'
p2556
tp2557
aa(lp2558
(Vwhat
p2559
S'WP'
p2560
tp2561
a(Vcompany
p2562
S'NN'
p2563
tp2564
a(Vowns
p2565
S'VBZ'
p2566
tp2567
a(Vnutter
p2568
S'RB'
p2569
tp2570
a(Vbutter
p2571
S'NN'
p2572
tp2573
aa(lp2574
(Vwhen
p2575
S'WRB'
p2576
tp2577
a(Vwas
p2578
S'VBD'
p2579
tp2580
a(VFacebook
p2581
S'NNP'
p2582
tp2583
a(Vlaunched
p2584
g2579
tp2585
aa(lp2586
(Vwhat
p2587
S'WP'
p2588
tp2589
a(Vposition
p2590
S'NN'
p2591
tp2592
a(Vdoes
p2593
S'VBZ'
p2594
tp2595
a(VCristiano
p2596
S'NNP'
p2597
tp2598
a(VRonaldo
p2599
g2597
tp2600
a(Vplay
p2601
S'NN'
p2602
tp2603
aa(lp2604
(Vhow
p2605
S'WRB'
p2606
tp2607
a(Vmany
p2608
S'JJ'
p2609
tp2610
a(Vgames
p2611
S'NNS'
p2612
tp2613
a(Vhas
p2614
S'VBZ'
p2615
tp2616
a(VHasbro
p2617
S'NNP'
p2618
tp2619
a(Vpublished
p2620
S'VBN'
p2621
tp2622
aa(lp2623
(Vwhat
p2624
S'WP'
p2625
tp2626
a(Vuniverse
p2627
S'NN'
p2628
tp2629
a(Vis
p2630
S'VBZ'
p2631
tp2632
a(Vthe
p2633
S'DT'
p2634
tp2635
a(VLord
p2636
S'NNP'
p2637
tp2638
a(Vof
p2639
S'IN'
p2640
tp2641
a(Vthe
p2642
g2634
tp2643
a(VRings
p2644
g2637
tp2645
a(Vset
p2646
g2628
tp2647
a(Vin
p2648
S'IN'
p2649
tp2650
aa(lp2651
(Vhow
p2652
S'WRB'
p2653
tp2654
a(Vmany
p2655
S'JJ'
p2656
tp2657
a(Vteams
p2658
S'NNS'
p2659
tp2660
a(Vparticipated
p2661
S'VBD'
p2662
tp2663
a(Vin
p2664
S'IN'
p2665
tp2666
a(Vthe
p2667
S'DT'
p2668
tp2669
a(V1979
p2670
S'CD'
p2671
tp2672
a(Vcricket
p2673
S'NN'
p2674
tp2675
a(Vworld
p2676
S'NN'
p2677
tp2678
a(Vcup
p2679
g2674
tp2680
aa(lp2681
(Vwhat
p2682
S'WP'
p2683
tp2684
a(Vyear
p2685
S'NN'
p2686
tp2687
a(Vwas
p2688
S'VBD'
p2689
tp2690
a(Vthe
p2691
S'DT'
p2692
tp2693
a(Valbum
p2694
S'NN'
p2695
tp2696
a(Vdecade
p2697
S'NN'
p2698
tp2699
a(Vreleased
p2700
g2689
tp2701
aa(lp2702
(Vhow
p2703
S'WRB'
p2704
tp2705
a(Vmany
p2706
S'JJ'
p2707
tp2708
a(Voperating
p2709
S'VBG'
p2710
tp2711
a(Vsystems
p2712
S'NNS'
p2713
tp2714
a(Vis
p2715
S'VBZ'
p2716
tp2717
a(VAdobe
p2718
S'NNP'
p2719
tp2720
a(VFlash
p2721
g2719
tp2722
a(Vcompatible
p2723
S'NN'
p2724
tp2725
a(Vwith
p2726
S'IN'
p2727
tp2728
aa(lp2729
(Vwhat
p2730
S'WP'
p2731
tp2732
a(Vis
p2733
S'VBZ'
p2734
tp2735
a(Vthe
p2736
S'DT'
p2737
tp2738
a(Vpopulation
p2739
S'NN'
p2740
tp2741
a(Vestimated
p2742
S'VBN'
p2743
tp2744
a(Vin
p2745
S'IN'
p2746
tp2747
a(Vthe
p2748
g2737
tp2749
a(Vworld
p2750
S'NN'
p2751
tp2752
aa(lp2753
(Vhow
p2754
S'WRB'
p2755
tp2756
a(Vmany
p2757
S'JJ'
p2758
tp2759
a(Vtennis
p2760
S'NN'
p2761
tp2762
a(Vevents
p2763
S'NNS'
p2764
tp2765
a(Vare
p2766
S'VBP'
p2767
tp2768
a(Vthere
p2769
S'RB'
p2770
tp2771
a(Vat
p2772
S'IN'
p2773
tp2774
a(Vthe
p2775
S'DT'
p2776
tp2777
a(Volympics
p2778
S'NNS'
p2779
tp2780
aa(lp2781
(Vhow
p2782
S'WRB'
p2783
tp2784
a(Vmany
p2785
S'JJ'
p2786
tp2787
a(Vrna
p2788
S'JJ'
p2789
tp2790
a(Vcodons
p2791
S'NNS'
p2792
tp2793
a(Vdoes
p2794
S'VBZ'
p2795
tp2796
a(Vglycine
p2797
g2792
tp2798
a(Vhave
p2799
S'VB'
p2800
tp2801
aa(lp2802
(Vwho
p2803
S'WP'
p2804
tp2805
a(Vwas
p2806
S'VBD'
p2807
tp2808
a(Vcharlie_s
p2809
S'JJ'
p2810
tp2811
a(Vangels
p2812
S'NNS'
p2813
tp2814
a(Vproduced
p2815
S'VBN'
p2816
tp2817
a(Vby
p2818
S'IN'
p2819
tp2820
aa(lp2821
(Vwho
p2822
S'WP'
p2823
tp2824
a(Vcompleted
p2825
S'VBD'
p2826
tp2827
a(VMozart_s
p2828
S'NNP'
p2829
tp2830
a(Vrequiem
p2831
S'NN'
p2832
tp2833
aa(lp2834
(Vhow
p2835
S'WRB'
p2836
tp2837
a(Vmany
p2838
S'JJ'
p2839
tp2840
a(Vteams
p2841
S'NNS'
p2842
tp2843
a(Vdid
p2844
S'VBD'
p2845
tp2846
a(VJoe
p2847
S'NNP'
p2848
tp2849
a(VTorre
p2850
g2848
tp2851
a(Vmanage
p2852
S'NN'
p2853
tp2854
aa(lp2855
(Vhow
p2856
S'WRB'
p2857
tp2858
a(Vmany
p2859
S'JJ'
p2860
tp2861
a(Vcricket
p2862
S'NN'
p2863
tp2864
a(Vbowlers
p2865
S'NNS'
p2866
tp2867
a(Vuse
p2868
S'VBP'
p2869
tp2870
a(Vfast
p2871
S'JJ'
p2872
tp2873
a(Vbowling
p2874
g2863
tp2875
aa(lp2876
(Vwho
p2877
S'WP'
p2878
tp2879
a(Vdesigned
p2880
S'VBD'
p2881
tp2882
a(Vthe
p2883
S'DT'
p2884
tp2885
a(Vgiant
p2886
S'JJ'
p2887
tp2888
a(Vdipper
p2889
S'NN'
p2890
tp2891
aa(lp2892
(Vwhat
p2893
S'WP'
p2894
tp2895
a(Vcharacters
p2896
S'NNS'
p2897
tp2898
a(Vare
p2899
S'VBP'
p2900
tp2901
a(Vin
p2902
S'IN'
p2903
tp2904
a(Vsuper
p2905
S'JJ'
p2906
tp2907
a(Vmario
p2908
S'NN'
p2909
tp2910
a(Vbros
p2911
g2897
tp2912
aa(lp2913
(Vwhat
p2914
S'WP'
p2915
tp2916
a(Vwas
p2917
S'VBD'
p2918
tp2919
a(VJohn
p2920
S'NNP'
p2921
tp2922
a(VF
p2923
S'NNP'
p2924
tp2925
a(VKennedy
p2926
g2924
tp2927
a(V's
p2928
S'POS'
p2929
tp2930
a(Vcause
p2931
S'NN'
p2932
tp2933
a(Vof
p2934
S'IN'
p2935
tp2936
a(Vdeath
p2937
S'NN'
p2938
tp2939
aa(lp2940
(Vwhat
p2941
S'WP'
p2942
tp2943
a(Vis
p2944
S'VBZ'
p2945
tp2946
a(Vthe
p2947
S'DT'
p2948
tp2949
a(Vgenre
p2950
S'NN'
p2951
tp2952
a(Vof
p2953
S'IN'
p2954
tp2955
a(Vthe
p2956
g2948
tp2957
a(Vskeptics
p2958
S'NNS'
p2959
tp2960
a(V'
p2961
S'POS'
p2962
tp2963
a(Vguide
p2964
g2951
tp2965
a(Vto
p2966
S'TO'
p2967
tp2968
a(Vthe
p2969
g2948
tp2970
a(Vuniverse
p2971
g2951
tp2972
aa(lp2973
(Vhow
p2974
S'WRB'
p2975
tp2976
a(Vmany
p2977
S'JJ'
p2978
tp2979
a(Vemployees
p2980
S'NNS'
p2981
tp2982
a(Vdoes
p2983
S'VBZ'
p2984
tp2985
a(VNintendo
p2986
S'NNP'
p2987
tp2988
a(Vhave
p2989
S'VB'
p2990
tp2991
aa(lp2992
(Vhow
p2993
S'WRB'
p2994
tp2995
a(Vmany
p2996
S'JJ'
p2997
tp2998
a(Vtypes
p2999
S'NNS'
p3000
tp3001
a(Vof
p3002
S'IN'
p3003
tp3004
a(Vcumulus
p3005
S'NN'
p3006
tp3007
a(Vclouds
p3008
g3000
tp3009
a(Vare
p3010
S'VBP'
p3011
tp3012
a(Vthere
p3013
S'RB'
p3014
tp3015
aa(lp3016
(Vhow
p3017
S'WRB'
p3018
tp3019
a(Vmany
p3020
S'JJ'
p3021
tp3022
a(Vother
p3023
S'JJ'
p3024
tp3025
a(Vnames
p3026
S'NNS'
p3027
tp3028
a(Vis
p3029
S'VBZ'
p3030
tp3031
a(VRon
p3032
S'NNP'
p3033
tp3034
a(VGlass
p3035
g3033
tp3036
a(Vknown
p3037
S'VBN'
p3038
tp3039
a(Vby
p3040
S'IN'
p3041
tp3042
aa(lp3043
(Vwhat
p3044
S'WP'
p3045
tp3046
a(Vnumber
p3047
S'NN'
p3048
tp3049
a(Vis
p3050
S'VBZ'
p3051
tp3052
a(VRyan
p3053
S'NNP'
p3054
tp3055
a(VCallahan
p3056
g3054
tp3057
a(Von
p3058
S'IN'
p3059
tp3060
a(Vthe
p3061
S'DT'
p3062
tp3063
a(Vnew
p3064
S'JJ'
p3065
tp3066
a(Vyork
p3067
S'NN'
p3068
tp3069
a(Vrangers
p3070
S'NNS'
p3071
tp3072
aa(lp3073
(Vwhat
p3074
S'WDT'
p3075
tp3076
a(Vare
p3077
S'VBP'
p3078
tp3079
a(Vthe
p3080
S'DT'
p3081
tp3082
a(Vchristian
p3083
S'JJ'
p3084
tp3085
a(Vholidays
p3086
S'NNS'
p3087
tp3088
aa(lp3089
(Vwho
p3090
S'WP'
p3091
tp3092
a(Vdirected
p3093
S'VBD'
p3094
tp3095
a(VCharlie_s
p3096
S'NNP'
p3097
tp3098
a(Vangels
p3099
S'NNS'
p3100
tp3101
aa(lp3102
(Vwhat
p3103
S'WP'
p3104
tp3105
a(Vwas
p3106
S'VBD'
p3107
tp3108
a(VJack
p3109
S'NNP'
p3110
tp3111
a(VAlbertson
p3112
S'NNP'
p3113
tp3114
a(V's
p3115
S'POS'
p3116
tp3117
a(Vcause
p3118
S'NN'
p3119
tp3120
a(Vof
p3121
S'IN'
p3122
tp3123
a(Vdeath
p3124
S'NN'
p3125
tp3126
aa(lp3127
(Vwhen
p3128
S'WRB'
p3129
tp3130
a(Vwas
p3131
S'VBD'
p3132
tp3133
a(Vthe
p3134
S'DT'
p3135
tp3136
a(Vprinting
p3137
S'NN'
p3138
tp3139
a(Vpress
p3140
g3138
tp3141
a(Vinvented
p3142
g3132
tp3143
aa(lp3144
(Vwhat
p3145
S'WDT'
p3146
tp3147
a(Vare
p3148
S'VBP'
p3149
tp3150
a(Vthe
p3151
S'DT'
p3152
tp3153
a(Vneighborhoods
p3154
S'NNS'
p3155
tp3156
a(Vin
p3157
S'IN'
p3158
tp3159
a(VNew
p3160
S'NNP'
p3161
tp3162
a(VYork
p3163
S'NNP'
p3164
tp3165
a(Vcity
p3166
S'NN'
p3167
tp3168
aa(lp3169
(Vhow
p3170
S'WRB'
p3171
tp3172
a(Vmany
p3173
S'JJ'
p3174
tp3175
a(Vpeople
p3176
S'NNS'
p3177
tp3178
a(Vpractice
p3179
S'NN'
p3180
tp3181
a(Vkarate
p3182
S'NN'
p3183
tp3184
aa(lp3185
(Vwhat
p3186
S'WP'
p3187
tp3188
a(Vis
p3189
S'VBZ'
p3190
tp3191
a(Vthe
p3192
S'DT'
p3193
tp3194
a(Varea
p3195
S'NN'
p3196
tp3197
a(Vof
p3198
S'IN'
p3199
tp3200
a(VSouth
p3201
S'NNP'
p3202
tp3203
a(VAmerica
p3204
S'NNP'
p3205
tp3206
aa(lp3207
(Vhow
p3208
S'WRB'
p3209
tp3210
a(Vmany
p3211
S'JJ'
p3212
tp3213
a(Vsites
p3214
S'NNS'
p3215
tp3216
a(Vare
p3217
S'VBP'
p3218
tp3219
a(Von
p3220
S'IN'
p3221
tp3222
a(Vthe
p3223
S'DT'
p3224
tp3225
a(Vnational
p3226
S'JJ'
p3227
tp3228
a(Vregister
p3229
S'NN'
p3230
tp3231
a(Vof
p3232
S'IN'
p3233
tp3234
a(Vhistoric
p3235
S'JJ'
p3236
tp3237
a(Vplaces
p3238
g3215
tp3239
aa(lp3240
(Vwhat
p3241
S'WP'
p3242
tp3243
a(Vfootball
p3244
S'NN'
p3245
tp3246
a(Vteam
p3247
S'NN'
p3248
tp3249
a(Vdoes
p3250
S'VBZ'
p3251
tp3252
a(VAndy
p3253
S'NNP'
p3254
tp3255
a(VReid
p3256
g3254
tp3257
a(Vcurrently
p3258
S'RB'
p3259
tp3260
a(Vcoach
p3261
S'VBP'
p3262
tp3263
aa(lp3264
(Vhow
p3265
S'WRB'
p3266
tp3267
a(Vmany
p3268
S'JJ'
p3269
tp3270
a(Vprotected
p3271
S'VBN'
p3272
tp3273
a(Vsites
p3274
S'NNS'
p3275
tp3276
a(Vdoes
p3277
S'VBZ'
p3278
tp3279
a(Vthe
p3280
S'DT'
p3281
tp3282
a(VU.S.
p3283
S'NNP'
p3284
tp3285
a(Vnational
p3286
S'JJ'
p3287
tp3288
a(Vpark
p3289
S'NN'
p3290
tp3291
a(Vservice
p3292
g3290
tp3293
a(Vgovern
p3294
g3290
tp3295
aa(lp3296
(Vwhat
p3297
S'WP'
p3298
tp3299
a(Vwas
p3300
S'VBD'
p3301
tp3302
a(VViacom
p3303
S'NNP'
p3304
tp3305
a(V's
p3306
S'POS'
p3307
tp3308
a(Vrevenue
p3309
S'NN'
p3310
tp3311
a(Vin
p3312
S'IN'
p3313
tp3314
a(V2009
p3315
S'CD'
p3316
tp3317
aa(lp3318
(Vwhat
p3319
S'WP'
p3320
tp3321
a(Visland
p3322
S'NN'
p3323
tp3324
a(Vgroup
p3325
S'NN'
p3326
tp3327
a(Vis
p3328
S'VBZ'
p3329
tp3330
a(VJekyll
p3331
S'NNP'
p3332
tp3333
a(Visland
p3334
g3323
tp3335
a(g436
S'DT'
p3336
tp3337
a(Vpart
p3338
S'NN'
p3339
tp3340
a(Vof
p3341
S'IN'
p3342
tp3343
aa(lp3344
(Vhow
p3345
S'WRB'
p3346
tp3347
a(Vmany
p3348
S'JJ'
p3349
tp3350
a(Vchildren
p3351
S'NNS'
p3352
tp3353
a(Vdoes
p3354
S'VBZ'
p3355
tp3356
a(VJerry
p3357
S'NNP'
p3358
tp3359
a(VSeinfeld
p3360
g3358
tp3361
a(Vhave
p3362
S'VBP'
p3363
tp3364
aa(lp3365
(Vwhat
p3366
S'WP'
p3367
tp3368
a(Vtype
p3369
S'NN'
p3370
tp3371
a(Vof
p3372
S'IN'
p3373
tp3374
a(Vorganism
p3375
g3370
tp3376
a(Vwas
p3377
S'VBD'
p3378
tp3379
a(VLucy
p3380
S'NNP'
p3381
tp3382
a(g436
S'DT'
p3383
tp3384
a(Vfossil
p3385
g3370
tp3386
a(Vof
p3387
g3373
tp3388
aa(lp3389
(Vwhen
p3390
S'WRB'
p3391
tp3392
a(Vwas
p3393
S'VBD'
p3394
tp3395
a(Vcrystal
p3396
S'JJ'
p3397
tp3398
a(Vlight
p3399
g3397
tp3400
a(Voriginally
p3401
S'RB'
p3402
tp3403
a(Vmarketed
p3404
S'VBN'
p3405
tp3406
aa(lp3407
(Vhow
p3408
S'WRB'
p3409
tp3410
a(Vmany
p3411
S'JJ'
p3412
tp3413
a(Vpeople
p3414
S'NNS'
p3415
tp3416
a(Vride
p3417
S'VBP'
p3418
tp3419
a(Vthe
p3420
S'DT'
p3421
tp3422
a(VLondon
p3423
S'NNP'
p3424
tp3425
a(Vunderground
p3426
S'JJ'
p3427
tp3428
a(Vdaily
p3429
S'RB'
p3430
tp3431
aa(lp3432
(Vin
p3433
S'IN'
p3434
tp3435
a(Vwhat
p3436
S'WP'
p3437
tp3438
a(Vdisaster
p3439
S'NN'
p3440
tp3441
a(Vwas
p3442
S'VBD'
p3443
tp3444
a(Vold
p3445
S'JJ'
p3446
tp3447
a(VSt
p3448
S'NNP'
p3449
tp3450
a(VPaul_s
p3451
g3449
tp3452
a(Vcathedral
p3453
S'JJ'
p3454
tp3455
a(Vdestroyed
p3456
g3443
tp3457
aa(lp3458
(Vwhat
p3459
S'WP'
p3460
tp3461
a(Vinstruments
p3462
S'NNS'
p3463
tp3464
a(Vdid
p3465
S'VBD'
p3466
tp3467
a(VOmarion
p3468
S'NNP'
p3469
tp3470
a(Vplay
p3471
S'NN'
p3472
tp3473
aa(lp3474
(Vwhat
p3475
S'WDT'
p3476
tp3477
a(Vare
p3478
S'VBP'
p3479
tp3480
a(Vthe
p3481
S'DT'
p3482
tp3483
a(Vbooks
p3484
S'NNS'
p3485
tp3486
a(Vin
p3487
S'IN'
p3488
tp3489
a(Vthe
p3490
g3482
tp3491
a(VChronicles
p3492
S'NNP'
p3493
tp3494
a(Vof
p3495
S'IN'
p3496
tp3497
a(VNarnia
p3498
g3493
tp3499
a(Vseries
p3500
S'NN'
p3501
tp3502
aa(lp3503
(Vwhat
p3504
S'WP'
p3505
tp3506
a(Vcharacters
p3507
S'NNS'
p3508
tp3509
a(Vare
p3510
S'VBP'
p3511
tp3512
a(Vfeatured
p3513
S'VBN'
p3514
tp3515
a(Vin
p3516
S'IN'
p3517
tp3518
a(VBatman
p3519
S'NNP'
p3520
tp3521
a(V:
p3522
S':'
p3523
tp3524
a(Vthe
p3525
S'DT'
p3526
tp3527
a(VDark
p3528
g3520
tp3529
a(Vknight
p3530
S'VBD'
p3531
tp3532
a(Vreturns
p3533
g3508
tp3534
aa(lp3535
(Vwhat
p3536
S'WP'
p3537
tp3538
a(Vwas
p3539
S'VBD'
p3540
tp3541
a(VHenry
p3542
S'NNP'
p3543
tp3544
a(VVIII
p3545
g3543
tp3546
a(V's
p3547
S'POS'
p3548
tp3549
a(Vroyal
p3550
S'NN'
p3551
tp3552
a(Vline
p3553
S'NN'
p3554
tp3555
aa(lp3556
(Vwhat
p3557
S'WDT'
p3558
tp3559
a(Vwas
p3560
S'VBD'
p3561
tp3562
a(Vthe
p3563
S'DT'
p3564
tp3565
a(Vcost
p3566
S'NN'
p3567
tp3568
a(Vof
p3569
S'IN'
p3570
tp3571
a(Vbuilding
p3572
S'VBG'
p3573
tp3574
a(Vthe
p3575
g3564
tp3576
a(VMagnum
p3577
S'NNP'
p3578
tp3579
a(Vxl-200
p3580
g3567
tp3581
aa(lp3582
(Vhow
p3583
S'WRB'
p3584
tp3585
a(Vmany
p3586
S'JJ'
p3587
tp3588
a(Vcow
p3589
S'VBP'
p3590
tp3591
a(V's
p3592
S'POS'
p3593
tp3594
a(Vmilk
p3595
S'NN'
p3596
tp3597
a(Vcheeses
p3598
S'NNS'
p3599
tp3600
a(Vare
p3601
S'VBP'
p3602
tp3603
a(Vthere
p3604
S'RB'
p3605
tp3606
aa(lp3607
(Vdid
p3608
S'VBD'
p3609
tp3610
a(Vthe
p3611
S'DT'
p3612
tp3613
a(Vbig
p3614
S'JJ'
p3615
tp3616
a(Vbang
p3617
S'NN'
p3618
tp3619
a(Vexhibit
p3620
g3618
tp3621
a(Vat
p3622
S'IN'
p3623
tp3624
a(Vthe
p3625
g3612
tp3626
a(Vscience
p3627
g3618
tp3628
a(Vmuseum
p3629
g3618
tp3630
a(Vcost
p3631
g3618
tp3632
a(Vmoney
p3633
S'NN'
p3634
tp3635
aa(lp3636
(Vwhat
p3637
S'WP'
p3638
tp3639
a(Vmovie
p3640
S'NN'
p3641
tp3642
a(Vdid
p3643
S'VBD'
p3644
tp3645
a(VDanny
p3646
S'NNP'
p3647
tp3648
a(VdeVito
p3649
S'NN'
p3650
tp3651
a(Vwin
p3652
S'VBP'
p3653
tp3654
a(Van
p3655
S'DT'
p3656
tp3657
a(Vaward
p3658
g3650
tp3659
a(Vfor
p3660
S'IN'
p3661
tp3662
a(Vin
p3663
S'IN'
p3664
tp3665
a(V1981
p3666
S'CD'
p3667
tp3668
aa(lp3669
(Vwho
p3670
S'WP'
p3671
tp3672
a(Vcoaches
p3673
S'VBZ'
p3674
tp3675
a(Vthe
p3676
S'DT'
p3677
tp3678
a(Vaustralian
p3679
S'JJ'
p3680
tp3681
a(Vcricket
p3682
S'NN'
p3683
tp3684
a(Vteam
p3685
g3683
tp3686
aa(lp3687
(Vwhat
p3688
S'WDT'
p3689
tp3690
a(Vare
p3691
S'VBP'
p3692
tp3693
a(Vthe
p3694
S'DT'
p3695
tp3696
a(Vtexts
p3697
S'NN'
p3698
tp3699
a(Vof
p3700
S'IN'
p3701
tp3702
a(Vtaoism
p3703
g3698
tp3704
aa(lp3705
(Vwho
p3706
S'WP'
p3707
tp3708
a(Vwas
p3709
S'VBD'
p3710
tp3711
a(V8
p3712
S'CD'
p3713
tp3714
a(Vmile
p3715
S'NN'
p3716
tp3717
a(Vdirected
p3718
S'VBN'
p3719
tp3720
a(Vby
p3721
S'IN'
p3722
tp3723
aa(lp3724
(Vhow
p3725
S'WRB'
p3726
tp3727
a(Vmany
p3728
S'JJ'
p3729
tp3730
a(Vtv
p3731
S'NN'
p3732
tp3733
a(Vdid
p3734
S'VBD'
p3735
tp3736
a(VJerry
p3737
S'NNP'
p3738
tp3739
a(VSeinfeld
p3740
g3738
tp3741
a(Vhave
p3742
S'VBP'
p3743
tp3744
a(g436
S'DT'
p3745
tp3746
a(Vstarring
p3747
S'JJ'
p3748
tp3749
a(Vrole
p3750
S'NN'
p3751
tp3752
a(Vin
p3753
S'IN'
p3754
tp3755
aa(lp3756
(Vwhen
p3757
S'WRB'
p3758
tp3759
a(Vwas
p3760
S'VBD'
p3761
tp3762
a(VWalmart
p3763
S'NNP'
p3764
tp3765
a(Vfounded
p3766
g3761
tp3767
aa(lp3768
(Vwho
p3769
S'WP'
p3770
tp3771
a(Vused
p3772
S'VBD'
p3773
tp3774
a(Vto
p3775
S'TO'
p3776
tp3777
a(Vbe
p3778
S'VB'
p3779
tp3780
a(Vquarterback
p3781
S'RB'
p3782
tp3783
a(Vfor
p3784
S'IN'
p3785
tp3786
a(Vthe
p3787
S'DT'
p3788
tp3789
a(VGreen
p3790
S'NNP'
p3791
tp3792
a(VBay
p3793
g3791
tp3794
a(VPackers
p3795
g3791
tp3796
aa(lp3797
(Vhow
p3798
S'WRB'
p3799
tp3800
a(Vmany
p3801
S'JJ'
p3802
tp3803
a(Vteams
p3804
S'NNS'
p3805
tp3806
a(Vare
p3807
S'VBP'
p3808
tp3809
a(Vin
p3810
S'IN'
p3811
tp3812
a(Vthe
p3813
S'DT'
p3814
tp3815
a(Vatlantic
p3816
S'JJ'
p3817
tp3818
a(Vdivision
p3819
S'NN'
p3820
tp3821
a(Vof
p3822
S'IN'
p3823
tp3824
a(Vthe
p3825
g3814
tp3826
a(Veastern
p3827
g3817
tp3828
a(Vconference
p3829
S'NN'
p3830
tp3831
aa(lp3832
(Vhow
p3833
S'WRB'
p3834
tp3835
a(Vmany
p3836
S'JJ'
p3837
tp3838
a(Vradio
p3839
S'NN'
p3840
tp3841
a(Vprograms
p3842
S'NNS'
p3843
tp3844
a(Vabout
p3845
S'IN'
p3846
tp3847
a(Vscience
p3848
g3840
tp3849
a(Vare
p3850
S'VBP'
p3851
tp3852
a(Vthere
p3853
S'RB'
p3854
tp3855
aa(lp3856
(Vwhen
p3857
S'WRB'
p3858
tp3859
a(Vwas
p3860
S'VBD'
p3861
tp3862
a(Vthe
p3863
S'DT'
p3864
tp3865
a(Vlatest
p3866
S'JJS'
p3867
tp3868
a(Vrelease
p3869
S'NN'
p3870
tp3871
a(Vof
p3872
S'IN'
p3873
tp3874
a(VMicrosoft
p3875
S'NNP'
p3876
tp3877
a(VWord
p3878
g3876
tp3879
aa(lp3880
(Vwhat
p3881
S'WP'
p3882
tp3883
a(Varchitectural
p3884
S'JJ'
p3885
tp3886
a(Vstyle
p3887
S'NN'
p3888
tp3889
a(Vis
p3890
S'VBZ'
p3891
tp3892
a(Vthe
p3893
S'DT'
p3894
tp3895
a(VBrooklyn
p3896
S'NNP'
p3897
tp3898
a(VBridge
p3899
g3897
tp3900
aa(lp3901
(Vhow
p3902
S'WRB'
p3903
tp3904
a(Vmany
p3905
S'JJ'
p3906
tp3907
a(Vtv
p3908
S'NN'
p3909
tp3910
a(Vchannels
p3911
S'NNS'
p3912
tp3913
a(Vdoes
p3914
S'VBZ'
p3915
tp3916
a(VNBC
p3917
S'NNP'
p3918
tp3919
a(Vown
p3920
S'VB'
p3921
tp3922
aa(lp3923
(Vhow
p3924
S'WRB'
p3925
tp3926
a(Vmany
p3927
S'JJ'
p3928
tp3929
a(Vturbojet
p3930
S'NN'
p3931
tp3932
a(Vengines
p3933
S'NNS'
p3934
tp3935
a(Vare
p3936
S'VBP'
p3937
tp3938
a(Vthere
p3939
S'RB'
p3940
tp3941
aa(lp3942
(Vhow
p3943
S'WRB'
p3944
tp3945
a(Vmany
p3946
S'JJ'
p3947
tp3948
a(Vinversions
p3949
S'NNS'
p3950
tp3951
a(Vdoes
p3952
S'VBZ'
p3953
tp3954
a(Vthe
p3955
S'DT'
p3956
tp3957
a(Vmind
p3958
S'NN'
p3959
tp3960
a(Veraser
p3961
g3959
tp3962
a(Vhave
p3963
S'VBP'
p3964
tp3965
aa(lp3966
(Vwhen
p3967
S'WRB'
p3968
tp3969
a(Vwas
p3970
S'VBD'
p3971
tp3972
a(V13
p3973
S'CD'
p3974
tp3975
a(Vgoing
p3976
S'VBG'
p3977
tp3978
a(Von
p3979
S'IN'
p3980
tp3981
a(V30
p3982
S'CD'
p3983
tp3984
a(Vreleased
p3985
S'VBN'
p3986
tp3987
aa(lp3988
(Vwhen
p3989
S'WRB'
p3990
tp3991
a(Vdid
p3992
S'VBD'
p3993
tp3994
a(VJohn
p3995
S'NNP'
p3996
tp3997
a(VJ.
p3998
S'NNP'
p3999
tp4000
a(VRaskob
p4001
S'NNP'
p4002
tp4003
a(Vown
p4004
S'IN'
p4005
tp4006
a(Vthe
p4007
S'DT'
p4008
tp4009
a(Vempire
p4010
S'NN'
p4011
tp4012
a(Vstate
p4013
S'NN'
p4014
tp4015
a(Vbuilding
p4016
g4011
tp4017
aa(lp4018
(Vwhat
p4019
S'WDT'
p4020
tp4021
a(Vwas
p4022
S'VBD'
p4023
tp4024
a(Vthe
p4025
S'DT'
p4026
tp4027
a(Vdate
p4028
S'NN'
p4029
tp4030
a(Vof
p4031
S'IN'
p4032
tp4033
a(Vthe
p4034
g4026
tp4035
a(Vfirst
p4036
S'JJ'
p4037
tp4038
a(Vsesame
p4039
g4037
tp4040
a(Vstreet
p4041
S'NN'
p4042
tp4043
a(Vepisode
p4044
g4042
tp4045
a(Vaired
p4046
g4023
tp4047
aa(lp4048
(Vwho
p4049
S'WP'
p4050
tp4051
a(Vcreated
p4052
S'VBD'
p4053
tp4054
a(Vthe
p4055
S'DT'
p4056
tp4057
a(Vfar
p4058
S'RB'
p4059
tp4060
a(Vside
p4061
S'NN'
p4062
tp4063
aa(lp4064
(Vwhat
p4065
S'WP'
p4066
tp4067
a(Vconditions
p4068
S'NNS'
p4069
tp4070
a(Vhave
p4071
S'VBP'
p4072
tp4073
a(Vsymptoms
p4074
S'NNS'
p4075
tp4076
a(Vincluding
p4077
S'VBG'
p4078
tp4079
a(Vheadache
p4080
S'NN'
p4081
tp4082
aa(lp4083
(Vwhat
p4084
S'WP'
p4085
tp4086
a(Vgames
p4087
S'NNS'
p4088
tp4089
a(Vhas
p4090
S'VBZ'
p4091
tp4092
a(VMacsoft
p4093
S'NNP'
p4094
tp4095
a(VGames
p4096
g4094
tp4097
a(Vdeveloped
p4098
S'VBD'
p4099
tp4100
aa(lp4101
(Vare
p4102
S'VBP'
p4103
tp4104
a(Vlithium
p4105
S'JJ'
p4106
tp4107
a(Vbatteries
p4108
S'NNS'
p4109
tp4110
a(Vrechargable
p4111
g4106
tp4112
aa(lp4113
(Vhow
p4114
S'WRB'
p4115
tp4116
a(Vmany
p4117
S'JJ'
p4118
tp4119
a(Vpeople
p4120
S'NNS'
p4121
tp4122
a(Vdied
p4123
S'VBD'
p4124
tp4125
a(Vof
p4126
S'IN'
p4127
tp4128
a(g436
S'DT'
p4129
tp4130
a(Vskiing
p4131
S'NN'
p4132
tp4133
a(Vaccident
p4134
g4132
tp4135
aa(lp4136
(Vwhat
p4137
S'WP'
p4138
tp4139
a(Vdecision
p4140
S'NN'
p4141
tp4142
a(Vdid
p4143
S'VBD'
p4144
tp4145
a(VManny
p4146
S'NNP'
p4147
tp4148
a(VPacquiao
p4149
g4147
tp4150
a(Vvs.
p4151
S'FW'
p4152
tp4153
a(VTimothy
p4154
g4147
tp4155
a(VBradley
p4156
g4147
tp4157
a(Vend
p4158
S'NN'
p4159
tp4160
a(Vwith
p4161
S'IN'
p4162
tp4163
aa(lp4164
(Vwhat
p4165
S'WP'
p4166
tp4167
a(Vspirits
p4168
S'NNS'
p4169
tp4170
a(Vare
p4171
S'VBP'
p4172
tp4173
a(Vproduced
p4174
S'VBN'
p4175
tp4176
a(Vin
p4177
S'IN'
p4178
tp4179
a(VKentucky
p4180
S'NNP'
p4181
tp4182
aa(lp4183
(Vwhen
p4184
S'WRB'
p4185
tp4186
a(Vwas
p4187
S'VBD'
p4188
tp4189
a(Vhome
p4190
S'RB'
p4191
tp4192
a(Vdepot
p4193
S'NN'
p4194
tp4195
a(Vfounded
p4196
g4188
tp4197
aa(lp4198
(Vwhen
p4199
S'WRB'
p4200
tp4201
a(Vdid
p4202
S'VBD'
p4203
tp4204
a(VJapan
p4205
S'NNP'
p4206
tp4207
a(Vend
p4208
S'NN'
p4209
tp4210
a(Vas
p4211
S'IN'
p4212
tp4213
a(g436
S'DT'
p4214
tp4215
a(Vmusical
p4216
S'JJ'
p4217
tp4218
a(Vgroup
p4219
S'NN'
p4220
tp4221
aa(lp4222
(Vwhat
p4223
S'WP'
p4224
tp4225
a(Vanimal
p4226
S'NN'
p4227
tp4228
a(Vdoes
p4229
S'VBZ'
p4230
tp4231
a(Vmarscapone
p4232
S'CD'
p4233
tp4234
a(Vcheese
p4235
S'JJ'
p4236
tp4237
a(Vcome
p4238
S'VBN'
p4239
tp4240
a(Vfrom
p4241
S'IN'
p4242
tp4243
aa(lp4244
(Vwho
p4245
S'WP'
p4246
tp4247
a(Vwas
p4248
S'VBD'
p4249
tp4250
a(VTitanic
p4251
S'NNP'
p4252
tp4253
a(Vdirected
p4254
S'VBN'
p4255
tp4256
a(Vby
p4257
S'IN'
p4258
tp4259
aa(lp4260
(Vwhat
p4261
S'WP'
p4262
tp4263
a(Vmatches
p4264
S'NNS'
p4265
tp4266
a(Vhave
p4267
S'VBP'
p4268
tp4269
a(Vhad
p4270
S'VBD'
p4271
tp4272
a(Vthe
p4273
S'DT'
p4274
tp4275
a(VWBC
p4276
S'NNP'
p4277
tp4278
a(Vworld
p4279
S'NN'
p4280
tp4281
a(Vchampion
p4282
S'NN'
p4283
tp4284
a(Vtitle
p4285
g4283
tp4286
a(Vat
p4287
S'IN'
p4288
tp4289
a(Vstake
p4290
S'NN'
p4291
tp4292
aa(lp4293
(Vhow
p4294
S'WRB'
p4295
tp4296
a(Vmany
p4297
S'JJ'
p4298
tp4299
a(Vpeople
p4300
S'NNS'
p4301
tp4302
a(Vplayed
p4303
S'VBN'
p4304
tp4305
a(Vin
p4306
S'IN'
p4307
tp4308
a(Vthe
p4309
S'DT'
p4310
tp4311
a(V2010
p4312
S'CD'
p4313
tp4314
a(VFIFA
p4315
S'NNP'
p4316
tp4317
a(Vworld
p4318
S'NN'
p4319
tp4320
a(Vcup
p4321
S'NN'
p4322
tp4323
a(Vfinal
p4324
S'JJ'
p4325
tp4326
aa(lp4327
(Vhow
p4328
S'WRB'
p4329
tp4330
a(Vmany
p4331
S'JJ'
p4332
tp4333
a(Vcelebrities
p4334
S'NNS'
p4335
tp4336
a(Vhave
p4337
S'VBP'
p4338
tp4339
a(Vabused
p4340
S'VBN'
p4341
tp4342
a(Vcocaine
p4343
S'NN'
p4344
tp4345
aa(lp4346
(Vwhat
p4347
S'WDT'
p4348
tp4349
a(Vare
p4350
S'VBP'
p4351
tp4352
a(Vthe
p4353
S'DT'
p4354
tp4355
a(Vlines
p4356
S'NNS'
p4357
tp4358
a(Vof
p4359
S'IN'
p4360
tp4361
a(Vthe
p4362
g4354
tp4363
a(VNew
p4364
S'NNP'
p4365
tp4366
a(VYork
p4367
S'NNP'
p4368
tp4369
a(VCity
p4370
S'NNP'
p4371
tp4372
a(Vsubway
p4373
S'NN'
p4374
tp4375
aa(lp4376
(Vwhen
p4377
S'WRB'
p4378
tp4379
a(Vwas
p4380
S'VBD'
p4381
tp4382
a(Vcap'n
p4383
S'VBN'
p4384
tp4385
a(Vcrunch
p4386
S'NN'
p4387
tp4388
a(Vintroduced
p4389
g4381
tp4390
aa(lp4391
(Vwhen
p4392
S'WRB'
p4393
tp4394
a(Vwas
p4395
S'VBD'
p4396
tp4397
a(Voxygen
p4398
S'NN'
p4399
tp4400
a(Vdiscovered
p4401
g4396
tp4402
aa(lp4403
(Vwhen
p4404
S'WRB'
p4405
tp4406
a(Vdid
p4407
S'VBD'
p4408
tp4409
a(Veasy
p4410
S'JJ'
p4411
tp4412
a(Vaces
p4413
S'NNS'
p4414
tp4415
a(Vstop
p4416
S'VB'
p4417
tp4418
a(Vbeing
p4419
S'VBG'
p4420
tp4421
a(Vproduced
p4422
S'VBN'
p4423
tp4424
aa(lp4425
(Vwhat
p4426
S'WP'
p4427
tp4428
a(Vteam
p4429
S'NN'
p4430
tp4431
a(Vdoes
p4432
S'VBZ'
p4433
tp4434
a(VMike
p4435
S'NNP'
p4436
tp4437
a(VBabcock
p4438
g4436
tp4439
a(Vcoach
p4440
g4430
tp4441
aa(lp4442
(Vhow
p4443
S'WRB'
p4444
tp4445
a(Vmany
p4446
S'JJ'
p4447
tp4448
a(Vengineers
p4449
S'NNS'
p4450
tp4451
a(Vworked
p4452
S'VBN'
p4453
tp4454
a(Von
p4455
S'IN'
p4456
tp4457
a(Vthe
p4458
S'DT'
p4459
tp4460
a(Vdesign
p4461
S'NN'
p4462
tp4463
a(Vand
p4464
S'CC'
p4465
tp4466
a(Vconstruction
p4467
S'NN'
p4468
tp4469
a(Vof
p4470
S'IN'
p4471
tp4472
a(Vthe
p4473
g4459
tp4474
a(Vplymouth
p4475
g4462
tp4476
a(Vbreakwater
p4477
g4462
tp4478
aa(lp4479
(Vwhen
p4480
S'WRB'
p4481
tp4482
a(Vwas
p4483
S'VBD'
p4484
tp4485
a(Vthe
p4486
S'DT'
p4487
tp4488
a(VSony
p4489
S'NNP'
p4490
tp4491
a(Vnex-5
p4492
S'NN'
p4493
tp4494
a(Vreleased
p4495
g4484
tp4496
aa(lp4497
(Vwhen
p4498
S'WRB'
p4499
tp4500
a(Vwas
p4501
S'VBD'
p4502
tp4503
a(Vletter
p4504
S'NN'
p4505
tp4506
a(Vfrom
p4507
S'IN'
p4508
tp4509
a(Vamerica
p4510
S'NN'
p4511
tp4512
a(Vlast
p4513
S'JJ'
p4514
tp4515
a(Vbroadcast
p4516
g4511
tp4517
aa(lp4518
(Vin
p4519
S'IN'
p4520
tp4521
a(Vwhat
p4522
S'WP'
p4523
tp4524
a(Vzoo
p4525
S'NN'
p4526
tp4527
a(Vwas
p4528
S'VBD'
p4529
tp4530
a(Vknut
p4531
S'VBN'
p4532
tp4533
a(Vkept
p4534
g4526
tp4535
aa(lp4536
(Vwhat
p4537
S'WP'
p4538
tp4539
a(Vis
p4540
S'VBZ'
p4541
tp4542
a(Vthe
p4543
S'DT'
p4544
tp4545
a(Vhighest
p4546
S'JJS'
p4547
tp4548
a(Vdrop
p4549
S'NN'
p4550
tp4551
a(Von
p4552
S'IN'
p4553
tp4554
a(Vstealth
p4555
g4550
tp4556
aa(lp4557
(Vhow
p4558
S'WRB'
p4559
tp4560
a(Vmany
p4561
S'JJ'
p4562
tp4563
a(Vfilms
p4564
S'NNS'
p4565
tp4566
a(Vhas
p4567
S'VBZ'
p4568
tp4569
a(VTim
p4570
S'NNP'
p4571
tp4572
a(VBurton
p4573
g4571
tp4574
a(Vproduced
p4575
S'VBD'
p4576
tp4577
aa(lp4578
(Vdid
p4579
S'VBD'
p4580
tp4581
a(VJack
p4582
S'NNP'
p4583
tp4584
a(VDempsey
p4585
S'NNP'
p4586
tp4587
a(Vwin
p4588
S'VB'
p4589
tp4590
a(Vthe
p4591
S'DT'
p4592
tp4593
a(Vlong
p4594
S'JJ'
p4595
tp4596
a(Vcount
p4597
S'NN'
p4598
tp4599
a(Vfight
p4600
g4598
tp4601
aa(lp4602
(Vwho
p4603
S'WP'
p4604
tp4605
a(Vwere
p4606
S'VBD'
p4607
tp4608
a(Vthe
p4609
S'DT'
p4610
tp4611
a(Vkey
p4612
S'JJ'
p4613
tp4614
a(Vdesigners
p4615
S'NNS'
p4616
tp4617
a(Vof
p4618
S'IN'
p4619
tp4620
a(Vthe
p4621
g4610
tp4622
a(VMacintosh
p4623
S'NNP'
p4624
tp4625
aa(lp4626
(Vhow
p4627
S'WRB'
p4628
tp4629
a(Vmany
p4630
S'JJ'
p4631
tp4632
a(Vpeople
p4633
S'NNS'
p4634
tp4635
a(Vhave
p4636
S'VBP'
p4637
tp4638
a(Vwon
p4639
S'VBN'
p4640
tp4641
a(Vthe
p4642
S'DT'
p4643
tp4644
a(VNobel
p4645
S'NNP'
p4646
tp4647
a(Vpeace
p4648
S'NN'
p4649
tp4650
a(Vprize
p4651
g4649
tp4652
aa(lp4653
(Vwhere
p4654
S'WRB'
p4655
tp4656
a(Vwas
p4657
S'VBD'
p4658
tp4659
a(VOmarion
p4660
S'NNP'
p4661
tp4662
a(Vborn
p4663
S'NN'
p4664
tp4665
aa(lp4666
(Vwhat
p4667
S'WP'
p4668
tp4669
a(Vtourist
p4670
S'NN'
p4671
tp4672
a(Vattractions
p4673
S'NNS'
p4674
tp4675
a(Vare
p4676
S'VBP'
p4677
tp4678
a(Vin
p4679
S'IN'
p4680
tp4681
a(VRome
p4682
S'NNP'
p4683
tp4684
aa(lp4685
(Vwhat
p4686
S'WDT'
p4687
tp4688
a(Vare
p4689
S'VBP'
p4690
tp4691
a(Vthe
p4692
S'DT'
p4693
tp4694
a(Vmajor
p4695
S'JJ'
p4696
tp4697
a(Vexports
p4698
S'NNS'
p4699
tp4700
a(Vof
p4701
S'IN'
p4702
tp4703
a(VMadagascar
p4704
S'NN'
p4705
tp4706
aa(lp4707
(Vwhen
p4708
S'WRB'
p4709
tp4710
a(Vwas
p4711
S'VBD'
p4712
tp4713
a(Vthe
p4714
S'DT'
p4715
tp4716
a(Vconstruction
p4717
S'NN'
p4718
tp4719
a(Vof
p4720
S'IN'
p4721
tp4722
a(Vnew
p4723
S'JJ'
p4724
tp4725
a(VSteubenville
p4726
S'NNP'
p4727
tp4728
a(Vbridge
p4729
S'NN'
p4730
tp4731
a(Vfinished
p4732
g4712
tp4733
aa(lp4734
(Vhow
p4735
S'WRB'
p4736
tp4737
a(Vmany
p4738
S'JJ'
p4739
tp4740
a(Vother
p4741
S'JJ'
p4742
tp4743
a(Vnames
p4744
S'NNS'
p4745
tp4746
a(Vare
p4747
S'VBP'
p4748
tp4749
a(Vthere
p4750
S'RB'
p4751
tp4752
a(Vfor
p4753
S'IN'
p4754
tp4755
a(VJCPenney
p4756
S'NNP'
p4757
tp4758
aa(lp4759
(Vwhat
p4760
S'WP'
p4761
tp4762
a(Vlanguage
p4763
S'NN'
p4764
tp4765
a(Vfamily
p4766
S'NN'
p4767
tp4768
a(Vis
p4769
S'VBZ'
p4770
tp4771
a(Vafrikaans
p4772
S'JJ'
p4773
tp4774
a(Vpart
p4775
S'NN'
p4776
tp4777
a(Vof
p4778
S'IN'
p4779
tp4780
aa(lp4781
(Vwhat
p4782
S'WP'
p4783
tp4784
a(Vpercentage
p4785
S'NN'
p4786
tp4787
a(Vof
p4788
S'IN'
p4789
tp4790
a(Vthe
p4791
S'DT'
p4792
tp4793
a(Vgrapes
p4794
S'NNS'
p4795
tp4796
a(Vin
p4797
S'IN'
p4798
tp4799
a(g436
S'DT'
p4800
tp4801
a(V1966
p4802
S'CD'
p4803
tp4804
a(Vchateau
p4805
S'NN'
p4806
tp4807
a(Vlatour
p4808
g4803
tp4809
a(Vgrand
p4810
S'JJ'
p4811
tp4812
a(Vvin
p4813
g4795
tp4814
a(Vare
p4815
S'VBP'
p4816
tp4817
a(Vmerlot
p4818
g4806
tp4819
aa(lp4820
(Vhow
p4821
S'WRB'
p4822
tp4823
a(Vmany
p4824
S'JJ'
p4825
tp4826
a(Vhistorical
p4827
S'JJ'
p4828
tp4829
a(Vevents
p4830
S'NNS'
p4831
tp4832
a(Vhappened
p4833
S'VBN'
p4834
tp4835
a(Vin
p4836
S'IN'
p4837
tp4838
a(VSouth
p4839
S'NNP'
p4840
tp4841
a(VAmerica
p4842
S'NNP'
p4843
tp4844
aa(lp4845
(Vwhat
p4846
S'WP'
p4847
tp4848
a(Vmeteor
p4849
S'NN'
p4850
tp4851
a(Vshowers
p4852
S'NNS'
p4853
tp4854
a(Vhas
p4855
S'VBZ'
p4856
tp4857
a(Vthe
p4858
S'DT'
p4859
tp4860
a(Vcomet
p4861
g4850
tp4862
a(Vhalley
p4863
g4850
tp4864
a(Vspawned
p4865
S'VBD'
p4866
tp4867
aa(lp4868
(Vwhen
p4869
S'WRB'
p4870
tp4871
a(Vwas
p4872
S'VBD'
p4873
tp4874
a(Vpride
p4875
S'RB'
p4876
tp4877
a(Vand
p4878
S'CC'
p4879
tp4880
a(Vprejudice
p4881
g4876
tp4882
a(Vpublished
p4883
g4873
tp4884
aa(lp4885
(Vwho
p4886
S'WP'
p4887
tp4888
a(Vmanufactured
p4889
S'VBD'
p4890
tp4891
a(Vmillennium
p4892
S'NN'
p4893
tp4894
a(Vforce
p4895
g4893
tp4896
aa(lp4897
(Vwhat
p4898
S'WP'
p4899
tp4900
a(Vcharacters
p4901
S'NNS'
p4902
tp4903
a(Vwere
p4904
S'VBD'
p4905
tp4906
a(Von
p4907
S'IN'
p4908
tp4909
a(Vthe
p4910
S'DT'
p4911
tp4912
a(Vcover
p4913
S'NN'
p4914
tp4915
a(Vof
p4916
S'IN'
p4917
tp4918
a(Vbatman
p4919
S'JJ'
p4920
tp4921
a(V#
p4922
S'#'
p4923
tp4924
a(V1
p4925
S'CD'
p4926
tp4927
aa(lp4928
(Vwhat
p4929
S'WP'
p4930
tp4931
a(Vsort
p4932
S'NN'
p4933
tp4934
a(Vof
p4935
S'IN'
p4936
tp4937
a(Vweave
p4938
g4933
tp4939
a(Vis
p4940
S'VBZ'
p4941
tp4942
a(Vused
p4943
S'VBN'
p4944
tp4945
a(Vto
p4946
S'TO'
p4947
tp4948
a(Vmake
p4949
S'VB'
p4950
tp4951
a(Vtweed
p4952
g4933
tp4953
aa(lp4954
(Vwhen
p4955
S'WRB'
p4956
tp4957
a(VGatorade
p4958
S'NNP'
p4959
tp4960
a(Vwas
p4961
S'VBD'
p4962
tp4963
a(Vfirst
p4964
S'RB'
p4965
tp4966
a(Vdeveloped
p4967
S'VBN'
p4968
tp4969
aa(lp4970
(Von
p4971
S'IN'
p4972
tp4973
a(Vhow
p4974
S'WRB'
p4975
tp4976
a(Vmany
p4977
S'JJ'
p4978
tp4979
a(Vprojects
p4980
S'NNS'
p4981
tp4982
a(Vwas
p4983
S'VBD'
p4984
tp4985
a(VJames
p4986
S'NNP'
p4987
tp4988
a(VWalker
p4989
S'NNP'
p4990
tp4991
a(g436
S'DT'
p4992
tp4993
a(Vdesign
p4994
S'NN'
p4995
tp4996
a(Vengineer
p4997
g4995
tp4998
aa(lp4999
(Vhow
p5000
S'WRB'
p5001
tp5002
a(Vmany
p5003
S'JJ'
p5004
tp5005
a(Vawards
p5006
S'NNS'
p5007
tp5008
a(Vdid
p5009
S'VBD'
p5010
tp5011
a(Vthe
p5012
S'DT'
p5013
tp5014
a(Vmovie
p5015
S'NN'
p5016
tp5017
a(g3712
S'CD'
p5018
tp5019
a(Vmile
p5020
S'NN'
p5021
tp5022
a(Vwin
p5023
g5021
tp5024
aa(lp5025
(Vhow
p5026
S'WRB'
p5027
tp5028
a(Vmany
p5029
S'JJ'
p5030
tp5031
a(Vpeople
p5032
S'NNS'
p5033
tp5034
a(Vpractice
p5035
S'NN'
p5036
tp5037
a(Vbuddhism
p5038
S'NN'
p5039
tp5040
aa(lp5041
(Vhow
p5042
S'WRB'
p5043
tp5044
a(Vmuch
p5045
S'RB'
p5046
tp5047
a(Vdid
p5048
S'VBD'
p5049
tp5050
a(Vthe
p5051
S'DT'
p5052
tp5053
a(Vconstruction
p5054
S'NN'
p5055
tp5056
a(Vof
p5057
S'IN'
p5058
tp5059
a(Vthe
p5060
g5052
tp5061
a(VTaj
p5062
S'NNP'
p5063
tp5064
a(VMahal
p5065
g5063
tp5066
a(Vcost
p5067
S'NN'
p5068
tp5069
aa(lp5070
(Vwhat
p5071
S'WDT'
p5072
tp5073
a(Vare
p5074
S'VBP'
p5075
tp5076
a(Vsome
p5077
S'DT'
p5078
tp5079
a(Vobject-oriented
p5080
S'JJ'
p5081
tp5082
a(Vprogramming
p5083
S'NN'
p5084
tp5085
a(Vlanguages
p5086
S'NNS'
p5087
tp5088
aa(lp5089
(Vwho
p5090
S'WP'
p5091
tp5092
a(Vwere
p5093
S'VBD'
p5094
tp5095
a(Vthe
p5096
S'DT'
p5097
tp5098
a(Vcurators
p5099
S'NNS'
p5100
tp5101
a(Vfor
p5102
S'IN'
p5103
tp5104
a(VRenoir
p5105
S'NNP'
p5106
tp5107
a(Vin
p5108
S'IN'
p5109
tp5110
a(Vthe
p5111
g5097
tp5112
a(V20th
p5113
S'JJ'
p5114
tp5115
a(Vcentury
p5116
S'NN'
p5117
tp5118
aa(lp5119
(Vfor
p5120
S'IN'
p5121
tp5122
a(Vwhat
p5123
S'WP'
p5124
tp5125
a(Vcountry
p5126
S'NN'
p5127
tp5128
a(Vdid
p5129
S'VBD'
p5130
tp5131
a(VBernard
p5132
S'NNP'
p5133
tp5134
a(VLagat
p5135
g5133
tp5136
a(Vplay
p5137
S'NN'
p5138
tp5139
a(Vin
p5140
S'IN'
p5141
tp5142
a(Vthe
p5143
S'DT'
p5144
tp5145
a(V2000
p5146
S'CD'
p5147
tp5148
a(Vsummer
p5149
S'NN'
p5150
tp5151
a(Volympics
p5152
S'NNS'
p5153
tp5154
aa(lp5155
(Vwhat
p5156
S'WP'
p5157
tp5158
a(Vtitles
p5159
S'VBZ'
p5160
tp5161
a(Vwere
p5162
S'VBD'
p5163
tp5164
a(Vat
p5165
S'IN'
p5166
tp5167
a(Vstake
p5168
S'NN'
p5169
tp5170
a(Vin
p5171
S'IN'
p5172
tp5173
a(Vthe
p5174
S'DT'
p5175
tp5176
a(Vthe
p5177
g5175
tp5178
a(Vrumble
p5179
S'JJ'
p5180
tp5181
a(Vin
p5182
g5172
tp5183
a(Vthe
p5184
g5175
tp5185
a(Vjungle
p5186
S'NN'
p5187
tp5188
aa(lp5189
(Vwhat
p5190
S'WP'
p5191
tp5192
a(Vgames
p5193
S'NNS'
p5194
tp5195
a(Vhas
p5196
S'VBZ'
p5197
tp5198
a(VElectronic
p5199
S'JJ'
p5200
tp5201
a(VArts
p5202
S'NNS'
p5203
tp5204
a(Vdeveloped
p5205
S'VBD'
p5206
tp5207
aa(lp5208
(Vhow
p5209
S'WRB'
p5210
tp5211
a(Vmany
p5212
S'JJ'
p5213
tp5214
a(Vstores
p5215
S'NNS'
p5216
tp5217
a(Vare
p5218
S'VBP'
p5219
tp5220
a(Vin
p5221
S'IN'
p5222
tp5223
a(VNittany
p5224
S'NNP'
p5225
tp5226
a(Vmall
p5227
S'NN'
p5228
tp5229
aa(lp5230
(Vwhen
p5231
S'WRB'
p5232
tp5233
a(Vwas
p5234
S'VBD'
p5235
tp5236
a(Vnutty
p5237
S'RB'
p5238
tp5239
a(Vprofessor
p5240
S'NN'
p5241
tp5242
a(Vreleased
p5243
g5235
tp5244
aa(lp5245
(Vwho
p5246
S'WP'
p5247
tp5248
a(Vwas
p5249
S'VBD'
p5250
tp5251
a(Vthe
p5252
S'DT'
p5253
tp5254
a(Veditor
p5255
S'NN'
p5256
tp5257
a(Vin
p5258
S'IN'
p5259
tp5260
a(Vchief
p5261
S'NN'
p5262
tp5263
a(Vof
p5264
S'IN'
p5265
tp5266
a(VDie
p5267
S'NNP'
p5268
tp5269
a(VWelt
p5270
g5268
tp5271
a(Vin
p5272
g5259
tp5273
a(V2000
p5274
S'CD'
p5275
tp5276
aa(lp5277
(Vwhat
p5278
S'WP'
p5279
tp5280
a(Vis
p5281
S'VBZ'
p5282
tp5283
a(Vthe
p5284
S'DT'
p5285
tp5286
a(Vnutty
p5287
S'JJ'
p5288
tp5289
a(Vprofessor
p5290
S'NN'
p5291
tp5292
a(Vrated
p5293
S'VBD'
p5294
tp5295
aa(lp5296
(Vhow
p5297
S'WRB'
p5298
tp5299
a(Vmany
p5300
S'JJ'
p5301
tp5302
a(Vfilm
p5303
S'NN'
p5304
tp5305
a(Vperformances
p5306
S'NNS'
p5307
tp5308
a(Vdid
p5309
S'VBD'
p5310
tp5311
a(VJack
p5312
S'NNP'
p5313
tp5314
a(VAlbertson
p5315
S'NNP'
p5316
tp5317
a(Vdo
p5318
S'VBP'
p5319
tp5320
aa(lp5321
(Vwhat
p5322
S'WP'
p5323
tp5324
a(Vmusicians
p5325
S'NNS'
p5326
tp5327
a(Vhave
p5328
S'VBP'
p5329
tp5330
a(Vdied
p5331
S'VBN'
p5332
tp5333
a(Vof
p5334
S'IN'
p5335
tp5336
a(Vlung
p5337
S'NN'
p5338
tp5339
a(Vcancer
p5340
S'NN'
p5341
tp5342
aa(lp5343
(Vwhat
p5344
S'WP'
p5345
tp5346
a(Vtype
p5347
S'NN'
p5348
tp5349
a(Vof
p5350
S'IN'
p5351
tp5352
a(Vbridge
p5353
g5348
tp5354
a(Vis
p5355
S'VBZ'
p5356
tp5357
a(Vthe
p5358
S'DT'
p5359
tp5360
a(VManhattan
p5361
S'NNP'
p5362
tp5363
a(Vbridge
p5364
g5348
tp5365
aa(lp5366
(Vwhat
p5367
S'WP'
p5368
tp5369
a(Vsport
p5370
S'NN'
p5371
tp5372
a(Vdid
p5373
S'VBD'
p5374
tp5375
a(VScott
p5376
S'NNP'
p5377
tp5378
a(VAnderson
p5379
g5377
tp5380
a(Vplay
p5381
g5371
tp5382
a(Vin
p5383
S'IN'
p5384
tp5385
a(Vthe
p5386
S'DT'
p5387
tp5388
a(V1992
p5389
S'CD'
p5390
tp5391
a(Vsummer
p5392
S'NN'
p5393
tp5394
a(Volympics
p5395
S'NNS'
p5396
tp5397
aa(lp5398
(Vwho
p5399
S'WP'
p5400
tp5401
a(Vdesigned
p5402
S'VBD'
p5403
tp5404
a(Vthe
p5405
S'DT'
p5406
tp5407
a(Vparthenon
p5408
S'NN'
p5409
tp5410
aa(lp5411
(Vhow
p5412
S'WRB'
p5413
tp5414
a(Vmany
p5415
S'JJ'
p5416
tp5417
a(Vmonarchs
p5418
S'NNS'
p5419
tp5420
a(Vare
p5421
S'VBP'
p5422
tp5423
a(Vfrom
p5424
S'IN'
p5425
tp5426
a(Vthe
p5427
S'DT'
p5428
tp5429
a(Vhouse
p5430
S'NN'
p5431
tp5432
a(Vof
p5433
S'IN'
p5434
tp5435
a(VTudor
p5436
S'NNP'
p5437
tp5438
aa(lp5439
(Vwhat
p5440
S'WP'
p5441
tp5442
a(Vgerman
p5443
S'JJ'
p5444
tp5445
a(Vathletes
p5446
S'NNS'
p5447
tp5448
a(Vhave
p5449
S'VBP'
p5450
tp5451
a(Vparticipated
p5452
S'VBN'
p5453
tp5454
a(Vin
p5455
S'IN'
p5456
tp5457
a(Vthe
p5458
S'DT'
p5459
tp5460
a(Volympics
p5461
g5447
tp5462
aa(lp5463
(Vwhat
p5464
S'WP'
p5465
tp5466
a(Vteams
p5467
S'VBZ'
p5468
tp5469
a(Vdid
p5470
S'VBD'
p5471
tp5472
a(VBabe
p5473
S'NNP'
p5474
tp5475
a(VRuth
p5476
g5474
tp5477
a(Vplay
p5478
S'NN'
p5479
tp5480
a(Vfor
p5481
S'IN'
p5482
tp5483
aa(lp5484
(Vin
p5485
S'IN'
p5486
tp5487
a(Vwhat
p5488
S'WP'
p5489
tp5490
a(Vevents
p5491
S'NNS'
p5492
tp5493
a(Vdid
p5494
S'VBD'
p5495
tp5496
a(VIan
p5497
S'NNP'
p5498
tp5499
a(VThorpe
p5500
g5498
tp5501
a(Vcompete
p5502
S'NN'
p5503
tp5504
a(Vin
p5505
g5486
tp5506
a(Vthe
p5507
S'DT'
p5508
tp5509
a(V2004
p5510
S'CD'
p5511
tp5512
a(Vsummer
p5513
S'NN'
p5514
tp5515
a(Volympics
p5516
S'NNS'
p5517
tp5518
aa(lp5519
(Vwhat
p5520
S'WP'
p5521
tp5522
a(Vis
p5523
S'VBZ'
p5524
tp5525
a(Vthe
p5526
S'DT'
p5527
tp5528
a(Vwingspan
p5529
S'NN'
p5530
tp5531
a(Vof
p5532
S'IN'
p5533
tp5534
a(Van
p5535
S'DT'
p5536
tp5537
a(VEclipse
p5538
S'NNP'
p5539
tp5540
a(V500
p5541
S'CD'
p5542
tp5543
aa(lp5544
(Vwho
p5545
S'WP'
p5546
tp5547
a(Vsponsors
p5548
S'VBZ'
p5549
tp5550
a(Vthe
p5551
S'DT'
p5552
tp5553
a(Vhoby
p5554
S'NN'
p5555
tp5556
a(Vseminars
p5557
S'NNS'
p5558
tp5559
aa(lp5560
(Vwho
p5561
S'WP'
p5562
tp5563
a(Vfounded
p5564
S'VBD'
p5565
tp5566
a(Vthe
p5567
S'DT'
p5568
tp5569
a(Vorder
p5570
S'NN'
p5571
tp5572
a(Vof
p5573
S'IN'
p5574
tp5575
a(Vthe
p5576
g5568
tp5577
a(Vdragon
p5578
S'NN'
p5579
tp5580
aa(lp5581
(Vwho
p5582
S'WP'
p5583
tp5584
a(Vproduced
p5585
S'VBD'
p5586
tp5587
a(Vsabotage
p5588
S'NN'
p5589
tp5590
a(Vby
p5591
S'IN'
p5592
tp5593
a(Vthe
p5594
S'DT'
p5595
tp5596
a(VBeastie
p5597
S'NNP'
p5598
tp5599
a(Vboys
p5600
S'NNS'
p5601
tp5602
aa(lp5603
(Vhow
p5604
S'WRB'
p5605
tp5606
a(Vmany
p5607
S'JJ'
p5608
tp5609
a(Vruns
p5610
S'VBZ'
p5611
tp5612
a(Vdoes
p5613
S'VBZ'
p5614
tp5615
a(Vthe
p5616
S'DT'
p5617
tp5618
a(Vthunder
p5619
S'NN'
p5620
tp5621
a(Vridge
p5622
g5620
tp5623
a(Vski
p5624
S'JJ'
p5625
tp5626
a(Varea
p5627
S'NN'
p5628
tp5629
a(Vhave
p5630
S'VBP'
p5631
tp5632
aa(lp5633
(Vhow
p5634
S'WRB'
p5635
tp5636
a(Vmany
p5637
S'JJ'
p5638
tp5639
a(Vpeople
p5640
S'NNS'
p5641
tp5642
a(Vdied
p5643
S'VBD'
p5644
tp5645
a(Vin
p5646
S'IN'
p5647
tp5648
a(Vhurricane
p5649
S'NN'
p5650
tp5651
a(VWilma
p5652
S'NNP'
p5653
tp5654
aa(lp5655
(Vwho
p5656
S'WP'
p5657
tp5658
a(Vdiscovered
p5659
S'VBD'
p5660
tp5661
a(Vthe
p5662
S'DT'
p5663
tp5664
a(Vrings
p5665
S'NNS'
p5666
tp5667
a(Vof
p5668
S'IN'
p5669
tp5670
a(VSaturn
p5671
S'NNP'
p5672
tp5673
aa(lp5674
(Vwhat
p5675
S'WP'
p5676
tp5677
a(Vis
p5678
S'VBZ'
p5679
tp5680
a(Vthe
p5681
S'DT'
p5682
tp5683
a(Vlcd
p5684
S'NN'
p5685
tp5686
a(Vscreen
p5687
S'JJ'
p5688
tp5689
a(Vresolution
p5690
g5685
tp5691
a(Vof
p5692
S'IN'
p5693
tp5694
a(g436
S'DT'
p5695
tp5696
a(VNikon
p5697
S'NNP'
p5698
tp5699
a(Vd80
p5700
g5685
tp5701
aa(lp5702
(Vwhen
p5703
S'WRB'
p5704
tp5705
a(Vwas
p5706
S'VBD'
p5707
tp5708
a(Vthe
p5709
S'DT'
p5710
tp5711
a(VSan
p5712
S'NNP'
p5713
tp5714
a(VDiego
p5715
S'NNP'
p5716
tp5717
a(Vzoo
p5718
S'NN'
p5719
tp5720
a(Vopened
p5721
g5707
tp5722
aa(lp5723
(Vhow
p5724
S'WRB'
p5725
tp5726
a(Vheavy
p5727
S'JJ'
p5728
tp5729
a(Vis
p5730
S'VBZ'
p5731
tp5732
a(g436
S'DT'
p5733
tp5734
a(VPanasonic
p5735
g5728
tp5736
a(Vlumix
p5737
S'NN'
p5738
tp5739
a(Vdmc-tz3
p5740
g5738
tp5741
aa(lp5742
(Vwhere
p5743
S'WRB'
p5744
tp5745
a(Vwas
p5746
S'VBD'
p5747
tp5748
a(VLiam
p5749
S'NNP'
p5750
tp5751
a(VGallagher
p5752
g5750
tp5753
a(Vborn
p5754
S'NN'
p5755
tp5756
aa(lp5757
(Vhow
p5758
S'WRB'
p5759
tp5760
a(Vmany
p5761
S'JJ'
p5762
tp5763
a(Vbeers
p5764
S'NNS'
p5765
tp5766
a(Vcome
p5767
S'VBP'
p5768
tp5769
a(g436
S'DT'
p5770
tp5771
a(Vcan
p5772
S'MD'
p5773
tp5774
aa(lp5775
(Vwhat
p5776
S'WP'
p5777
tp5778
a(Vis
p5779
S'VBZ'
p5780
tp5781
a(Vthe
p5782
S'DT'
p5783
tp5784
a(Vsubject
p5785
S'NN'
p5786
tp5787
a(Vof
p5788
S'IN'
p5789
tp5790
a(Vthe
p5791
g5783
tp5792
a(Vatlantic
p5793
S'JJ'
p5794
tp5795
a(Vmonthly
p5796
g5786
tp5797
aa(lp5798
(Vwhat
p5799
S'WDT'
p5800
tp5801
a(Vwas
p5802
S'VBD'
p5803
tp5804
a(Vthe
p5805
S'DT'
p5806
tp5807
a(Vamerican
p5808
S'JJ'
p5809
tp5810
a(Vpast
p5811
S'NN'
p5812
tp5813
a(Vabout
p5814
S'IN'
p5815
tp5816
aa(lp5817
(Vwho
p5818
S'WP'
p5819
tp5820
a(Vdestroyed
p5821
S'VBD'
p5822
tp5823
a(Vthe
p5824
S'DT'
p5825
tp5826
a(Vone
p5827
S'CD'
p5828
tp5829
a(Vring
p5830
S'NN'
p5831
tp5832
aa(lp5833
(Vhow
p5834
S'WRB'
p5835
tp5836
a(Vmany
p5837
S'JJ'
p5838
tp5839
a(Vstudents
p5840
S'NNS'
p5841
tp5842
a(Vare
p5843
S'VBP'
p5844
tp5845
a(Vthere
p5846
S'RB'
p5847
tp5848
a(Vat
p5849
S'IN'
p5850
tp5851
a(Vthe
p5852
S'DT'
p5853
tp5854
a(Vuniversity
p5855
S'NN'
p5856
tp5857
a(Vof
p5858
S'IN'
p5859
tp5860
a(VIceland
p5861
S'NNP'
p5862
tp5863
aa(lp5864
(Vwho
p5865
S'WP'
p5866
tp5867
a(Vfounded
p5868
S'VBD'
p5869
tp5870
a(Vthe
p5871
S'DT'
p5872
tp5873
a(VRed
p5874
S'NNP'
p5875
tp5876
a(VCross
p5877
g5875
tp5878
aa(lp5879
(Vhow
p5880
S'WRB'
p5881
tp5882
a(Vmany
p5883
S'JJ'
p5884
tp5885
a(Vradio
p5886
S'NN'
p5887
tp5888
a(Vstations
p5889
S'NNS'
p5890
tp5891
a(Vdoes
p5892
S'VBZ'
p5893
tp5894
a(VCBS
p5895
S'NNP'
p5896
tp5897
a(Vradio
p5898
g5887
tp5899
a(Vown
p5900
S'JJ'
p5901
tp5902
aa(lp5903
(Vwhat
p5904
S'WP'
p5905
tp5906
a(Vis
p5907
S'VBZ'
p5908
tp5909
a(VAshok
p5910
S'NNP'
p5911
tp5912
a(VMalhotra
p5913
g5911
tp5914
a(V's
p5915
S'POS'
p5916
tp5917
a(Vbowling
p5918
S'NN'
p5919
tp5920
a(Vpace
p5921
S'NN'
p5922
tp5923
aa(lp5924
(Vhow
p5925
S'WRB'
p5926
tp5927
a(Vlong
p5928
S'JJ'
p5929
tp5930
a(Vis
p5931
S'VBZ'
p5932
tp5933
a(Vwired_s
p5934
g5929
tp5935
a(Vgadget
p5936
S'NN'
p5937
tp5938
a(Vlab
p5939
g5937
tp5940
a(Vpodcast
p5941
g5937
tp5942
aa(lp5943
(Vhow
p5944
S'WRB'
p5945
tp5946
a(Vmany
p5947
S'JJ'
p5948
tp5949
a(Vpoliticians
p5950
S'NNS'
p5951
tp5952
a(Vhave
p5953
S'VBP'
p5954
tp5955
a(Vserved
p5956
S'VBN'
p5957
tp5958
a(Vin
p5959
S'IN'
p5960
tp5961
a(Vthe
p5962
S'DT'
p5963
tp5964
a(VUS
p5965
S'NNP'
p5966
tp5967
a(Vnavy
p5968
S'NN'
p5969
tp5970
aa(lp5971
(Vwhat
p5972
S'WP'
p5973
tp5974
a(Vcauses
p5975
S'VBZ'
p5976
tp5977
a(Vbipolar
p5978
S'JJ'
p5979
tp5980
a(Vdisorder
p5981
S'NN'
p5982
tp5983
aa(lp5984
(Vwhat
p5985
S'WP'
p5986
tp5987
a(Vcauses
p5988
S'VBZ'
p5989
tp5990
a(Vsyphilis
p5991
S'NN'
p5992
tp5993
aa(lp5994
(Vwho
p5995
S'WP'
p5996
tp5997
a(Vsaid
p5998
S'VBD'
p5999
tp6000
a(Vthat_s
p6001
S'VBP'
p6002
tp6003
a(Vone
p6004
S'CD'
p6005
tp6006
a(Vsmall
p6007
S'JJ'
p6008
tp6009
a(Vstep
p6010
S'NN'
p6011
tp6012
a(Vfor
p6013
S'IN'
p6014
tp6015
a(Vman
p6016
S'NN'
p6017
tp6018
a(V,
p6019
S','
p6020
tp6021
a(Vone
p6022
g6005
tp6023
a(Vgiant
p6024
g6011
tp6025
a(Vleap
p6026
g6011
tp6027
a(Vfor
p6028
g6014
tp6029
a(Vmankind
p6030
g6011
tp6031
aa(lp6032
(Vwhat
p6033
S'WP'
p6034
tp6035
a(Vbicycle
p6036
S'NN'
p6037
tp6038
a(Vmodels
p6039
S'NNS'
p6040
tp6041
a(Vdoes
p6042
S'VBZ'
p6043
tp6044
a(Vraleigh
p6045
S'JJ'
p6046
tp6047
a(Vmanufacture
p6048
g6037
tp6049
aa(lp6050
(Vwhat
p6051
S'WP'
p6052
tp6053
a(Vplay
p6054
S'NN'
p6055
tp6056
a(Vwas
p6057
S'VBD'
p6058
tp6059
a(Vwest
p6060
S'JJ'
p6061
tp6062
a(Vside
p6063
g6055
tp6064
a(Vstory
p6065
S'NN'
p6066
tp6067
a(Vadapted
p6068
S'VBN'
p6069
tp6070
a(Vfrom
p6071
S'IN'
p6072
tp6073
aa(lp6074
(Vwhat
p6075
S'WP'
p6076
tp6077
a(Vteam
p6078
S'NN'
p6079
tp6080
a(Vdoes
p6081
S'VBZ'
p6082
tp6083
a(VAlan
p6084
S'NNP'
p6085
tp6086
a(VButcher
p6087
S'NNP'
p6088
tp6089
a(Vcoach
p6090
g6079
tp6091
aa(lp6092
(Vhow
p6093
S'WRB'
p6094
tp6095
a(Vmany
p6096
S'JJ'
p6097
tp6098
a(Vspeeches
p6099
S'NNS'
p6100
tp6101
a(Vhave
p6102
S'VBP'
p6103
tp6104
a(Vbeen
p6105
S'VBN'
p6106
tp6107
a(Vgiven
p6108
S'VBN'
p6109
tp6110
a(Vabout
p6111
S'IN'
p6112
tp6113
a(Vworld
p6114
S'NN'
p6115
tp6116
a(Vwar
p6117
S'NN'
p6118
tp6119
a(Vii
p6120
S'NN'
p6121
tp6122
aa(lp6123
(Vwho
p6124
S'WP'
p6125
tp6126
a(Vis
p6127
S'VBZ'
p6128
tp6129
a(Vthe
p6130
S'DT'
p6131
tp6132
a(Vnewscaster
p6133
S'NN'
p6134
tp6135
a(Von
p6136
S'IN'
p6137
tp6138
a(VABC
p6139
S'NNP'
p6140
tp6141
a(V6
p6142
S'CD'
p6143
tp6144
a(Vnews
p6145
S'NN'
p6146
tp6147
aa(lp6148
(Vwho
p6149
S'WP'
p6150
tp6151
a(Vis
p6152
S'VBZ'
p6153
tp6154
a(Vthe
p6155
S'DT'
p6156
tp6157
a(Vpresent
p6158
S'JJ'
p6159
tp6160
a(Vnewscaster
p6161
S'NN'
p6162
tp6163
a(Von
p6164
S'IN'
p6165
tp6166
a(VCBS
p6167
S'NNP'
p6168
tp6169
a(Vevening
p6170
S'VBG'
p6171
tp6172
a(Vnews
p6173
S'NN'
p6174
tp6175
aa.