(lp0
(lp1
I4
aI3
aI2
aI1
aI0
aI0
aI4
aI1
aa(lp2
I3
aI2
aI1
aI4
aI0
aI0
aI0
aI1
aa(lp3
I3
aI2
aI2
aI1
aI1
aI1
aI4
aI0
aa(lp4
I3
aI1
aI4
aI2
aI4
aI4
aI0
aI0
aI0
aI0
aa(lp5
I3
aI1
aI4
aI2
aI2
aI4
aI4
aI0
aI0
aI0
aa(lp6
I3
aI3
aI1
aI4
aI0
aI0
aI1
aI1
aa(lp7
I3
aI2
aI2
aI2
aI4
aI0
aI0
aI0
aI0
aI0
aI0
aa(lp8
I3
aI3
aI2
aI1
aI4
aI0
aI0
aI0
aI0
aa(lp9
I3
aI2
aI1
aI0
aI1
aI1
aa(lp10
I3
aI2
aI1
aI1
aI1
aI4
aI0
aI0
aI0
aa(lp11
I3
aI2
aI1
aI1
aI1
aI1
aI1
aI4
aI0
aI0
aa(lp12
I3
aI3
aI2
aI2
aI2
aI1
aI1
aa(lp13
I3
aI1
aI4
aI0
aI0
aI1
aa(lp14
I3
aI3
aI2
aI1
aI1
aI4
aI0
aa(lp15
I3
aI1
aI4
aI2
aI4
aI4
aI0
aI0
aa(lp16
I3
aI1
aI0
aI0
aI1
aI1
aa(lp17
I3
aI3
aI1
aI4
aI0
aI0
aI0
aI0
aI0
aa(lp18
I3
aI2
aI2
aI2
aI1
aI0
aI0
aa(lp19
I3
aI2
aI2
aI1
aI0
aI0
aI0
aI1
aI1
aa(lp20
I3
aI2
aI1
aI0
aI0
aI4
aI1
aI1
aa(lp21
I3
aI3
aI1
aI4
aI0
aI0
aI0
aI1
aI2
aI2
aI2
aI2
aa(lp22
I3
aI2
aI1
aI4
aI0
aI1
aa(lp23
I3
aI3
aI2
aI1
aI0
aI1
aa(lp24
I3
aI1
aI0
aI1
aI1
aI4
aI0
aI0
aI2
aI2
aa(lp25
I3
aI3
aI2
aI2
aI2
aI1
aI1
aI0
aI0
aI0
aa(lp26
I3
aI3
aI2
aI1
aI0
aI0
aI1
aa(lp27
I3
aI1
aI0
aI0
aI0
aI0
aa(lp28
I3
aI1
aI4
aI0
aI0
aI0
aI0
aI2
aI1
aa(lp29
I3
aI3
aI2
aI2
aI1
aI1
aI1
aI4
aI0
aI0
aa(lp30
I3
aI1
aI0
aI0
aI2
aI2
aa(lp31
I3
aI1
aI4
aI2
aI4
aI0
aa(lp32
I3
aI1
aI4
aI2
aI2
aI4
aI0
aI2
aI2
aa(lp33
I2
aI3
aI2
aI1
aI4
aI0
aI0
aI0
aI1
aI1
aa(lp34
I3
aI1
aI0
aI0
aI2
aI1
aa(lp35
I3
aI2
aI1
aI0
aI0
aa(lp36
I3
aI1
aI0
aI0
aI1
aa(lp37
I3
aI1
aI0
aI0
aI0
aI1
aI1
aa(lp38
I3
aI1
aI0
aI0
aI1
aI1
aI4
aI4
aI0
aI0
aa(lp39
I3
aI1
aI4
aI2
aI1
aI1
aI4
aI4
aI0
aI0
aa(lp40
I3
aI3
aI2
aI1
aI0
aI0
aI0
aI1
aa(lp41
I3
aI3
aI2
aI1
aI4
aI0
aI0
aI1
aa(lp42
I4
aI3
aI2
aI2
aI2
aI1
aI0
aI0
aI1
aI1
aa(lp43
I3
aI1
aI4
aI2
aI4
aI0
aa(lp44
I3
aI1
aI4
aI0
aa(lp45
I3
aI3
aI2
aI2
aI1
aI0
aI0
aI1
aI1
aa(lp46
I3
aI1
aI4
aI2
aI2
aI2
aI4
aI4
aI0
aI0
aa(lp47
I3
aI3
aI2
aI1
aI4
aI0
aI0
aI1
aI2
aI2
aa(lp48
I3
aI3
aI2
aI2
aI1
aI0
aI1
aa(lp49
I3
aI1
aI4
aI0
aI0
aa(lp50
I3
aI2
aI2
aI2
aI1
aI4
aI0
aI0
aI0
aI1
aa(lp51
I3
aI2
aI2
aI2
aI2
aI1
aI1
aI0
aa(lp52
I3
aI1
aI4
aI2
aI4
aI4
aI0
aI0
aI0
aa(lp53
I3
aI1
aI0
aI0
aI0
aI2
aI1
aa(lp54
I3
aI2
aI1
aI0
aI1
aa(lp55
I3
aI1
aI4
aI2
aI2
aI4
aI4
aI0
aa(lp56
I3
aI1
aI0
aI1
aa(lp57
I3
aI1
aI4
aI0
aI0
aI0
aI0
aa(lp58
I3
aI2
aI1
aI0
aa(lp59
I3
aI2
aI2
aI1
aI1
aI0
aI0
aa(lp60
I3
aI3
aI2
aI2
aI1
aI0
aI1
aa(lp61
I3
aI2
aI1
aI1
aI0
aa(lp62
I3
aI2
aI2
aI2
aI1
aI0
aa(lp63
I3
aI1
aI4
aI2
aI2
aI4
aI0
aI0
aI0
aa(lp64
I3
aI2
aI1
aI0
aI0
aI1
aI1
aa(lp65
I3
aI3
aI2
aI2
aI2
aI1
aI1
aI1
aI0
aa(lp66
I3
aI1
aI4
aI2
aI2
aI4
aI4
aI0
aI0
aa(lp67
I3
aI1
aI0
aI0
aI1
aI4
aI0
aI0
aI0
aa(lp68
I3
aI1
aI4
aI2
aI4
aI4
aI0
aI0
aI0
aI0
aI0
aa(lp69
I3
aI1
aI4
aI2
aI2
aI2
aI4
aI4
aI0
aI0
aI0
aa(lp70
I4
aI1
aI4
aI0
aI0
aa(lp71
I3
aI1
aI0
aI0
aI1
aa(lp72
I3
aI1
aI0
aa(lp73
I3
aI1
aI4
aI0
aI0
aI0
aa(lp74
I4
aI2
aI1
aI0
aI0
aI1
aI2
aI4
aI2
aI2
aI2
aa(lp75
I3
aI1
aI4
aI2
aI4
aI0
aa(lp76
I3
aI2
aI1
aI1
aI1
aI0
aI0
aa(lp77
I3
aI1
aI4
aI2
aI4
aI4
aI0
aI0
aa(lp78
I3
aI3
aI2
aI1
aI1
aI1
aI1
aI0
aI0
aI4
aI0
aa(lp79
I3
aI3
aI2
aI2
aI1
aI0
aI0
aI1
aa(lp80
I3
aI1
aI0
aI0
aI0
aI2
aa(lp81
I3
aI1
aI4
aI0
aI0
aI0
aI1
aI1
aa(lp82
I3
aI1
aI4
aI2
aI4
aI4
aI0
aI0
aa(lp83
I3
aI1
aI0
aI0
aI1
aa(lp84
I3
aI1
aI0
aI0
aI0
aI1
aa(lp85
I3
aI2
aI1
aI0
aI0
aI1
aa(lp86
I3
aI3
aI2
aI2
aI1
aI0
aI1
aa(lp87
I2
aI2
aI3
aI2
aI1
aI0
aI0
aI1
aa(lp88
I3
aI2
aI1
aI0
aI0
aI1
aI1
aa(lp89
I3
aI3
aI2
aI2
aI2
aI1
aI0
aI0
aI1
aa(lp90
I3
aI1
aI4
aI0
aI0
aI2
aI1
aa(lp91
I3
aI1
aI4
aI2
aI2
aI4
aI0
aI0
aI0
aI0
aa(lp92
I3
aI1
aI0
aa(lp93
I3
aI1
aI4
aI2
aI2
aI1
aI1
aI4
aI0
aa(lp94
I3
aI1
aI4
aI0
aI0
aI0
aI1
aa(lp95
I3
aI2
aI1
aI0
aI1
aa(lp96
I3
aI2
aI1
aI0
aI0
aI1
aa(lp97
I3
aI3
aI2
aI1
aI0
aI1
aa(lp98
I3
aI1
aI4
aI0
aI1
aa(lp99
I3
aI1
aI4
aI0
aI0
aI0
aI0
aI0
aI1
aa(lp100
I3
aI1
aI0
aI1
aI1
aI1
aa(lp101
I3
aI1
aI4
aI0
aI0
aI0
aI0
aa(lp102
I3
aI1
aI0
aI0
aa(lp103
I3
aI1
aI4
aI0
aI0
aI1
aa(lp104
I3
aI1
aI0
aI1
aa(lp105
I3
aI3
aI2
aI2
aI1
aI2
aI4
aI0
aa(lp106
I3
aI3
aI2
aI1
aI1
aI1
aI1
aI0
aI0
aI0
aa(lp107
I3
aI2
aI1
aI1
aI1
aI0
aI0
aa(lp108
I3
aI3
aI2
aI2
aI1
aI4
aI0
aa(lp109
I3
aI1
aI4
aI0
aI0
aI0
aI0
aI1
aI4
aI4
aI0
aI0
aI0
aI0
aa(lp110
I3
aI1
aI4
aI2
aI4
aI4
aI0
aI0
aI1
aa(lp111
I3
aI1
aI4
aI0
aI2
aI2
aI2
aa(lp112
I3
aI1
aI4
aI0
aI0
aI0
aI0
aa(lp113
I3
aI1
aI4
aI2
aI4
aI4
aI0
aI0
aI1
aa(lp114
I3
aI1
aI0
aI0
aI1
aa(lp115
I3
aI1
aI0
aI0
aI1
aI1
aa(lp116
I3
aI1
aI0
aI0
aa(lp117
I3
aI1
aI4
aI0
aI0
aI1
aa(lp118
I3
aI1
aI4
aI2
aI4
aI2
aI1
aa(lp119
I3
aI1
aI0
aI0
aI1
aa(lp120
I3
aI1
aI4
aI0
aI0
aI0
aI2
aa(lp121
I3
aI1
aI0
aa(lp122
I3
aI1
aI0
aI0
aI0
aI0
aa(lp123
I3
aI3
aI2
aI1
aI0
aI0
aI1
aa(lp124
I3
aI1
aI4
aI0
aI0
aI2
aa(lp125
I3
aI1
aI4
aI0
aI0
aI0
aI0
aI2
aa(lp126
I3
aI3
aI2
aI2
aI2
aI1
aI1
aa(lp127
I3
aI2
aI1
aI0
aI1
aa(lp128
I3
aI2
aI1
aI2
aI2
aI2
aI1
aa(lp129
I3
aI1
aI0
aI1
aa(lp130
I4
aI3
aI2
aI1
aI0
aI0
aI0
aa(lp131
I3
aI1
aI4
aI0
aI0
aI0
aI4
aI0
aI0
aI0
aI0
aa(lp132
I3
aI1
aI4
aI0
aI0
aI0
aI0
aa(lp133
I3
aI3
aI2
aI1
aI4
aI0
aI0
aI0
aI1
aa(lp134
I3
aI1
aI0
aI0
aa(lp135
I3
aI3
aI2
aI2
aI1
aI0
aI0
aI1
aa(lp136
I3
aI3
aI2
aI2
aI1
aI0
aI0
aI1
aa(lp137
I3
aI2
aI2
aI1
aa(lp138
I3
aI3
aI2
aI2
aI1
aI0
aI1
aa(lp139
I3
aI1
aI0
aI0
aI0
aa(lp140
I3
aI1
aI0
aI0
aa(lp141
I3
aI1
aI4
aI0
aI0
aa(lp142
I3
aI2
aI4
aI0
aI0
aI0
aI0
aa(lp143
I3
aI1
aI0
aI0
aI0
aI0
aI0
aa(lp144
I3
aI1
aI4
aI2
aI4
aI0
aa(lp145
I3
aI2
aI1
aI1
aI0
aI0
aI0
aI0
aI0
aI0
aa(lp146
I3
aI1
aI0
aI0
aI0
aa(lp147
I3
aI2
aI2
aI1
aI4
aI0
aI1
aI0
aI0
aI0
aI1
aa(lp148
I3
aI2
aI2
aI2
aI2
aI1
aI0
aI2
aI1
aa(lp149
I3
aI3
aI2
aI1
aI1
aa(lp150
I3
aI1
aI4
aI2
aI4
aI0
aa(lp151
I3
aI1
aI0
aI0
aI0
aa(lp152
I3
aI3
aI2
aI1
aI4
aI0
aI0
aa(lp153
I3
aI2
aI1
aI0
aI1
aa(lp154
I3
aI2
aI2
aI1
aI0
aI1
aI0
aa(lp155
I3
aI1
aI0
aI0
aI0
aI2
aI1
aa(lp156
I3
aI3
aI2
aI1
aI1
aI1
aI1
aI0
aa(lp157
I3
aI3
aI2
aI1
aI4
aI0
aI0
aI0
aI0
aI1
aa(lp158
I3
aI2
aI1
aI0
aI0
aI1
aI1
aI4
aI0
aI0
aa(lp159
I3
aI1
aI4
aI0
aI0
aI1
aI1
aa(lp160
I1
aI4
aI0
aI0
aI0
aI0
aI0
aI0
aa(lp161
I3
aI2
aI1
aI4
aI0
aI0
aI1
aI1
aa(lp162
I3
aI1
aI0
aI0
aI0
aI1
aa(lp163
I3
aI1
aI1
aI4
aI0
aI0
aI4
aI0
aa(lp164
I3
aI3
aI2
aI1
aI1
aI4
aI0
aI2
aI2
aa(lp165
I3
aI3
aI2
aI2
aI1
aI0
aI0
aI1
aI4
aI0
aI0
aI1
aa(lp166
I3
aI2
aI1
aI4
aI0
aI0
aI1
aa(lp167
I3
aI1
aI4
aI0
aI0
aI0
aI0
aa(lp168
I3
aI1
aI4
aI2
aI1
aa(lp169
I3
aI1
aI0
aa(lp170
I3
aI1
aI4
aI0
aI0
aI0
aI0
aI0
aa(lp171
I3
aI2
aI1
aI0
aI0
aI1
aI4
aI0
aI0
aa(lp172
I3
aI3
aI2
aI1
aI0
aI0
aI1
aa(lp173
I3
aI3
aI2
aI2
aI1
aI1
aI1
aI1
aI4
aI0
aI0
aa(lp174
I3
aI1
aI0
aI0
aI1
aa(lp175
I3
aI2
aI2
aI2
aI1
aI0
aa(lp176
I3
aI1
aI0
aI0
aI0
aa(lp177
I3
aI3
aI1
aI0
aI2
aI2
aa(lp178
I3
aI1
aI4
aI0
aI0
aI0
aa(lp179
I3
aI1
aI4
aI0
aI0
aI0
aI0
aI1
aa(lp180
I3
aI2
aI2
aI0
aa(lp181
I3
aI1
aI0
aI1
aI1
aI1
aI4
aI0
aI0
aI0
aI0
aa(lp182
I3
aI2
aI1
aI4
aI0
aI0
aI0
aI0
aI0
aI1
aa(lp183
I3
aI1
aI4
aI0
aI0
aI0
aa(lp184
I3
aI2
aI1
aI4
aI0
aI0
aI0
aa(lp185
I3
aI3
aI2
aI1
aI4
aI0
aI0
aI0
aI0
aI1
aa(lp186
I3
aI2
aI2
aI1
aI4
aI0
aI0
aI1
aI1
aa(lp187
I3
aI1
aI0
aI0
aa(lp188
I3
aI1
aI4
aI0
aI0
aI0
aI0
aa(lp189
I4
aI3
aI1
aI4
aI0
aI0
aI1
aI1
aa(lp190
I3
aI3
aI1
aI4
aI0
aI0
aI0
aI0
aa(lp191
I3
aI3
aI2
aI1
aI4
aI0
aI0
aI0
aI0
aI0
aa(lp192
I3
aI1
aI4
aI2
aI4
aI4
aI0
aI0
aI0
aa(lp193
I3
aI3
aI2
aI1
aI0
aI0
aa(lp194
I3
aI3
aI0
aI0
aI2
aI1
aI1
aa(lp195
I3
aI1
aI4
aI0
aI0
aI0
aI4
aI0
aI0
aI0
aa(lp196
I3
aI1
aI4
aI0
aI0
aI0
aI0
aa(lp197
I3
aI3
aI2
aI2
aI1
aI1
aI0
aa(lp198
I3
aI3
aI2
aI1
aI1
aI4
aI0
aI0
aI0
aI2
aI4
aI4
aI0
aI0
aI4
aI0
aI0
aI0
aa(lp199
I3
aI3
aI2
aI1
aI0
aI0
aI1
aa(lp200
I3
aI2
aI1
aI0
aI0
aI1
aI2
aI2
aI1
aa(lp201
I3
aI1
aI4
aI0
aI0
aI0
aI0
aI0
aa(lp202
I3
aI1
aI0
aI2
aI1
aa(lp203
I3
aI3
aI2
aI1
aI4
aI0
aI0
aI0
aI1
aa(lp204
I3
aI3
aI2
aI2
aI2
aI1
aI1
aa(lp205
I4
aI3
aI2
aI1
aI0
aI0
aa(lp206
I3
aI1
aI0
aI0
aI0
aI2
aa(lp207
I3
aI2
aI1
aI0
aI0
aI0
aI1
aa(lp208
I3
aI3
aI2
aI1
aI0
aI0
aI1
aI1
aI0
aI1
aa(lp209
I3
aI1
aI4
aI2
aI4
aI0
aI0
aI0
aa(lp210
I3
aI1
aI4
aI0
aI0
aI0
aI0
aI0
aI0
aI0
aa(lp211
I3
aI3
aI2
aI2
aI1
aI0
aI1
aI1
aI0
aI0
aI0
aa(lp212
I3
aI2
aI1
aI1
aI1
aa(lp213
I3
aI2
aI2
aI2
aI1
aI1
aI1
aI4
aI0
aa(lp214
I3
aI2
aI1
aI0
aI0
aI1
aI4
aI0
aI0
aI0
aa(lp215
I3
aI1
aI4
aI2
aI4
aI2
aI1
aa(lp216
I3
aI1
aI0
aI0
aa(lp217
I3
aI2
aI2
aI2
aI1
aI0
aI0
aa(lp218
I3
aI2
aI2
aI2
aI1
aI4
aI2
aI1
aa(lp219
I3
aI3
aI2
aI1
aI0
aI1
aa(lp220
I3
aI2
aI1
aI0
aI0
aI1
aI1
aa(lp221
I3
aI2
aI1
aI0
aI2
aa(lp222
I3
aI2
aI1
aI4
aI4
aI0
aI0
aI0
aa(lp223
I3
aI1
aI4
aI0
aI2
aI2
aI2
aI1
aa(lp224
I3
aI3
aI2
aI2
aI1
aI0
aI0
aI1
aa(lp225
I3
aI1
aI0
aI0
aI1
aI4
aI0
aI1
aI0
aI0
aa(lp226
I3
aI2
aI2
aI1
aI0
aI0
aI1
aa(lp227
I3
aI2
aI4
aI0
aI0
aI0
aI0
aI0
aa(lp228
I3
aI3
aI2
aI1
aI0
aI0
aI1
aa(lp229
I4
aI3
aI2
aI1
aI4
aI0
aI2
aI2
aI1
aa(lp230
I3
aI1
aI0
aI0
aI0
aI1
aI0
aI0
aI0
aa(lp231
I3
aI1
aI4
aI0
aI0
aI1
aI4
aI0
aI0
aa(lp232
I3
aI1
aI0
aI0
aI0
aI0
aI0
aI0
aa(lp233
I3
aI1
aI4
aI0
aI0
aI0
aa(lp234
I3
aI3
aI2
aI1
aI0
aI0
aI0
aI2
aI4
aI0
aI0
aa(lp235
I3
aI3
aI2
aI1
aI1
aI1
aI4
aI0
aa(lp236
I4
aI3
aI2
aI2
aI1
aI4
aI0
aI1
aa(lp237
I3
aI1
aI0
aI0
aI0
aI0
aI4
aI0
aI0
aI2
aI2
aa(lp238
I3
aI3
aI2
aI1
aI2
aI4
aI0
aI0
aI0
aI0
aI0
aa(lp239
I3
aI3
aI2
aI1
aI0
aI0
aI1
aa(lp240
I3
aI3
aI2
aI1
aI1
aI4
aI0
aa(lp241
I3
aI1
aI4
aI2
aI2
aI1
aI0
aI0
aa(lp242
I3
aI2
aI1
aI0
aI0
aa(lp243
I3
aI3
aI2
aI1
aI1
aI1
aI1
aI0
aI0
aa(lp244
I3
aI3
aI2
aI1
aI1
aI4
aI0
aI0
aI0
aa(lp245
I3
aI1
aI0
aI1
aI0
aI0
aa(lp246
I3
aI1
aI4
aI0
aI0
aI0
aI0
aI4
aI0
aI0
aI0
aI0
aa(lp247
I3
aI1
aI4
aI0
aI0
aI0
aI0
aa(lp248
I3
aI3
aI2
aI1
aI4
aI0
aI0
aI1
aa(lp249
I3
aI1
aI0
aI0
aI1
aI1
aI4
aI0
aI0
aI0
aI0
aI0
aI0
aa(lp250
I3
aI1
aI0
aI0
aI1
aa(lp251
I3
aI1
aI4
aI2
aI4
aI4
aI0
aI1
aI0
aa(lp252
I3
aI3
aI2
aI2
aI1
aI0
aI0
aI1
aa(lp253
I3
aI2
aI1
aI1
aI0
aI0
aa(lp254
I3
aI2
aI1
aI0
aI1
aa(lp255
I3
aI1
aI4
aI0
aI0
aa(lp256
I3
aI1
aI4
aI0
aI0
aa(lp257
I3
aI3
aI2
aI1
aI0
aI0
aI1
aa(lp258
I3
aI1
aI4
aI0
aI0
aa(lp259
I3
aI2
aI1
aI0
aI0
aI1
aI1
aa(lp260
I3
aI1
aI4
aI2
aI2
aa(lp261
I3
aI3
aI2
aI1
aI0
aI1
aI1
aa(lp262
I3
aI3
aI2
aI1
aI4
aI2
aI2
aI2
aI1
aa(lp263
I3
aI2
aI1
aI4
aI0
aI0
aI0
aI0
aI1
aa(lp264
I3
aI2
aI1
aI1
aI4
aI0
aI0
aa(lp265
I3
aI1
aI4
aI2
aI2
aa(lp266
I3
aI1
aI4
aI0
aI0
aI1
aa(lp267
I3
aI3
aI2
aI2
aI1
aI1
aI1
aI0
aa(lp268
I3
aI1
aI4
aI0
aI0
aI0
aI2
aI1
aa(lp269
I3
aI2
aI1
aI0
aI0
aI0
aI1
aI1
aa(lp270
I3
aI1
aI4
aI0
aI0
aI0
aI4
aI0
aI0
aa(lp271
I3
aI2
aI1
aI0
aI0
aI0
aI1
aI4
aI0
aI0
aI0
aa(lp272
I3
aI3
aI2
aI1
aI1
aI4
aI0
aI0
aa(lp273
I3
aI1
aI0
aI2
aI1
aa(lp274
I4
aI3
aI2
aI1
aI0
aI0
aI2
aI1
aa(lp275
I3
aI2
aI1
aI0
aI0
aI1
aa(lp276
I3
aI1
aI4
aI0
aI0
aa(lp277
I3
aI1
aI4
aI2
aI4
aI4
aI0
aI0
aI0
aa(lp278
I3
aI1
aI0
aI0
aI1
aI1
aI4
aI0
aI0
aI0
aI0
aI2
aI2
aI1
aa(lp279
I3
aI3
aI2
aI1
aI1
aI1
aI0
aa(lp280
I3
aI1
aI1
aI0
aI0
aI0
aa(lp281
I3
aI1
aI4
aI0
aI0
aI4
aI4
aI0
aI0
aI0
aI0
aI0
aI0
aI4
aI0
aa(lp282
I3
aI1
aI4
aI4
aI2
aI1
aa(lp283
I3
aI1
aI4
aI0
aI0
aI1
aa(lp284
I3
aI2
aI1
aI0
aI0
aI1
aI0
aI0
aI4
aI0
aI2
aa(lp285
I3
aI2
aI1
aI0
aI0
aI1
aa(lp286
I3
aI1
aI0
aI1
aa(lp287
I3
aI2
aI2
aI2
aI2
aI2
aI2
aI2
aa(lp288
I3
aI2
aI1
aI0
aI0
aI0
aI2
aI2
aa(lp289
I3
aI3
aI2
aI2
aI2
aI1
aI1
aa(lp290
I3
aI1
aI0
aI1
aa(lp291
I3
aI1
aI4
aI0
aI0
aI0
aI0
aa(lp292
I3
aI1
aI4
aI0
aI1
aI1
aa(lp293
I3
aI1
aI0
aI0
aI0
aI2
aI2
aI2
aI1
aa(lp294
I3
aI3
aI2
aI1
aI1
aI0
aI0
aI1
aI2
aa(lp295
I3
aI1
aI0
aI0
aI0
aa(lp296
I3
aI2
aI1
aI0
aI0
aI0
aI1
aI1
aa(lp297
I3
aI1
aI4
aI0
aI0
aI0
aI0
aI1
aa(lp298
I3
aI3
aI2
aI2
aI1
aI0
aI0
aI1
aa(lp299
I3
aI3
aI2
aI1
aI4
aI0
aI0
aI0
aI0
aI1
aa(lp300
I3
aI3
aI2
aI2
aI1
aI0
aI0
aI1
aa(lp301
I3
aI2
aI1
aI0
aI0
aI1
aa(lp302
I3
aI2
aI1
aI1
aI1
aI1
aI1
aI4
aI0
aI0
aI0
aI0
aa(lp303
I3
aI1
aI4
aI2
aI2
aI4
aI4
aI0
aI2
aa(lp304
I3
aI2
aI1
aI0
aI1
aa(lp305
I4
aI3
aI2
aI1
aI0
aI0
aI1
aa(lp306
I3
aI3
aI2
aI2
aI1
aI0
aI0
aI1
aa(lp307
I3
aI3
aI2
aI1
aI1
aI1
aI0
aI0
aI2
aa(lp308
I3
aI1
aI1
aI4
aI4
aI0
aI0
aI2
aI2
aI2
aI2
aI1
aa(lp309
I3
aI2
aI1
aI0
aI0
aI0
aa(lp310
I3
aI1
aI0
aI0
aI1
aI0
aa(lp311
I3
aI3
aI2
aI1
aI4
aI0
aI0
aI0
aa(lp312
I3
aI2
aI1
aI1
aI4
aI0
aI0
aI0
aI0
aI0
aa(lp313
I3
aI3
aI2
aI1
aI1
aI4
aI0
aI0
aI0
aa(lp314
I3
aI2
aI1
aI1
aI1
aI0
aI0
aI0
aa(lp315
I3
aI1
aI4
aI0
aa(lp316
I3
aI1
aI0
aI0
aa(lp317
I3
aI2
aI1
aI1
aI4
aI0
aI0
aI0
aa(lp318
I1
aI4
aI0
aI0
aI0
aI1
aI4
aI0
aI0
aa(lp319
I3
aI3
aI1
aI0
aI0
aI0
aa(lp320
I3
aI2
aI1
aI0
aI0
aI0
aa(lp321
I3
aI2
aI1
aI0
aI0
aI1
aI1
aa(lp322
I3
aI1
aI0
aI0
aI1
aa(lp323
I3
aI1
aI4
aI0
aI0
aI0
aa(lp324
I3
aI3
aI2
aI1
aI1
aI1
aI4
aI0
aI0
aa(lp325
I3
aI1
aI0
aI0
aI0
aI0
aI0
aI4
aI0
aI0
aI0
aI1
aa(lp326
I3
aI1
aI0
aI0
aI0
aI0
aI0
aI0
aa(lp327
I3
aI1
aI0
aI0
aI0
aI0
aa(lp328
I3
aI3
aI2
aI1
aI0
aI0
aI1
aa(lp329
I3
aI2
aI1
aI4
aI2
aI2
aI1
aa(lp330
I3
aI3
aI1
aI4
aI0
aI0
aI0
aa(lp331
I3
aI1
aI4
aI0
aI2
aI2
aI1
aI0
aI1
aI1
aa(lp332
I3
aI1
aI4
aI0
aI1
aI2
aI2
aI1
aa(lp333
I3
aI3
aI2
aI1
aI0
aI0
aI1
aa(lp334
I3
aI1
aI4
aI0
aI0
aI0
aa(lp335
I3
aI1
aI4
aI2
aI2
aI4
aI0
aa(lp336
I3
aI3
aI2
aI2
aI2
aI2
aI1
aI1
aa(lp337
I3
aI1
aI0
aa(lp338
I3
aI1
aI4
aI0
aI0
aI0
aI0
aI0
aa(lp339
I3
aI1
aI4
aI0
aI0
aI0
aI0
aI0
aI0
aa(lp340
I3
aI3
aI2
aI4
aI4
aI0
aI1
aI1
aa(lp341
I3
aI3
aI2
aI1
aI0
aI0
aI1
aa(lp342
I4
aI3
aI1
aI4
aI2
aI2
aI1
aI4
aI0
aI0
aI0
aI0
aa(lp343
I3
aI1
aI4
aI0
aI0
aI0
aI0
aI1
aI1
aa(lp344
I3
aI1
aI0
aI0
aI0
aI1
aa(lp345
I3
aI3
aI2
aI1
aI1
aI4
aI0
aI2
aI2
aI4
aI4
aI0
aI0
aI0
aa(lp346
I3
aI2
aI1
aI4
aI0
aI0
aa(lp347
I3
aI1
aI0
aI1
aa(lp348
I3
aI2
aI2
aI2
aI2
aI1
aI4
aI0
aI0
aI0
aI1
aa(lp349
I3
aI2
aI1
aI0
aI0
aI1
aa(lp350
I3
aI3
aI2
aI1
aI1
aI4
aI0
aI0
aI0
aI0
aa(lp351
I3
aI2
aI2
aI1
aI0
aI0
aI1
aI1
aa(lp352
I3
aI3
aI2
aI2
aI2
aI1
aI1
aa(lp353
I3
aI3
aI2
aI1
aI1
aI0
aI0
aI0
aa(lp354
I3
aI1
aI0
aa(lp355
I3
aI1
aI4
aI0
aI0
aI1
aa(lp356
I3
aI2
aI1
aI4
aI0
aI1
aI1
aa(lp357
I3
aI1
aI4
aI0
aI0
aI4
aI0
aI1
aa(lp358
I3
aI1
aI4
aI2
aI4
aI4
aI0
aa(lp359
I3
aI3
aI2
aI1
aI0
aI0
aI1
aa(lp360
I3
aI1
aI4
aI0
aI0
aa(lp361
I3
aI2
aI1
aI4
aI2
aI4
aI4
aI2
aa(lp362
I3
aI1
aI4
aI0
aI0
aI0
aI4
aI0
aI0
aI0
aa(lp363
I3
aI1
aI4
aI2
aI4
aI4
aI0
aI0
aa(lp364
I3
aI2
aI1
aI1
aI4
aI0
aI0
aa(lp365
I3
aI2
aI1
aI4
aI0
aI0
aI1
aI1
aa(lp366
I3
aI2
aI1
aI0
aI2
aI2
aI1
aI1
aa(lp367
I3
aI2
aI1
aI4
aI0
aI0
aI1
aa(lp368
I3
aI1
aI0
aI0
aI0
aI1
aa(lp369
I3
aI2
aI1
aI1
aI1
aa(lp370
I3
aI1
aI4
aI0
aI0
aa(lp371
I3
aI1
aI4
aI0
aI0
aI0
aa(lp372
I3
aI1
aI4
aI0
aI0
aI0
aa(lp373
I3
aI3
aI2
aI1
aI1
aI1
aI2
aI2
aa(lp374
I3
aI1
aI0
aI0
aI2
aI1
aa(lp375
I3
aI1
aI0
aI0
aI0
aI0
aI0
aI0
aa(lp376
I3
aI2
aI1
aI0
aI0
aa(lp377
I3
aI2
aI1
aI0
aI0
aa(lp378
I3
aI1
aI4
aI2
aI4
aI2
aI1
aa(lp379
I3
aI1
aI0
aI0
aI1
aa(lp380
I3
aI1
aI4
aI0
aI0
aa(lp381
I3
aI2
aI1
aI4
aI0
aI0
aI0
aI0
aI0
aI0
aa(lp382
I3
aI3
aI2
aI1
aI0
aI0
aI1
aa(lp383
I3
aI1
aI0
aI0
aI1
aI2
aI4
aI4
aI0
aa(lp384
I3
aI1
aI4
aI2
aI2
aI1
aI4
aI0
aI1
aI0
aa(lp385
I3
aI2
aI1
aI0
aI0
aI1
aa(lp386
I3
aI2
aI1
aI1
aI1
aI0
aI0
aa(lp387
I3
aI3
aI2
aI1
aI2
aI2
aa(lp388
I3
aI1
aI4
aI0
aI0
aI0
aI1
aa(lp389
I3
aI2
aI1
aI4
aI0
aI2
aI2
aa(lp390
I3
aI3
aI2
aI1
aI1
aI1
aI0
aa(lp391
I3
aI1
aI0
aI1
aa(lp392
I3
aI3
aI2
aI1
aI0
aI0
aa(lp393
I3
aI1
aI0
aI0
aI0
aa(lp394
I3
aI2
aI1
aI0
aI1
aI0
aa(lp395
I3
aI1
aI4
aI2
aI4
aI0
aa(lp396
I3
aI3
aI2
aI1
aI1
aI0
aI0
aa(lp397
I3
aI3
aI2
aI1
aI0
aI1
aI1
aa(lp398
I3
aI1
aI4
aI0
aI0
aI0
aa(lp399
I3
aI1
aI4
aI0
aI0
aI0
aa(lp400
I3
aI1
aI4
aI2
aI4
aI4
aI0
aI0
aa(lp401
I3
aI3
aI1
aI4
aI0
aI0
aI0
aa(lp402
I3
aI3
aI2
aI1
aI4
aI2
aI2
aI1
aa(lp403
I3
aI1
aI0
aI0
aI0
aa(lp404
I3
aI1
aI4
aI0
aI0
aI0
aI2
aI1
aa(lp405
I3
aI1
aI4
aI0
aI0
aI1
aa(lp406
I3
aI2
aI1
aI0
aI0
aI1
aI1
aa(lp407
I3
aI1
aI4
aI2
aI2
aI4
aI4
aI0
aI0
aI0
aa(lp408
I3
aI1
aI0
aI0
aI1
aa(lp409
I3
aI1
aI4
aI0
aI0
aI2
aI2
aI2
aI2
aI2
aI4
aI0
aI2
aI2
aa(lp410
I4
aI3
aI2
aI1
aI0
aI0
aI0
aI0
aI0
aI0
aI0
aI1
aI4
aI0
aI0
aI0
aI0
aI1
aa(lp411
I3
aI3
aI2
aI2
aI1
aI1
aI1
aI0
aI0
aa(lp412
I3
aI1
aI4
aI2
aI2
aI4
aI4
aI0
aa(lp413
I3
aI1
aI0
aI0
aI1
aI0
aa(lp414
I3
aI2
aI1
aI0
aI0
aI1
aI1
aa(lp415
I4
aI3
aI2
aI2
aI2
aI1
aI0
aI1
aa(lp416
I3
aI2
aI1
aI0
aI0
aI0
aI1
aa(lp417
I4
aI3
aI2
aI2
aI1
aI0
aa(lp418
I3
aI1
aI4
aI0
aI0
aI2
aI4
aI0
aI0
aa(lp419
I3
aI1
aI4
aI2
aI2
aI1
aI0
aI4
aI0
aa(lp420
I3
aI1
aI4
aI2
aI4
aI0
aI0
aa(lp421
I3
aI2
aI1
aI0
aa(lp422
I3
aI1
aI0
aI0
aI0
aI0
aI0
aI0
aa(lp423
I3
aI1
aI4
aI0
aI2
aI4
aI0
aI0
aI0
aa(lp424
I3
aI3
aI2
aI2
aI1
aI0
aI0
aI1
aI1
aa(lp425
I3
aI2
aI1
aI0
aI0
aI0
aI0
aa(lp426
I3
aI1
aI0
aI0
aI0
aI0
aI0
aI0
aa(lp427
I3
aI1
aI4
aI0
aI2
aI1
aI4
aI4
aI0
aa(lp428
I3
aI1
aI4
aI0
aI0
aI0
aI0
aa(lp429
I3
aI2
aI2
aI1
aI1
aI1
aa(lp430
I3
aI3
aI2
aI1
aI1
aI1
aI1
aI4
aI0
aa(lp431
I3
aI1
aI0
aI1
aa(lp432
I3
aI1
aI4
aI2
aI4
aI4
aI0
aI0
aa(lp433
I3
aI2
aI1
aI4
aI0
aa(lp434
I3
aI1
aI0
aI0
aI0
aa(lp435
I3
aI2
aI2
aI1
aI0
aI0
aI1
aa(lp436
I3
aI3
aI2
aI1
aI1
aI4
aI0
aI0
aI0
aI4
aI0
aI0
aI0
aa(lp437
I3
aI3
aI2
aI1
aI0
aI1
aI0
aI0
aI0
aI2
aI4
aI0
aa(lp438
I3
aI3
aI2
aI1
aI1
aI0
aI4
aI0
aI0
aa(lp439
I3
aI1
aI0
aI0
aI1
aa(lp440
I3
aI1
aI0
aI0
aI1
aa(lp441
I3
aI1
aI0
aI2
aI1
aa(lp442
I3
aI1
aI0
aI1
aa(lp443
I3
aI1
aI4
aI2
aI2
aI2
aI1
aa(lp444
I4
aI3
aI2
aI1
aI0
aI1
aI4
aI0
aI1
aa(lp445
I3
aI3
aI2
aI2
aI1
aI0
aI0
aI1
aI1
aa(lp446
I3
aI1
aI4
aI2
aI4
aI2
aI2
aI2
aI2
aa(lp447
I3
aI1
aI4
aI0
aI0
aa(lp448
I3
aI2
aI2
aI1
aI1
aI1
aI0
aI0
aI0
aa(lp449
I3
aI3
aI2
aI1
aI0
aI2
aI2
aa(lp450
I4
aI3
aI2
aI1
aI4
aI0
aI0
aI2
aa(lp451
I3
aI1
aI4
aI0
aI2
aI2
aI2
aa(lp452
I3
aI3
aI2
aI2
aI2
aI2
aI1
aI1
aI1
aa(lp453
I3
aI2
aI2
aI2
aI2
aI4
aI4
aI0
aI2
aa(lp454
I3
aI2
aI1
aI0
aI1
aa(lp455
I3
aI1
aI4
aI2
aI4
aI4
aI0
aI0
aI0
aa(lp456
I3
aI1
aI4
aI2
aI2
aI2
aI1
aa(lp457
I3
aI1
aI4
aI0
aI0
aI0
aI0
aa(lp458
I3
aI2
aI1
aI0
aI0
aI0
aI0
aa(lp459
I3
aI3
aI2
aI1
aI0
aa(lp460
I3
aI3
aI2
aI2
aI1
aI0
aI0
aI1
aa(lp461
I3
aI1
aI4
aI2
aI2
aI4
aI4
aI0
aI0
aI0
aI0
aa(lp462
I3
aI2
aI2
aI1
aI4
aI0
aI0
aa(lp463
I3
aI1
aI4
aI0
aI0
aI0
aI1
aa(lp464
I3
aI1
aI4
aI2
aI4
aI4
aI0
aI0
aI0
aI4
aI0
aa(lp465
I3
aI1
aI4
aI0
aI0
aI2
aI2
aI2
aI1
aa(lp466
I3
aI3
aI2
aI1
aI4
aI0
aa(lp467
I3
aI1
aI4
aI0
aI0
aI0
aI1
aa(lp468
I3
aI1
aI0
aI0
aI1
aa(lp469
I3
aI2
aI1
aI0
aI0
aI0
aI1
aa(lp470
I3
aI2
aI2
aI1
aI1
aI4
aI0
aI0
aa(lp471
I3
aI1
aI0
aI0
aI0
aI0
aa(lp472
I3
aI2
aI2
aI2
aI1
aI1
aa(lp473
I3
aI3
aI2
aI2
aI1
aI0
aI0
aI1
aa(lp474
I3
aI1
aI4
aI0
aI0
aI1
aa(lp475
I3
aI2
aI1
aI1
aI4
aI0
aa(lp476
I3
aI2
aI2
aI2
aI1
aI0
aa(lp477
I3
aI1
aI4
aI0
aI0
aI0
aI0
aI0
aa(lp478
I3
aI1
aI4
aI2
aI2
aI2
aI2
aI1
aa(lp479
I3
aI1
aI0
aI0
aI0
aI0
aI0
aa(lp480
I3
aI3
aI2
aI1
aI4
aI0
aI1
aa(lp481
I3
aI2
aI1
aI1
aI4
aI0
aI0
aI0
aI0
aI0
aI0
aa(lp482
I3
aI2
aI1
aI0
aa(lp483
I3
aI3
aI2
aI4
aI4
aI0
aI1
aI4
aI0
aI0
aI4
aI0
aI1
aa(lp484
I3
aI1
aI0
aI2
aI1
aI1
aa(lp485
I4
aI3
aI2
aI1
aI0
aI0
aI0
aI0
aI0
aa(lp486
I3
aI1
aI0
aI0
aI0
aI1
aI1
aI4
aI0
aI0
aa(lp487
I3
aI2
aI1
aI0
aI0
aI1
aI1
aa(lp488
I3
aI1
aI0
aI0
aI1
aa(lp489
I3
aI1
aI0
aa(lp490
I3
aI3
aI2
aI2
aI2
aI2
aI1
aI1
aa(lp491
I3
aI2
aI1
aI4
aI0
aa(lp492
I3
aI1
aI0
aI0
aI0
aa(lp493
I3
aI1
aI4
aI2
aI4
aI4
aI0
aI0
aI0
aI0
aa(lp494
I3
aI3
aI2
aI1
aI0
aI0
aI1
aa(lp495
I3
aI2
aI1
aI0
aa(lp496
I3
aI3
aI2
aI2
aI1
aI1
aa(lp497
I3
aI1
aI4
aI2
aI4
aI4
aI2
aI4
aI4
aI0
aa(lp498
I3
aI2
aI1
aI0
aI0
aI1
aa(lp499
I3
aI1
aI4
aI2
aI4
aI2
aa(lp500
I3
aI1
aI0
aI1
aa(lp501
I3
aI2
aI1
aI0
aI0
aI0
aI2
aI2
aa(lp502
I3
aI2
aI1
aI0
aa(lp503
I3
aI2
aI4
aI0
aI1
aI0
aI0
aI1
aa(lp504
I3
aI1
aI4
aI0
aI1
aI2
aI2
aa(lp505
I3
aI2
aI2
aI1
aI4
aI0
aI0
aI0
aa(lp506
I3
aI1
aI4
aI2
aI4
aI0
aa(lp507
I3
aI2
aI2
aI2
aI1
aI0
aa(lp508
I3
aI2
aI2
aI2
aI2
aI1
aa(lp509
I3
aI1
aI0
aI0
aI0
aI0
aa(lp510
I3
aI1
aI0
aI0
aI1
aI0
aI0
aa(lp511
I3
aI1
aI0
aI1
aa(lp512
I3
aI1
aI1
aI4
aI4
aI0
aI0
aI4
aI2
aa(lp513
I3
aI1
aI4
aI0
aI2
aI2
aI2
aI2
aI1
aI0
aa(lp514
I4
aI3
aI2
aI1
aI0
aI0
aI1
aI4
aI0
aI0
aI2
aI2
aI2
aI2
aI1
aa(lp515
I3
aI3
aI2
aI2
aI1
aI0
aI1
aI1
aa(lp516
I3
aI2
aI2
aI1
aI4
aI0
aI0
aI0
aI0
aI0
aa(lp517
I3
aI3
aI2
aI1
aI4
aI0
aI0
aa(lp518
I3
aI1
aI4
aI0
aI0
aI1
aa(lp519
I3
aI1
aI4
aI0
aI0
aI0
aI0
aI1
aI0
aa(lp520
I3
aI1
aI4
aI0
aI0
aI0
aa(lp521
I3
aI1
aI4
aI0
aI0
aI0
aI0
aa(lp522
I3
aI1
aI4
aI2
aI4
aI4
aI0
aI0
aI0
aI0
aa(lp523
I3
aI2
aI2
aI2
aI1
aI4
aI0
aI0
aa(lp524
I3
aI1
aI4
aI0
aI0
aI0
aI0
aI0
aa(lp525
I3
aI1
aI0
aI0
aI0
aI0
aI0
aI0
aa(lp526
I3
aI1
aI0
aI0
aI0
aI0
aI0
aI0
aI0
aI0
aI0
aa(lp527
I3
aI2
aI1
aI0
aI0
aa(lp528
I3
aI1
aI4
aI0
aI0
aI0
aI0
aa(lp529
I3
aI2
aI1
aI0
aI2
aI0
aI0
aa(lp530
I3
aI1
aI4
aI2
aI2
aI2
aI1
aa(lp531
I3
aI2
aI1
aI1
aI1
aI0
aa(lp532
I3
aI1
aI4
aI2
aI2
aI4
aI0
aI0
aa(lp533
I3
aI2
aI1
aI4
aI0
aI0
aI0
aI0
aI0
aI0
aI0
aa(lp534
I3
aI1
aI4
aI2
aI4
aI4
aI0
aI0
aa(lp535
I3
aI3
aI2
aI2
aI1
aI0
aI2
aI1
aa(lp536
I3
aI2
aI2
aI1
aI4
aI0
aI0
aa(lp537
I3
aI3
aI2
aI2
aI1
aI0
aI0
aI0
aa(lp538
I3
aI2
aI2
aI1
aI1
aI1
aI0
aa(lp539
I3
aI1
aI0
aI1
aa(lp540
I3
aI1
aI4
aI0
aI0
aI0
aI1
aa(lp541
I3
aI1
aI4
aI2
aI4
aI4
aI0
aI1
aI1
aI1
aa(lp542
I3
aI1
aI0
aa(lp543
I3
aI3
aI2
aI1
aI0
aI1
aa(lp544
I3
aI1
aI0
aI1
aa(lp545
I3
aI1
aI4
aI0
aI0
aI2
aI2
aI1
aa(lp546
I3
aI3
aI2
aI1
aI1
aI0
aI0
aa(lp547
I3
aI3
aI2
aI1
aI1
aI1
aI0
aa(lp548
I3
aI1
aI4
aI0
aI0
aI1
aa(lp549
I3
aI1
aI4
aI0
aI0
aI0
aa(lp550
I3
aI1
aI4
aI2
aI2
aI2
aa(lp551
I3
aI3
aI2
aI2
aI1
aI4
aI0
aI0
aI1
aa(lp552
I3
aI2
aI1
aI4
aI0
aI0
aI0
aI0
aI0
aI1
aa(lp553
I3
aI3
aI2
aI2
aI1
aI0
aa(lp554
I3
aI2
aI1
aI0
aI1
aa(lp555
I3
aI3
aI2
aI1
aI0
aI0
aI0
aI2
aI2
aa(lp556
I3
aI3
aI2
aI2
aI1
aI1
aa(lp557
I3
aI1
aI0
aI0
aI0
aI0
aa(lp558
I3
aI1
aI4
aI2
aI4
aI4
aI0
aI2
aa(lp559
I3
aI2
aI4
aI0
aI1
aI0
aa(lp560
I3
aI1
aI0
aI0
aI0
aI0
aa(lp561
I3
aI2
aI2
aI2
aI0
aa(lp562
I3
aI1
aI0
aI0
aI1
aI1
aI4
aI0
aI0
aI0
aa(lp563
I3
aI2
aI1
aI0
aI0
aI0
aa(lp564
I3
aI1
aI0
aI2
aI4
aI4
aI0
aI1
aa(lp565
I3
aI1
aI4
aI0
aI0
aI0
aI0
aa(lp566
I3
aI1
aI4
aI0
aI0
aa(lp567
I3
aI2
aI1
aI0
aI0
aI0
aa(lp568
I3
aI3
aI1
aI0
aI0
aI1
aI1
aa(lp569
I3
aI1
aI4
aI0
aI1
aa(lp570
I3
aI2
aI2
aI2
aI1
aI0
aI0
aa(lp571
I3
aI1
aI4
aI0
aI0
aI0
aa(lp572
I3
aI1
aI0
aI0
aI0
aI0
aI0
aa(lp573
I3
aI1
aI0
aI0
aI0
aI4
aI0
aI0
aa(lp574
I3
aI2
aI1
aI0
aI0
aI0
aI0
aI0
aI2
aI4
aI0
aI0
aI2
aI2
aI2
aI2
aa(lp575
I3
aI1
aI4
aI0
aI0
aI4
aI4
aI0
aa(lp576
I3
aI2
aI1
aI1
aI1
aI0
aI1
aa(lp577
I3
aI3
aI2
aI2
aI1
aI0
aI0
aI1
aI1
aa(lp578
I3
aI1
aI0
aI0
aI0
aI0
aI0
aI0
aa(lp579
I3
aI2
aI4
aI0
aI0
aI0
aa(lp580
I3
aI1
aI0
aI1
aI1
aa(lp581
I3
aI3
aI2
aI1
aI1
aI1
aI1
aa(lp582
I3
aI1
aI4
aI2
aI2
aa(lp583
I3
aI1
aI4
aI0
aI0
aI0
aI0
aI0
aa(lp584
I3
aI3
aI2
aI1
aI0
aa(lp585
I3
aI3
aI2
aI1
aI1
aI4
aI0
aI0
aI0
aI0
aa(lp586
I3
aI1
aI4
aI0
aI0
aI2
aI4
aI0
aI0
aI0
aI0
aa(lp587
I3
aI1
aI4
aI0
aI0
aI1
aI0
aI1
aa(lp588
I3
aI2
aI1
aI4
aI0
aI0
aI0
aI0
aI0
aa(lp589
I3
aI1
aI0
aI2
aI2
aI2
aI1
aa(lp590
I3
aI3
aI2
aI1
aI0
aI0
aI1
aI1
aI0
aI1
aa(lp591
I3
aI1
aI2
aI2
aI1
aI0
aa(lp592
I3
aI1
aI4
aI2
aI4
aI2
aI1
aa(lp593
I3
aI2
aI4
aI0
aI0
aI0
aa(lp594
I3
aI2
aI1
aI0
aI0
aI0
aI0
aa(lp595
I3
aI2
aI1
aI0
aI0
aa(lp596
I3
aI2
aI1
aI1
aI0
aI0
aa(lp597
I3
aI1
aI4
aI0
aI0
aI0
aI4
aI2
aI2
aI1
aa(lp598
I3
aI2
aI1
aI4
aI2
aI2
aI1
aI1
aa(lp599
I3
aI1
aI1
aI4
aI0
aI0
aI0
aI0
aa(lp600
I3
aI3
aI2
aI1
aI0
aI0
aI0
aI1
aa(lp601
I3
aI1
aI0
aI2
aI2
aI2
aI1
aa(lp602
I3
aI1
aI0
aI0
aa(lp603
I3
aI1
aI4
aI0
aI0
aa(lp604
I3
aI1
aI4
aI2
aI2
aI4
aI4
aI0
aI0
aa(lp605
I3
aI1
aI0
aI0
aI0
aI1
aa(lp606
I3
aI2
aI2
aI1
aI1
aI0
aa(lp607
I3
aI3
aI2
aI1
aI1
aI4
aI0
aI1
aI0
aa(lp608
I3
aI2
aI1
aI0
aI0
aI0
aa(lp609
I3
aI3
aI2
aI2
aI1
aI0
aI0
aI0
aa(lp610
I3
aI1
aI4
aI0
aI0
aI0
aI0
aI1
aa(lp611
I3
aI1
aI0
aI0
aI1
aa(lp612
I3
aI1
aI4
aI0
aI0
aa(lp613
I3
aI3
aI2
aI2
aI1
aI0
aa(lp614
I3
aI3
aI2
aI1
aI0
aI0
aI1
aa(lp615
I3
aI1
aI4
aI2
aI2
aI1
aa(lp616
I3
aI3
aI2
aI2
aI1
aI1
aI4
aI4
aI0
aI0
aa(lp617
I3
aI2
aI1
aI0
aI0
aI2
aI0
aa(lp618
I3
aI1
aI4
aI0
aI0
aI0
aa(lp619
I3
aI1
aI0
aI0
aI1
aI0
aI0
aa(lp620
I3
aI2
aI1
aI4
aI0
aI0
aI1
aI0
aI1
aa(lp621
I3
aI1
aI4
aI2
aI4
aI4
aI0
aI0
aI0
aa(lp622
I3
aI3
aI2
aI2
aI2
aI2
aI1
aI1
aa(lp623
I3
aI2
aI1
aI1
aI1
aI0
aa(lp624
I3
aI1
aI4
aI0
aI0
aI0
aI0
aI0
aI0
aI0
aI0
aa(lp625
I3
aI1
aI0
aI0
aI0
aI1
aa(lp626
I3
aI3
aI2
aI1
aI4
aI0
aI1
aI1
aa(lp627
I3
aI1
aI4
aI0
aI0
aI1
aI1
aa(lp628
I3
aI3
aI2
aI1
aI1
aI1
aI0
aa(lp629
I3
aI1
aI4
aI0
aI2
aI2
aI2
aa(lp630
I3
aI3
aI2
aI1
aI1
aI0
aI0
aI0
aI0
aa(lp631
I3
aI1
aI0
aI0
aI0
aa(lp632
I3
aI1
aI4
aI2
aI4
aI0
aa(lp633
I3
aI3
aI2
aI1
aI1
aI1
aI1
aI0
aI0
aa(lp634
I3
aI1
aI4
aI0
aI2
aI2
aI2
aI2
aI1
aI1
aa(lp635
I3
aI1
aI4
aI0
aI0
aI0
aI4
aI0
aa(lp636
I3
aI1
aI0
aI1
aa(lp637
I3
aI3
aI2
aI1
aI0
aI0
aI1
aI0
aI0
aa(lp638
I3
aI1
aI4
aI2
aI4
aI0
aI0
aI1
aI0
aa(lp639
I3
aI2
aI1
aI0
aI0
aa(lp640
I3
aI1
aI4
aI2
aI2
aI4
aI0
aI0
aa(lp641
I3
aI1
aI4
aI0
aI1
aI0
aI0
aI0
aI4
aI0
aa.