(lp0
(lp1
I3
aI3
aI2
aI2
aI1
aI0
aI0
aI1
aa(lp2
I3
aI3
aI2
aI1
aI1
aI0
aI0
aa(lp3
I3
aI2
aI2
aI1
aI0
aI1
aa(lp4
I3
aI1
aI0
aI0
aI1
aa(lp5
I3
aI1
aI0
aI0
aI1
aa(lp6
I3
aI2
aI1
aI4
aI0
aI0
aI1
aa(lp7
I3
aI1
aI4
aI2
aI1
aI0
aa(lp8
I3
aI1
aI0
aI2
aa(lp9
I3
aI1
aI4
aI2
aI2
aI0
aa(lp10
I3
aI1
aI4
aI2
aI2
aI0
aa(lp11
I3
aI2
aI2
aI1
aI4
aI0
aI0
aI0
aI1
aa(lp12
I3
aI1
aI4
aI0
aI0
aI2
aI1
aa(lp13
I3
aI1
aI4
aI2
aI2
aI0
aa(lp14
I3
aI2
aI2
aI1
aI4
aI0
aI0
aI0
aI0
aa(lp15
I3
aI1
aI0
aa(lp16
I3
aI1
aI4
aI0
aI0
aI0
aI0
aI1
aa(lp17
I3
aI1
aI4
aI2
aI2
aI0
aI1
aa(lp18
I3
aI2
aI1
aI0
aI0
aI4
aI1
aI1
aa(lp19
I3
aI4
aI2
aI2
aI4
aI0
aI0
aI0
aa(lp20
I3
aI1
aI0
aI0
aa(lp21
I3
aI1
aI4
aI0
aI1
aa(lp22
I3
aI3
aI2
aI2
aI1
aI0
aI0
aI1
aI4
aI0
aI0
aa(lp23
I3
aI1
aI4
aI2
aI1
aI4
aI0
aI0
aa(lp24
I3
aI2
aI2
aI0
aI1
aI0
aI0
aI1
aa(lp25
I3
aI1
aI4
aI0
aI0
aa(lp26
I3
aI3
aI2
aI1
aI1
aI4
aI0
aI0
aa(lp27
I3
aI1
aI0
aI0
aI0
aI2
aI2
aI2
aI2
aa(lp28
I3
aI1
aI2
aI2
aI1
aI0
aI0
aa(lp29
I3
aI4
aI2
aI1
aI0
aa(lp30
I3
aI1
aI0
aI0
aI2
aa(lp31
I3
aI3
aI1
aI4
aI2
aI1
aI4
aI0
aI0
aI0
aa(lp32
I3
aI3
aI2
aI1
aI0
aI0
aI1
aa(lp33
I3
aI3
aI2
aI1
aI4
aI0
aa(lp34
I3
aI1
aI4
aI2
aI2
aI0
aa(lp35
I3
aI2
aI2
aI1
aI1
aI1
aI0
aa(lp36
I3
aI1
aI0
aI0
aI2
aa(lp37
I3
aI3
aI2
aI1
aI1
aI1
aI1
aI1
aI1
aI4
aI0
aI0
aI0
aa(lp38
I3
aI1
aI4
aI2
aI2
aI0
aI0
aa(lp39
I3
aI1
aI4
aI0
aI1
aI1
aI2
aa(lp40
I3
aI1
aI4
aI2
aI2
aI1
aI4
aI0
aI0
aa(lp41
I3
aI3
aI2
aI1
aI0
aI0
aI1
aa(lp42
I3
aI2
aI1
aI1
aI4
aI0
aI0
aI0
aa(lp43
I3
aI3
aI2
aI2
aI1
aI1
aI0
aa(lp44
I3
aI2
aI1
aI1
aI4
aI0
aI0
aI0
aI0
aa(lp45
I3
aI1
aI0
aI0
aa(lp46
I3
aI1
aI4
aI2
aI2
aI2
aI0
aI0
aI0
aI1
aa(lp47
I3
aI3
aI2
aI2
aI1
aI1
aI0
aa(lp48
I3
aI3
aI2
aI1
aI1
aI0
aa(lp49
I3
aI2
aI2
aI1
aI0
aI0
aI0
aI0
aI1
aa(lp50
I3
aI3
aI2
aI2
aI1
aI1
aI1
aI0
aa(lp51
I3
aI1
aI4
aI2
aI2
aI0
aa(lp52
I3
aI2
aI1
aI1
aI0
aI0
aa(lp53
I3
aI3
aI2
aI1
aI1
aI1
aI1
aI4
aI0
aI0
aI0
aI0
aa(lp54
I3
aI1
aI0
aI0
aI0
aI1
aa(lp55
I3
aI1
aI2
aI2
aI2
aI2
aa(lp56
I3
aI3
aI2
aI1
aI0
aI0
aI1
aI1
aa(lp57
I3
aI1
aI4
aI2
aI2
aI0
aI0
aI0
aa(lp58
I3
aI2
aI2
aI1
aI0
aI0
aI0
aI1
aa(lp59
I3
aI1
aI1
aI2
aI1
aI0
aa(lp60
I3
aI2
aI1
aI4
aI0
aI0
aI1
aa(lp61
I3
aI3
aI2
aI2
aI1
aI4
aI0
aI0
aI0
aI1
aa(lp62
I3
aI3
aI2
aI1
aI2
aI2
aI2
aI2
aI2
aa(lp63
I3
aI1
aI0
aI0
aI0
aI1
aa(lp64
I3
aI1
aI0
aa(lp65
I3
aI1
aI0
aI1
aa(lp66
I3
aI3
aI2
aI1
aI4
aI0
aI0
aa(lp67
I3
aI1
aI4
aI0
aI0
aI0
aI2
aI2
aa(lp68
I3
aI2
aI1
aI4
aI0
aI0
aI0
aI1
aa(lp69
I3
aI3
aI2
aI1
aI4
aI0
aI0
aI0
aI1
aa(lp70
I3
aI2
aI1
aI0
aI0
aI0
aI1
aa(lp71
I3
aI1
aI0
aI1
aa(lp72
I3
aI3
aI2
aI1
aI1
aI1
aI1
aI1
aI0
aa(lp73
I3
aI2
aI2
aI1
aI0
aI1
aa(lp74
I3
aI2
aI2
aI1
aI0
aI0
aI1
aa(lp75
I3
aI1
aI0
aI1
aa(lp76
I3
aI2
aI1
aI0
aI0
aI0
aI0
aI0
aI0
aI1
aI4
aI0
aa(lp77
I3
aI3
aI2
aI1
aI1
aI1
aI0
aI0
aa(lp78
I3
aI3
aI2
aI1
aI0
aI1
aI1
aa(lp79
I3
aI1
aI4
aI0
aI0
aI0
aI1
aI1
aI4
aI2
aa(lp80
I3
aI2
aI2
aI2
aI1
aI4
aI0
aI0
aa(lp81
I3
aI1
aI0
aI0
aI1
aa(lp82
I3
aI1
aI0
aI1
aa(lp83
I3
aI3
aI2
aI1
aI4
aI0
aI0
aI1
aI1
aI4
aI0
aI0
aI0
aa(lp84
I3
aI1
aI0
aI1
aa(lp85
I3
aI3
aI2
aI1
aI0
aI1
aa(lp86
I3
aI1
aI0
aI0
aI1
aa(lp87
I3
aI1
aI0
aI0
aI1
aa(lp88
I3
aI3
aI2
aI1
aI1
aI4
aI0
aI0
aI0
aI0
aa(lp89
I3
aI1
aI4
aI2
aI2
aI4
aI4
aI0
aI0
aa(lp90
I3
aI3
aI2
aI1
aI0
aI0
aI1
aa(lp91
I3
aI3
aI2
aI2
aI1
aI1
aI1
aI0
aI0
aa(lp92
I3
aI3
aI2
aI1
aI0
aI0
aI0
aI1
aa(lp93
I3
aI3
aI2
aI2
aI0
aI0
aI1
aI4
aI0
aI0
aI0
aI0
aa(lp94
I3
aI1
aI0
aa(lp95
I3
aI1
aI4
aI2
aI4
aI4
aI0
aI0
aa(lp96
I3
aI1
aI4
aI2
aI2
aI0
aI0
aa(lp97
I3
aI1
aI4
aI2
aI2
aa(lp98
I3
aI1
aI4
aI2
aI2
aI4
aI0
aa(lp99
I3
aI1
aI4
aI2
aI2
aI4
aI0
aa(lp100
I3
aI2
aI1
aI4
aI0
aI1
aI1
aa(lp101
I3
aI1
aI4
aI0
aI0
aI1
aa(lp102
I3
aI2
aI0
aI0
aI0
aI1
aa(lp103
I3
aI2
aI2
aI1
aI4
aI0
aI0
aI1
aI4
aI0
aI0
aI0
aa(lp104
I3
aI1
aI0
aI1
aa(lp105
I3
aI3
aI2
aI4
aI0
aI0
aI0
aI1
aI1
aa(lp106
I3
aI2
aI2
aI1
aI0
aI0
aI0
aI1
aI1
aa(lp107
I3
aI2
aI1
aI0
aI0
aI1
aI1
aa(lp108
I3
aI1
aI0
aI0
aI2
aa(lp109
I3
aI1
aI4
aI0
aI4
aI0
aa(lp110
I3
aI1
aI4
aI0
aI0
aa(lp111
I3
aI2
aI1
aI4
aI0
aI0
aa(lp112
I3
aI1
aI4
aI2
aI2
aI4
aI0
aa(lp113
I3
aI1
aI2
aI0
aI0
aI2
aI2
aa(lp114
I3
aI1
aI4
aI2
aI2
aI4
aI0
aI0
aa(lp115
I3
aI1
aI0
aI1
aa(lp116
I3
aI2
aI2
aI2
aI2
aI2
aI1
aI0
aI0
aI1
aI1
aa(lp117
I3
aI3
aI2
aI4
aI0
aI1
aI1
aa(lp118
I2
aI2
aI3
aI1
aI4
aI0
aI0
aI0
aI4
aI2
aI2
aI2
aa(lp119
I3
aI1
aI1
aI0
aI0
aa(lp120
I3
aI1
aI0
aI1
aa(lp121
I3
aI2
aI1
aI0
aI0
aI1
aa(lp122
I3
aI3
aI2
aI1
aI0
aI1
aa(lp123
I3
aI2
aI1
aI4
aI0
aI0
aI0
aI0
aI1
aI1
aa(lp124
I3
aI3
aI2
aI1
aI1
aI4
aI0
aI0
aI0
aI0
aa(lp125
I3
aI2
aI3
aI4
aI0
aI0
aI1
aa(lp126
I3
aI3
aI2
aI2
aI1
aI0
aI0
aI1
aI1
aa(lp127
I3
aI1
aI4
aI2
aI1
aI1
aI0
aI0
aa(lp128
I3
aI3
aI2
aI2
aI1
aI1
aI1
aI4
aI0
aa(lp129
I3
aI3
aI2
aI2
aI1
aI0
aI1
aa(lp130
I3
aI1
aI0
aI0
aI1
aI1
aa(lp131
I3
aI1
aI0
aI0
aa(lp132
I3
aI3
aI2
aI1
aI0
aI0
aI1
aa(lp133
I3
aI3
aI2
aI2
aI1
aI0
aI0
aa(lp134
I3
aI1
aI4
aI0
aI0
aa(lp135
I3
aI2
aI1
aI1
aI0
aI0
aI0
aa(lp136
I3
aI1
aI0
aI0
aI0
aI0
aI2
aI2
aI2
aa(lp137
I3
aI1
aI4
aI2
aI4
aI4
aI0
aI0
aI0
aI0
aI0
aa(lp138
I3
aI3
aI2
aI1
aI0
aI1
aa(lp139
I3
aI3
aI2
aI2
aI0
aI0
aI1
aI1
aa(lp140
I3
aI3
aI2
aI2
aI1
aI0
aI0
aI1
aI1
aa(lp141
I3
aI2
aI1
aI0
aI0
aI4
aI4
aI0
aI0
aI0
aa(lp142
I3
aI1
aI4
aI2
aI2
aa(lp143
I3
aI1
aI0
aI0
aa(lp144
I3
aI1
aI0
aI0
aI0
aI2
aI2
aI2
aa(lp145
I3
aI1
aI4
aI0
aI0
aI1
aa(lp146
I3
aI1
aI4
aI2
aI4
aI0
aI0
aI0
aa(lp147
I3
aI3
aI2
aI1
aI0
aa(lp148
I3
aI1
aI4
aI2
aI4
aI0
aI0
aa(lp149
I3
aI3
aI2
aI1
aI1
aI4
aI0
aI0
aI0
aI0
aI0
aa(lp150
I3
aI2
aI2
aI1
aI0
aI0
aI1
aI1
aa(lp151
I3
aI3
aI2
aI2
aI1
aI4
aI0
aI0
aI0
aI0
aI1
aa(lp152
I3
aI1
aI0
aI4
aI2
aI2
aI2
aa(lp153
I3
aI2
aI2
aI1
aI0
aI0
aI4
aI1
aI1
aa(lp154
I3
aI3
aI2
aI1
aI0
aI0
aI1
aa(lp155
I3
aI2
aI2
aI2
aI1
aI0
aI1
aI1
aI1
aa(lp156
I3
aI1
aI2
aI2
aI1
aI1
aa(lp157
I3
aI3
aI2
aI1
aI4
aI0
aI0
aI1
aa(lp158
I3
aI3
aI2
aI1
aI0
aI0
aI0
aI0
aI1
aa(lp159
I3
aI2
aI1
aI0
aI1
aa(lp160
I3
aI1
aI4
aI2
aI4
aI4
aI0
aI0
aI0
aI0
aa(lp161
I3
aI2
aI1
aI1
aI1
aI0
aI0
aI0
aI0
aI0
aa(lp162
I3
aI1
aI0
aI0
aI2
aI2
aa(lp163
I3
aI1
aI4
aI2
aI2
aI2
aI4
aI0
aI0
aa(lp164
I3
aI3
aI2
aI0
aI0
aI1
aI1
aa(lp165
I3
aI4
aI0
aI0
aI0
aI0
aI0
aI0
aI0
aI1
aI2
aa(lp166
I3
aI2
aI1
aI0
aI0
aI1
aI4
aI2
aI2
aI2
aI2
aa(lp167
I3
aI1
aI4
aI0
aI0
aI0
aa(lp168
I3
aI1
aI4
aI2
aI2
aI0
aa(lp169
I3
aI1
aI0
aI0
aI1
aI1
aa(lp170
I3
aI3
aI2
aI1
aI0
aI0
aI1
aI1
aI1
aI1
aI1
aa(lp171
I3
aI1
aI0
aI1
aa(lp172
I3
aI1
aI1
aI1
aI2
aI4
aI4
aI0
aI0
aI0
aa(lp173
I3
aI3
aI2
aI1
aI1
aI4
aI0
aI0
aI0
aI0
aI0
aI0
aa(lp174
I3
aI3
aI2
aI2
aI2
aI0
aI1
aI1
aa(lp175
I3
aI1
aI4
aI2
aI2
aI4
aI0
aI0
aa(lp176
I3
aI2
aI2
aI1
aI4
aI0
aI0
aa(lp177
I3
aI3
aI2
aI2
aI1
aI0
aI1
aa(lp178
I3
aI3
aI2
aI2
aI1
aI1
aa(lp179
I3
aI3
aI2
aI1
aI4
aI0
aI0
aI1
aa(lp180
I3
aI1
aI0
aI0
aI0
aI0
aI1
aa(lp181
I3
aI1
aI0
aI0
aI0
aI1
aI4
aI0
aI0
aI0
aa(lp182
I3
aI1
aI4
aI2
aI4
aI4
aI0
aI0
aI0
aI0
aI1
aa(lp183
I3
aI1
aI4
aI0
aI0
aa(lp184
I3
aI1
aI1
aI2
aI2
aI0
aa(lp185
I3
aI2
aI1
aI0
aI0
aI1
aa(lp186
I3
aI0
aI0
aI2
aa(lp187
I3
aI3
aI2
aI1
aI1
aI4
aI0
aI0
aa(lp188
I3
aI2
aI1
aI0
aI0
aI0
aI0
aI0
aI1
aI1
aa(lp189
I3
aI2
aI1
aI1
aI4
aI0
aa(lp190
I3
aI1
aI0
aI0
aI1
aa(lp191
I3
aI1
aI0
aI1
aI1
aI4
aI2
aI2
aa(lp192
I3
aI2
aI1
aI0
aI0
aI1
aI1
aa(lp193
I3
aI1
aI0
aI1
aI1
aa(lp194
I3
aI2
aI1
aI1
aI4
aI0
aI0
aI0
aI0
aI1
aI1
aa(lp195
I3
aI3
aI2
aI1
aI1
aI4
aI0
aI0
aI0
aI0
aI0
aa(lp196
I3
aI3
aI2
aI1
aI1
aI0
aa(lp197
I3
aI1
aI4
aI2
aI4
aI4
aI0
aI0
aI0
aI0
aa(lp198
I3
aI1
aI0
aI0
aI1
aa(lp199
I3
aI1
aI0
aI1
aa(lp200
I3
aI1
aI0
aI0
aI1
aI1
aI1
aa(lp201
I3
aI2
aI1
aI0
aI0
aI1
aa(lp202
I3
aI3
aI2
aI1
aI1
aI4
aI0
aI0
aI0
aI0
aI0
aI0
aI0
aa(lp203
I3
aI1
aI4
aI0
aI0
aI1
aa(lp204
I3
aI1
aI0
aI0
aI0
aI2
aI1
aa(lp205
I3
aI3
aI2
aI1
aI0
aI1
aa(lp206
I3
aI1
aI4
aI2
aI2
aI4
aI0
aa(lp207
I3
aI3
aI2
aI1
aI0
aI0
aI1
aa(lp208
I3
aI0
aI0
aI1
aI4
aI2
aI2
aI2
aa(lp209
I3
aI1
aI4
aI2
aI2
aI4
aI4
aI0
aa(lp210
I3
aI3
aI2
aI1
aI1
aI4
aI0
aI0
aI0
aa(lp211
I3
aI1
aI0
aI1
aa(lp212
I3
aI2
aI2
aI1
aI4
aI0
aa(lp213
I3
aI1
aI4
aI2
aI2
aI4
aI0
aa(lp214
I3
aI1
aI4
aI2
aI4
aI0
aI0
aI0
aI1
aa(lp215
I3
aI3
aI2
aI2
aI1
aI1
aI4
aI0
aa(lp216
I3
aI2
aI2
aI1
aI0
aI1
aI1
aa(lp217
I3
aI2
aI4
aI4
aI2
aI4
aI4
aI0
aI0
aI0
aI0
aI0
aI1
aI0
aa(lp218
I3
aI3
aI2
aI2
aI1
aI1
aI0
aI0
aa(lp219
I3
aI2
aI2
aI1
aI4
aI0
aI0
aI1
aa(lp220
I3
aI1
aI0
aI0
aI0
aI1
aa(lp221
I3
aI1
aI0
aI0
aa(lp222
I3
aI2
aI1
aI4
aI4
aI0
aI0
aI0
aI0
aa(lp223
I3
aI2
aI2
aI2
aI1
aI1
aI1
aI1
aI0
aa(lp224
I3
aI0
aI1
aI2
aI1
aa(lp225
I1
aI3
aI3
aI2
aI1
aI0
aI0
aI4
aI1
aI1
aa(lp226
I3
aI3
aI2
aI1
aI4
aI0
aI0
aI0
aI1
aa(lp227
I3
aI3
aI2
aI1
aI0
aa(lp228
I3
aI3
aI1
aI4
aI2
aI4
aI4
aI0
aI0
aI1
aa(lp229
I3
aI1
aI4
aI2
aI2
aI2
aa(lp230
I3
aI1
aI4
aI2
aI4
aI0
aI4
aI1
aI1
aI1
aa(lp231
I3
aI3
aI2
aI1
aI0
aI0
aI1
aI1
aI4
aI0
aI0
aI0
aa(lp232
I3
aI2
aI1
aI1
aI1
aI1
aI4
aI4
aI0
aI0
aI0
aI0
aa(lp233
I3
aI2
aI1
aI0
aI0
aI1
aa(lp234
I3
aI3
aI2
aI1
aI1
aI0
aI0
aa(lp235
I3
aI1
aI0
aI0
aI1
aa(lp236
I3
aI1
aI4
aI2
aI2
aI2
aI4
aI0
aI0
aI1
aI1
aa(lp237
I3
aI1
aI4
aI0
aI0
aI1
aa(lp238
I3
aI3
aI2
aI2
aI1
aI0
aI0
aI1
aa(lp239
I3
aI2
aI1
aI1
aI1
aI0
aI0
aa(lp240
I3
aI2
aI2
aI2
aI1
aI4
aI0
aI0
aa(lp241
I3
aI2
aI1
aI0
aI0
aI1
aI1
aI4
aI0
aI0
aI0
aa(lp242
I3
aI1
aI4
aI0
aa(lp243
I3
aI3
aI2
aI1
aI1
aI4
aI0
aI0
aI0
aa(lp244
I3
aI2
aI2
aI1
aI1
aI1
aI4
aI0
aa(lp245
I3
aI2
aI1
aI0
aI0
aI1
aI1
aa(lp246
I3
aI3
aI2
aI1
aI0
aI0
aI1
aI4
aI4
aI0
aI0
aI0
aa(lp247
I3
aI1
aI4
aI2
aI4
aI4
aI0
aI0
aa(lp248
I3
aI1
aI4
aI0
aI0
aa(lp249
I3
aI1
aI4
aI0
aI0
aI0
aI0
aa(lp250
I3
aI1
aI0
aI0
aI0
aI0
aI0
aa(lp251
I3
aI3
aI2
aI1
aI4
aI0
aI0
aI0
aI0
aI1
aa(lp252
I3
aI3
aI2
aI1
aI1
aI0
aI0
aa(lp253
I3
aI1
aI4
aI0
aI0
aI0
aa(lp254
I3
aI1
aI4
aI2
aI2
aI2
aI4
aI4
aI0
aI0
aa(lp255
I3
aI1
aI4
aI0
aI0
aI0
aI1
aa(lp256
I3
aI2
aI1
aI4
aI0
aI0
aI0
aa(lp257
I3
aI1
aI0
aI0
aI1
aa(lp258
I3
aI3
aI2
aI1
aI4
aI0
aa(lp259
I3
aI1
aI4
aI2
aI4
aI4
aI0
aI0
aa(lp260
I3
aI1
aI4
aI0
aI0
aI1
aa(lp261
I3
aI1
aI4
aI0
aI0
aa(lp262
I3
aI3
aI2
aI1
aI1
aI4
aI4
aI0
aI0
aI0
aa(lp263
I3
aI1
aI4
aI0
aI0
aa(lp264
I3
aI3
aI2
aI2
aI1
aI0
aI0
aI1
aa(lp265
I3
aI1
aI0
aI0
aI2
aI2
aa(lp266
I3
aI3
aI1
aI0
aI0
aI0
aI2
aa(lp267
I3
aI3
aI2
aI1
aI1
aI1
aI4
aI0
aI0
aa(lp268
I3
aI1
aI0
aI0
aa(lp269
I3
aI1
aI0
aa(lp270
I3
aI1
aI0
aI0
aI0
aI0
aI0
aI0
aI0
aI0
aI0
aI0
aI0
aa(lp271
I3
aI2
aI2
aI1
aI0
aI1
aa(lp272
I3
aI2
aI1
aI0
aI0
aI0
aI1
aI1
aa(lp273
I3
aI2
aI1
aI0
aI0
aI1
aa(lp274
I3
aI3
aI2
aI1
aI1
aI1
aI1
aI0
aI0
aI0
aa(lp275
I3
aI1
aI4
aI0
aI4
aI0
aI0
aI0
aa(lp276
I3
aI1
aI4
aI2
aI2
aI4
aI0
aI0
aI0
aa.