(lp0
(lp1
I4
aI3
aI2
aI1
aI0
aI0
aI4
aI1
aa(lp2
I3
aI2
aI1
aI4
aI0
aI0
aI0
aI1
aa(lp3
I3
aI2
aI2
aI1
aI1
aI1
aI4
aI0
aa(lp4
I3
aI1
aI4
aI2
aI4
aI4
aI0
aI0
aI0
aI0
aa(lp5
I3
aI1
aI4
aI2
aI2
aI4
aI4
aI0
aI0
aI0
aa(lp6
I3
aI3
aI1
aI4
aI0
aI0
aI1
aI1
aa(lp7
I3
aI2
aI2
aI2
aI4
aI0
aI0
aI0
aI0
aI0
aI0
aa(lp8
I3
aI3
aI2
aI1
aI4
aI0
aI0
aI0
aI0
aa(lp9
I3
aI2
aI1
aI0
aI1
aI1
aa(lp10
I3
aI2
aI1
aI1
aI1
aI4
aI0
aI0
aI0
aa(lp11
I3
aI2
aI1
aI1
aI1
aI1
aI1
aI4
aI0
aI0
aa(lp12
I3
aI3
aI2
aI2
aI2
aI1
aI1
aa(lp13
I3
aI1
aI4
aI0
aI0
aI1
aa(lp14
I3
aI3
aI2
aI1
aI1
aI4
aI0
aa(lp15
I3
aI1
aI4
aI2
aI4
aI4
aI0
aI0
aa(lp16
I3
aI1
aI0
aI0
aI1
aI1
aa(lp17
I3
aI3
aI1
aI4
aI0
aI0
aI0
aI0
aI0
aa(lp18
I3
aI2
aI2
aI2
aI1
aI0
aI0
aa(lp19
I3
aI2
aI2
aI1
aI0
aI0
aI0
aI1
aI1
aa(lp20
I3
aI2
aI1
aI0
aI0
aI4
aI1
aI1
aa(lp21
I3
aI3
aI1
aI4
aI0
aI0
aI0
aI1
aI2
aI2
aI2
aI2
aa(lp22
I3
aI2
aI1
aI4
aI0
aI1
aa(lp23
I3
aI3
aI2
aI1
aI0
aI1
aa(lp24
I3
aI1
aI0
aI1
aI1
aI4
aI0
aI0
aI2
aI2
aa(lp25
I3
aI3
aI2
aI2
aI2
aI1
aI1
aI0
aI0
aI0
aa(lp26
I3
aI3
aI2
aI1
aI0
aI0
aI1
aa(lp27
I3
aI1
aI0
aI0
aI0
aI0
aa(lp28
I3
aI1
aI4
aI0
aI0
aI0
aI0
aI2
aI1
aa(lp29
I3
aI3
aI2
aI2
aI1
aI1
aI1
aI4
aI0
aI0
aa(lp30
I3
aI1
aI0
aI0
aI2
aI2
aa(lp31
I3
aI1
aI4
aI2
aI4
aI0
aa(lp32
I3
aI1
aI4
aI2
aI2
aI4
aI0
aI2
aI2
aa(lp33
I2
aI3
aI2
aI1
aI4
aI0
aI0
aI0
aI1
aI1
aa(lp34
I3
aI1
aI0
aI0
aI2
aI1
aa(lp35
I3
aI2
aI1
aI0
aI0
aa(lp36
I3
aI1
aI0
aI0
aI1
aa(lp37
I3
aI1
aI0
aI0
aI0
aI1
aI1
aa(lp38
I3
aI1
aI0
aI0
aI1
aI1
aI4
aI4
aI0
aI0
aa(lp39
I3
aI1
aI4
aI2
aI1
aI1
aI4
aI4
aI0
aI0
aa(lp40
I3
aI3
aI2
aI1
aI0
aI0
aI0
aI1
aa(lp41
I3
aI3
aI2
aI1
aI4
aI0
aI0
aI1
aa(lp42
I4
aI3
aI2
aI2
aI2
aI1
aI0
aI0
aI1
aI1
aa(lp43
I3
aI1
aI4
aI2
aI4
aI0
aa(lp44
I3
aI1
aI4
aI0
aa(lp45
I3
aI3
aI2
aI2
aI1
aI0
aI0
aI1
aI1
aa(lp46
I3
aI1
aI4
aI2
aI2
aI2
aI4
aI4
aI0
aI0
aa(lp47
I3
aI3
aI2
aI1
aI4
aI0
aI0
aI1
aI2
aI2
aa(lp48
I3
aI3
aI2
aI2
aI1
aI0
aI1
aa(lp49
I3
aI1
aI4
aI0
aI0
aa(lp50
I3
aI2
aI2
aI2
aI1
aI4
aI0
aI0
aI0
aI1
aa(lp51
I3
aI2
aI2
aI2
aI2
aI1
aI1
aI0
aa(lp52
I3
aI1
aI4
aI2
aI4
aI4
aI0
aI0
aI0
aa(lp53
I3
aI1
aI0
aI0
aI0
aI2
aI1
aa(lp54
I3
aI2
aI1
aI0
aI1
aa(lp55
I3
aI1
aI4
aI2
aI2
aI4
aI4
aI0
aa(lp56
I3
aI1
aI0
aI1
aa(lp57
I3
aI1
aI4
aI0
aI0
aI0
aI0
aa(lp58
I3
aI2
aI1
aI0
aa(lp59
I3
aI2
aI2
aI1
aI1
aI0
aI0
aa(lp60
I3
aI3
aI2
aI2
aI1
aI0
aI1
aa(lp61
I3
aI2
aI1
aI1
aI0
aa(lp62
I3
aI2
aI2
aI2
aI1
aI0
aa(lp63
I3
aI1
aI4
aI2
aI2
aI4
aI0
aI0
aI0
aa(lp64
I3
aI2
aI1
aI0
aI0
aI1
aI1
aa(lp65
I3
aI3
aI2
aI2
aI2
aI1
aI1
aI1
aI0
aa(lp66
I3
aI1
aI4
aI2
aI2
aI4
aI4
aI0
aI0
aa(lp67
I3
aI1
aI0
aI0
aI1
aI4
aI0
aI0
aI0
aa(lp68
I3
aI1
aI4
aI2
aI4
aI4
aI0
aI0
aI0
aI0
aI0
aa(lp69
I3
aI1
aI4
aI2
aI2
aI2
aI4
aI4
aI0
aI0
aI0
aa(lp70
I4
aI1
aI4
aI0
aI0
aa(lp71
I3
aI1
aI0
aI0
aI1
aa(lp72
I3
aI1
aI0
aa(lp73
I3
aI1
aI4
aI0
aI0
aI0
aa(lp74
I4
aI2
aI1
aI0
aI0
aI1
aI2
aI4
aI2
aI2
aI2
aa(lp75
I3
aI1
aI4
aI2
aI4
aI0
aa(lp76
I3
aI2
aI1
aI1
aI1
aI0
aI0
aa(lp77
I3
aI1
aI4
aI2
aI4
aI4
aI0
aI0
aa(lp78
I3
aI3
aI2
aI1
aI1
aI1
aI1
aI0
aI0
aI4
aI0
aa(lp79
I3
aI3
aI2
aI2
aI1
aI0
aI0
aI1
aa(lp80
I3
aI1
aI0
aI0
aI0
aI2
aa(lp81
I3
aI1
aI4
aI0
aI0
aI0
aI1
aI1
aa(lp82
I3
aI1
aI4
aI2
aI4
aI4
aI0
aI0
aa(lp83
I3
aI1
aI0
aI0
aI1
aa(lp84
I3
aI1
aI0
aI0
aI0
aI1
aa(lp85
I3
aI2
aI1
aI0
aI0
aI1
aa(lp86
I3
aI3
aI2
aI2
aI1
aI0
aI1
aa(lp87
I2
aI2
aI3
aI2
aI1
aI0
aI0
aI1
aa(lp88
I3
aI2
aI1
aI0
aI0
aI1
aI1
aa(lp89
I3
aI3
aI2
aI2
aI2
aI1
aI0
aI0
aI1
aa(lp90
I3
aI1
aI4
aI0
aI0
aI2
aI1
aa(lp91
I3
aI1
aI4
aI2
aI2
aI4
aI0
aI0
aI0
aI0
aa(lp92
I3
aI1
aI0
aa(lp93
I3
aI1
aI4
aI2
aI2
aI1
aI1
aI4
aI0
aa(lp94
I3
aI1
aI4
aI0
aI0
aI0
aI1
aa(lp95
I3
aI2
aI1
aI0
aI1
aa(lp96
I3
aI2
aI1
aI0
aI0
aI1
aa(lp97
I3
aI3
aI2
aI1
aI0
aI1
aa(lp98
I3
aI1
aI4
aI0
aI1
aa(lp99
I3
aI1
aI4
aI0
aI0
aI0
aI0
aI0
aI1
aa(lp100
I3
aI1
aI0
aI1
aI1
aI1
aa.