(dp0
Vlimited
p1
I0
sVhats
p2
I1
sVcobia
p3
I2
sVfacilities
p4
I3
sVmansion
p5
I4
sVcaptain
p6
I5
sVMarcellus
p7
I6
sVLiverpool
p8
I7
sVVinci
p9
I8
sVHonda
p10
I9
sVperiodicals
p11
I10
sVedward
p12
I11
sVunder
p13
I12
sVtweed
p14
I13
sVpride
p15
I14
sVworth
p16
I15
sVquartzite
p17
I16
sVsinking
p18
I17
sVlumix
p19
I18
sVStudios
p20
I1426
sVgovern
p21
I130
sVSpurs
p22
I21
sVschool
p23
I22
sVprize
p24
I23
sVcompanies
p25
I24
sVLeafs
p26
I25
sVascap
p27
I26
sVbicycle
p28
I27
sVmiller
p29
I28
sVAccent
p30
I29
sVjapanese
p31
I30
sVMatthew
p32
I31
sVsecond
p33
I32
sVstreet
p34
I33
sVestimated
p35
I34
sVmonorail
p36
I35
sVestablished
p37
I36
sVLSE
p38
I37
sVthunder
p39
I38
sVbipolar
p40
I279
sVHamilton
p41
I40
sVfossil
p42
I41
sVcars
p43
I42
sVsupplier
p44
I43
sVnew
p45
I44
sVnet
p46
I45
sVcrunch
p47
I46
sVcatan
p48
I47
sVherm
p49
I48
sVFerrari
p50
I49
sV101
p51
I50
sVdry
p52
I51
sVX-Men
p53
I52
sVkids
p54
I53
sVemployees
p55
I54
sVsubstancs
p56
I56
sVmilitary
p57
I57
sVchateau
p58
I58
sVgolden
p59
I60
sVoffs
p60
I61
sVPryde
p61
I1099
sVmetamorphic
p62
I63
sVSt.
p63
I64
sVReloaded
p64
I65
sVMadagascar
p65
I66
sVcounty
p66
I67
sVcocaine
p67
I68
sVdna
p68
I69
sVarmy
p69
I70
sVhospital
p70
I71
sVbike
p71
I72
sVmusic
p72
I73
sVtype
p73
I74
sVtell
p74
I75
sVabusing
p75
I76
sVg.h.
p76
I77
sVholy
p77
I78
sVcardiology
p78
I79
sVoscar
p79
I80
sVaward
p80
I81
sVChronicles
p81
I82
sV1993
p82
I83
sV1992
p83
I84
sVword
p84
I85
sVSinatra
p85
I1447
sVmovies
p86
I87
sVMuhammad
p87
I88
sVcrackers
p88
I89
sVmy
p89
I586
sVgive
p90
I91
sVLil
p91
I92
sVSara
p92
I93
sVJerry
p93
I94
sVcurrency
p94
I96
sVWizards
p95
I97
sVLord
p96
I98
sVDempsey
p97
I99
sVMatsumoto
p98
I731
sVend
p99
I660
sVhow
p100
I102
sVamazing
p101
I103
sVgato
p102
I104
sVJack
p103
I105
sVboats
p104
I106
sVIII
p105
I107
sVmassive
p106
I108
sVA
p107
I109
sVafter
p108
I110
sVlab
p109
I111
sVdinosaurs
p110
I112
sVpresident
p111
I113
sVtypes
p112
I114
sVCivic
p113
I115
sVwins
p114
I116
sVheadquarters
p115
I117
sVfictional
p116
I118
sVgreen
p117
I119
sVLloyd
p118
I120
sVenter
p119
I121
sVoperate
p120
I122
sVathletes
p121
I123
sVorder
p122
I124
sVwind
p123
I125
sVhedgehog
p124
I126
sVrestriction
p125
I127
sVdeco
p126
I128
sVover
p127
I129
sVHenry
p128
I20
sVfit
p129
I131
sV,
p130
I132
sVexhibits
p131
I133
sVwriting
p132
I134
sVdestroyed
p133
I135
sVproduction
p134
I136
sVJcpenney
p135
I137
sVbelly
p136
I138
sVaffected
p137
I139
sVdiseases
p138
I140
sVband
p139
I141
sVbang
p140
I142
sVeffects
p141
I143
sVschools
p142
I144
sVsilver
p143
I145
sVlithium
p144
I147
sVoxygen
p145
I148
sVdebut
p146
I149
sVWalden
p147
I150
sVside
p148
I151
sVMaden
p149
I152
sVGirardi
p150
I153
sVtelescope
p151
I154
sVseries
p152
I155
sVOmarion
p153
I156
sVkirkstall
p154
I1810
sVhosted
p155
I158
sVnavy
p156
I159
sVcathedral
p157
I160
sVReach
p158
I2087
sVnetwork
p159
I161
sVdriving
p160
I162
sVdialects
p161
I163
sVcameras
p162
I164
sVparticles
p163
I165
sVmillennium
p164
I166
sVcomprehensive
p165
I1458
sVgot
p166
I167
sVWord
p167
I168
sVUniversity
p168
I169
sVmagician_s
p169
I170
sVfree
p170
I171
sVstandard
p171
I172
sVinversions
p172
I1115
sVformation
p173
I174
sVgrapes
p174
I175
sVtelescopes
p175
I176
sVcertified
p176
I177
sVdelight
p177
I178
sVstirrers
p178
I179
sVClinton
p179
I180
sVcreated
p180
I181
sVstarts
p181
I182
sVNational
p182
I183
sVdays
p183
I184
sVsilicon
p184
I185
sVmusicians
p185
I186
sVPauwel
p186
I187
sViceman
p187
I188
sVRyan
p188
I1797
sVspeeds
p189
I189
sVbreed
p190
I757
sVAdolf
p191
I191
sVgrade
p192
I192
sVattractions
p193
I193
sVrank
p194
I194
sVchannels
p195
I195
sVfantasy
p196
I196
sVfeatured
p197
I197
sVfloors
p198
I198
sVforce
p199
I199
sVthick
p200
I1255
sVSteelers
p201
I201
sVmercury
p202
I202
sVNarnia
p203
I1266
sVservice
p204
I204
sVtop
p205
I205
sVcodons
p206
I206
sVfiction
p207
I207
sVUluru
p208
I208
sVmaster
p209
I209
sVlisted
p210
I210
sVNintendo
p211
I211
sVpercentage
p212
I212
sVeuro
p213
I1464
sVIsolde
p214
I214
sVdanish
p215
I215
sVserve
p216
I216
sVprosthetic
p217
I217
sVdirect
p218
I218
sVwestern
p219
I219
sVOracle
p220
I221
sVpostcards
p221
I222
sVsymptom
p222
I223
sVAnthony
p223
I1550
sVroles
p224
I224
sVCraig
p225
I225
sVactors
p226
I1585
sVproject
p227
I226
sVmatter
p228
I227
sVtitles
p229
I228
sVhistorical
p230
I229
sVknights
p231
I230
sVpowers
p232
I231
sVscreenplay
p233
I232
sVbridge
p234
I233
sVChicago
p235
I234
sVmind
p236
I235
sVDowney
p237
I236
sVGatorade
p238
I237
sVDepot
p239
I238
sVWilliams
p240
I239
sVYoukilis
p241
I240
sVPrincetown
p242
I241
sV1968
p243
I242
sVhub
p244
I766
sV1964
p245
I244
sV1966
p246
I245
sV1967
p247
I246
sVforces
p248
I248
sVrides
p249
I249
sVsoaker
p250
I250
sVquarterback
p251
I251
sVbruce
p252
I252
sVLucy
p253
I253
sVwells
p254
I254
sVmario
p255
I255
sVletter
p256
I256
sVIvan
p257
I257
sVAlabama
p258
I258
sVBond
p259
I259
sVepisode
p260
I260
sVneighborhoods
p261
I261
sVSopranos
p262
I262
sVcanasta
p263
I263
sVLewis
p264
I264
sVprofessor
p265
I265
sVgoalkeepers
p266
I266
sVCurly
p267
I267
sVUnion
p268
I268
sVlabels
p269
I269
sVnominated
p270
I270
sVreligions
p271
I271
sVcolors
p272
I272
sVradio
p273
I273
sVparticipate
p274
I274
sVnephew
p275
I275
sVEuropean
p276
I276
sVjudges
p277
I277
sVEiffel
p278
I278
sVGame
p279
I39
sVtheme
p280
I280
sVdo
p281
I281
sVexports
p282
I282
sVLohan
p283
I283
sVde
p284
I284
sVstop
p285
I285
sV13
p286
I777
sVda
p287
I287
sVhaunted
p288
I288
sVreport
p289
I289
sVX
p290
I290
sVpeseta
p291
I291
sVArmstrong
p292
I292
sVcountries
p293
I293
sVigneous
p294
I294
sVWashington
p295
I295
sVerupt
p296
I296
sVMockingbird
p297
I297
sVrelease
p298
I298
sVJackson
p299
I299
sVdisaster
p300
I300
sVAnderson
p301
I301
sVSydney
p302
I302
sVbess
p303
I303
sVJohn
p304
I304
sVbest
p305
I305
sVsubject
p306
I306
sVsaid
p307
I616
sVcapacity
p308
I308
sVrings
p309
I309
sVolympics
p310
I310
sVpets
p311
I311
sVglutamine
p312
I312
sVdiscovery
p313
I313
sVC
p314
I314
sVpositron
p315
I315
sVLindsey
p316
I316
sVwear
p317
I317
sVbutane
p318
I318
sVnews
p319
I319
sVmotto
p320
I320
sVWilma
p321
I321
sVroller
p322
I322
sVisotopes
p323
I323
sVaccident
p324
I324
sVcountry
p325
I325
sVplayers
p326
I326
sVgames
p327
I327
sVadapted
p328
I328
sVCarlisle
p329
I329
sVCoolpix
p330
I330
sVcharacter
p331
I331
sVheight
p332
I332
sVconference
p333
I333
sVlighthouse
p334
I334
sVengines
p335
I335
sVsource
p336
I1479
sVSandman
p337
I337
sVbeen
p338
I338
sV.
p339
I339
sVsubmarine
p340
I340
sVHillary
p341
I341
sVmuch
p342
I342
sVstadium
p343
I343
sVparents
p344
I1481
sVwebsite
p345
I345
sVlife
p346
I346
sVAdams
p347
I347
sVTokyo
p348
I348
sVlocations
p349
I794
sVpista
p350
I350
sVDonovan
p351
I351
sVworked
p352
I352
sVspin
p353
I353
sVCessna
p354
I354
sVadaptations
p355
I355
sVoriginate
p356
I356
sVair
p357
I357
sVemploy
p358
I358
sVkifm
p359
I359
sVCleveland
p360
I360
sVturbojet
p361
I361
sVvoice
p362
I362
sVlaunched
p363
I363
sVcylinder
p364
I364
sVplayed
p365
I365
sVis
p366
I366
sVnutter
p367
I367
sVit
p368
I368
sVii
p369
I369
sVin
p370
I370
sVcasting
p371
I371
sVLeno's
p372
I372
sVmake
p373
I548
sVV.
p374
I374
sVdamages
p375
I375
sVunfortunate
p376
I376
sVbig
p377
I1486
sVrupiah
p378
I378
sVrna
p379
I379
sVhana
p380
I380
sVAngeles
p381
I381
sVrenaissance
p382
I382
sVMonsanto
p383
I383
sVcharacters
p384
I384
sVHome
p385
I385
sVStrode
p386
I386
sVbutter
p387
I387
sVkept
p388
I388
sV1979
p389
I389
sVprograms
p390
I390
sV1973
p391
I391
sVpractices
p392
I392
sVgreatest
p393
I393
sVhearts
p394
I394
sVthe
p395
I395
sVmusical
p396
I396
sVSarah
p397
I397
sVtamagawa
p398
I1699
sVRussell
p399
I398
sVproposed
p400
I399
sVyen
p401
I400
sVsporting
p402
I401
sVdistribute
p403
I402
sVzoo
p404
I798
sVportrayed
p405
I404
sVelk
p406
I405
sVGropius'
p407
I406
sVroyal
p408
I407
sVbelongs
p409
I408
sVcollections
p410
I409
sVeasy
p411
I410
sVhas
p412
I411
sVNittany
p413
I412
sVBeastie
p414
I413
sVHubble
p415
I414
sVelevation
p416
I415
sVJames
p417
I416
sVsurvival
p418
I417
sVlcd
p419
I418
sVbirth
p420
I419
sVjudge
p421
I420
sVcape
p422
I421
sVdesigners
p423
I422
sVmelting
p424
I423
sValice
p425
I424
sV52
p426
I425
sVdesigning
p427
I1439
sVnight
p428
I426
sVcirrus
p429
I427
sVright
p430
I428
sVold
p431
I429
sVpeople
p432
I430
sVborn
p433
I431
sVStones'
p434
I432
sVproductions
p435
I433
sVjupiter
p436
I434
sVelection
p437
I435
sVFargo
p438
I436
sVHaydn
p439
I437
sVLee
p440
I438
sVfor
p441
I439
sVeverything
p442
I440
sVDave
p443
I441
sVFacebook
p444
I442
sVsyphilis
p445
I443
sVChris
p446
I444
sVLaMarcus
p447
I445
sVRoyce
p448
I446
sVSavealot
p449
I447
sVspider-man
p450
I448
sVSteven
p451
I449
sVstarring
p452
I904
sVmanufacturing
p453
I451
sVsuper
p454
I452
sVproperties
p455
I453
sVchapter
p456
I454
sVchuan
p457
I455
sVboiling
p458
I456
sVOS
p459
I1496
sVnewspapers
p460
I458
sVislands
p461
I459
sVruntime
p462
I460
sVfacility
p463
I461
sVcivil
p464
I462
sVdown
p465
I463
sVAaron
p466
I464
sVHank
p467
I465
sVamerica
p468
I811
sVInvertigo
p469
I467
sValtitude
p470
I468
sVinitial
p471
I739
sVfight
p472
I470
sVfought
p473
I471
sVeditor
p474
I472
sVNBC
p475
I473
sVBlass
p476
I780
sVUEFA
p477
I782
sVhead
p478
I476
sVform
p479
I477
sVbatman
p480
I800
sVbengali
p481
I479
sVAkers
p482
I480
sVtrue
p483
I481
sVGolden
p484
I482
sVversions
p485
I483
sVmaximum
p486
I484
sVpeso
p487
I485
sVcrystal
p488
I486
sVplymouth
p489
I487
sVstages
p490
I874
sVElectronic
p491
I489
sVJose
p492
I886
sVTudor
p493
I491
sVship
p494
I492
sVFrancisco
p495
I493
sVfloor
p496
I494
sVglacier
p497
I495
sVstake
p498
I496
sVwhen
p499
I497
sVsetting
p500
I498
sVrole
p501
I499
sVdigital
p502
I500
sVtest
p503
I501
sVScrabble
p504
I816
sVdepot
p505
I503
sVoperators
p506
I1167
sVscored
p507
I505
sV's
p508
I506
sVmodels
p509
I507
sVfootball
p510
I508
sVdiet
p511
I509
sVrolling
p512
I1020
sVhawker
p513
I511
sVdied
p514
I512
sVPacquiao
p515
I513
sVdaily
p516
I514
sVbeds
p517
I515
sVtime
p518
I1070
sVsongs
p519
I517
sVcoach
p520
I518
sVmanaged
p521
I519
sVfocus
p522
I520
sVGotham
p523
I521
sVmanages
p524
I522
sVskiing
p525
I523
sVbattle
p526
I524
sVmilk
p527
I525
sV1948
p528
I526
sVColumbia
p529
I527
sVzone
p530
I528
sVstumpjumper
p531
I529
sVtechnique
p532
I530
sVcharge
p533
I532
sVYahoo!'s
p534
I533
sVdivision
p535
I534
sVOreo
p536
I535
sVHiggins
p537
I536
sVsponsors
p538
I537
sVautomobiles
p539
I538
sVLaurie
p540
I539
sVrechargable
p541
I540
sVminute
p542
I541
sVParker
p543
I542
sVclouds
p544
I543
sVpresented
p545
I544
sVdid
p546
I545
sVdie
p547
I546
sVCanon
p548
I547
sVtravels
p549
I549
sVKatrina
p550
I550
sVsubway
p551
I551
sVteam
p552
I552
sVround
p553
I553
sVKevin
p554
I554
sV"i'll
p555
I555
sVolympic
p556
I556
sVsays
p557
I557
sVFrank
p558
I1511
sVthinker
p559
I558
sVcost
p560
I559
sVShakespeare
p561
I561
sVcorner
p562
I824
sVpatient
p563
I1520
sVRed
p564
I564
sVappear
p565
I565
sVbarbie
p566
I566
sVBruce
p567
I567
sVFord
p568
I568
sVcurrent
p569
I569
sVIndependence
p570
I1863
sVinternational
p571
I571
sVoaks
p572
I572
sVtransportation
p573
I573
sVHopkins
p574
I574
sVguardian
p575
I575
sVmakeup
p576
I576
sVfrench
p577
I577
sVwater
p578
I578
sVKahlo
p579
I579
sVaddress
p580
I580
sVcity/town/village
p581
I581
sVplayable
p582
I582
sVcanadian
p583
I584
sVinstitute
p584
I585
sVMussolini
p585
I90
sVstudied
p586
I587
sVhonda
p587
I1723
sVFedor
p588
I588
sVgsusa
p589
I589
sVFrancesco
p590
I590
sVusually
p591
I591
sVPanasonic
p592
I1180
sVplastiki
p593
I593
sVPac-man
p594
I595
sVMatrix
p595
I596
sVstorms
p596
I597
sVAbbey
p597
I598
sV1st
p598
I599
sVJoni
p599
I600
sVGLS
p600
I601
sVhotels
p601
I602
sVAustralia
p602
I603
sVworking
p603
I604
sVHalper
p604
I605
sVvisit
p605
I606
sVNikon
p606
I607
sVlive
p607
I608
sViphone
p608
I609
sVfilms
p609
I610
sVscope
p610
I611
sVaustralian
p611
I612
sVangels
p612
I613
sVaspirin
p613
I614
sVBen
p614
I615
sVF
p615
I617
sVclub
p616
I618
sVMount
p617
I619
sVmoored
p618
I1532
sVbeers
p619
I621
sVcases
p620
I622
sVMontreal
p621
I623
sVmascot
p622
I624
sVorganizations
p623
I625
sVjudo
p624
I626
sVcar
p625
I627
sVoriginally
p626
I628
sVsoul
p627
I629
sVlongitude
p628
I630
sVBath
p629
I631
sVprinting
p630
I632
sVcan
p631
I633
sVAntilles
p632
I634
sVtokyu
p633
I635
sVbreeds
p634
I636
sVheart
p635
I637
sVdedicated
p636
I638
sVstroke
p637
I639
sVperformed
p638
I640
sVUNESCO
p639
I1182
sVclothing
p640
I642
sVWalter
p641
I643
sVswedish
p642
I644
sVTristan
p643
I645
sVwinter
p644
I646
sVpsychiatrist
p645
I647
sVchemical
p646
I648
sVGallagher
p647
I649
sVeconomy
p648
I650
sVproduct
p649
I651
sVdesigner
p650
I652
sVmay
p651
I653
sVmax
p652
I654
sVsnl
p653
I655
sVproduce
p654
I656
sVdesigned
p655
I657
sVMartin
p656
I658
sVdate
p657
I659
sVpolio
p658
I101
sVjournals
p659
I661
sVman
p660
I662
sVbranches
p661
I663
sVtahina
p662
I664
sVbranched
p663
I665
sVtall
p664
I666
sVMcKinney
p665
I667
sVserge
p666
I668
sVMississippi
p667
I669
sVrye
p668
I1189
sVcharlie_s
p669
I671
sVdistributors
p670
I672
sVJay
p671
I673
sVepisodes
p672
I674
sVNathanael
p673
I675
sVWhite
p674
I676
sVworship
p675
I677
sVSheen
p676
I678
sVomarion
p677
I373
sVgroup
p678
I679
sVphilosopher_s
p679
I680
sVbroadcasts
p680
I681
sVWorld
p681
I682
sVmain
p682
I683
sVhappened
p683
I684
sVlonely
p684
I685
sVcombustion
p685
I1844
sVTurtles
p686
I686
sVmatches
p687
I687
sV1955
p688
I688
sVRome
p689
I689
sVGSUSA
p690
I690
sVhall
p691
I691
sVname
p692
I692
sVopera
p693
I693
sVdrop
p694
I694
sVWagner
p695
I695
sVMile
p696
I696
sVrock
p697
I697
sVHeathrow
p698
I698
sVsgt.
p699
I699
sVbrews
p700
I700
sVabnormal
p701
I701
sVconventions
p702
I702
sVBarack
p703
I703
sVsponsor
p704
I704
sVyear
p705
I705
sVtaoism
p706
I706
sVFrazier
p707
I707
sValbum
p708
I708
sVopened
p709
I709
sVspace
p710
I710
sVprofit
p711
I711
sVmultiplayer
p712
I712
sVdoonesbury
p713
I713
sVJoe
p714
I714
sVfargo
p715
I715
sVformula
p716
I716
sVSaturn
p717
I717
sVsensor
p718
I718
sVshows
p719
I719
sVeagle
p720
I720
sVattended
p721
I721
sVhull
p722
I722
sVoverground
p723
I723
sVquark
p724
I724
sVcalifornia
p725
I725
sVmarina
p726
I726
sVcard
p727
I727
sVlanguage
p728
I728
sVmotor
p729
I1683
sVprogramming
p730
I729
sVbritish
p731
I730
sVmotion
p732
I100
sVKepler
p733
I732
sVplace
p734
I733
sVfootwear
p735
I734
sVfirst
p736
I736
sVorigin
p737
I737
sVcheese
p738
I738
sVtennis
p739
I469
sVrevenue
p740
I740
sVspoken
p741
I741
sVpotter
p742
I742
sVAsia
p743
I743
sVone
p744
I744
sVGraeme
p745
I745
sVLanders
p746
I746
sVlong
p747
I747
sVspanish
p748
I749
sVring
p749
I750
sVFlickr
p750
I751
sVopen
p751
I752
sVengineer
p752
I753
sVcity
p753
I754
sVgiven
p754
I755
sVdistrict
p755
I756
sVMozilla
p756
I190
sVrunways
p757
I758
sVreturns
p758
I759
sV2
p759
I760
sVyip
p760
I761
sVconvention
p761
I762
sVPost
p762
I763
sVparticipated
p763
I764
sVFortune
p764
I765
sVBritney
p765
I243
sVMozart
p766
I767
sVseason
p767
I768
sVcirculated
p768
I769
sVbroadcast
p769
I770
sVreleased
p770
I771
sVkid_s
p771
I772
sVoperates
p772
I1887
sVInc.
p773
I774
sVpopulation
p774
I775
sV11
p775
I776
sVtelevision
p776
I286
sV12
p777
I778
sVColorado
p778
I779
sVwas
p779
I474
sVAli
p780
I781
sVwar
p781
I475
sVkarate
p782
I783
sVrehab
p783
I784
sVprotected
p784
I785
sVGamble's
p785
I786
sVwere
p786
I787
sVcards
p787
I788
sVpoisoning
p788
I789
sVand
p789
I790
sVsan
p790
I791
sVlohengrin
p791
I792
sVtopics
p792
I793
sVPhiladelphia
p793
I349
sVburied
p794
I795
sVhorsepower
p795
I796
sVDS
p796
I797
sVinstructed
p797
I403
sVtake
p798
I799
sVepsilon
p799
I478
sVLambeau
p800
I801
sVHall
p801
I802
sVHalo
p802
I803
sVjungle
p803
I804
sVbegin
p804
I805
sVHardin
p805
I806
sVroster
p806
I807
sVprice
p807
I808
sVfalls
p808
I809
sVvisitors
p809
I810
sVpolaris
p810
I466
sVaverage
p811
I812
sVlater
p812
I813
sVprimetieme
p813
I814
sVAntarctica
p814
I815
sVsunset
p815
I502
sVsigma
p816
I817
sValetsch
p817
I818
sVshow
p818
I819
sVgerman
p819
I820
sVBarry
p820
I821
sVdiscovered
p821
I822
sVStephen
p822
I823
sVGate
p823
I562
sVfifth
p824
I825
sVmerlin
p825
I826
sVtitle
p826
I827
sVgull
p827
I828
sVstate
p828
I1896
sVtexture
p829
I830
sVonly
p830
I831
sVgoing
p831
I832
sVblack
p832
I833
sVhockey
p833
I834
sVLuther
p834
I835
sVget
p835
I836
sVLouis
p836
I837
sVmoons
p837
I838
sVdesignated
p838
I839
sVLightnin'
p839
I1217
sVPanettiere
p840
I842
sVMozart_s
p841
I843
sVthat_s
p842
I844
sVwhere
p843
I845
sVconcert
p844
I846
sVRings
p845
I847
sVClaris
p846
I848
sV#1
p847
I849
sVsport
p848
I850
sVaugust
p849
I851
sVIowa
p850
I852
sVProcter
p851
I853
sVfederal
p852
I854
sVsites
p853
I855
sVlabel
p854
I856
sVRenoir
p855
I857
sV3
p856
I858
sVbetween
p857
I859
sVdeveloper
p858
I1221
sVman,
p859
I861
sVU.S.
p860
I862
sVMcLean
p861
I863
sVTarget
p862
I864
sVparent
p863
I865
sVoriginated
p864
I866
sVscreen
p865
I867
sVjr
p866
I868
sVguitar
p867
I869
sVawards
p868
I870
sVcities
p869
I871
sVcome
p870
I872
sVToure
p871
I873
sVdaddy
p872
I488
sVnex-5
p873
I875
sVAnderssen
p874
I876
sVmany
p875
I877
sVCitation
p876
I878
sVdedicate
p877
I879
sVtour
p878
I880
sVcomet
p879
I881
sVrailway
p880
I882
sVtraded
p881
I883
sVYosemite
p882
I884
sVcancer
p883
I885
sVpassenger
p884
I490
sVcolor
p885
I887
sVDelaware
p886
I888
sVperiod
p887
I889
sVtechvibes
p888
I890
sVboson
p889
I1345
sVTorre
p890
I892
sVarts
p891
I893
sVwest
p892
I894
sVFlash
p893
I1641
sVairlines
p894
I895
sVmark
p895
I896
sValmighty
p896
I897
sVborders
p897
I898
sV500
p898
I899
sVengine
p899
I900
sVthousand
p900
I901
sVformed
p901
I902
sVandrew
p902
I903
sVinstant
p903
I1911
sVchampions
p904
I906
sVstructures
p905
I907
sVMarshall
p906
I908
sVengineering
p907
I1575
sVarnold
p908
I910
sVcast
p909
I911
sVorientation
p910
I912
sVconferences
p911
I913
sVagnostic
p912
I914
sVbros
p913
I915
sVthrilla
p914
I916
sVmiddle
p915
I917
sVbeaver
p916
I918
sVprotein
p917
I919
sVtechnology
p918
I920
sVfame
p919
I921
sVtourist
p920
I922
sVmarket-frankford
p921
I923
sVdifferent
p922
I924
sVdoctor
p923
I925
sValphabet
p924
I926
sVPowershot
p925
I927
sVspeech
p926
I928
sVlite
p927
I929
sVevents
p928
I930
sVfinish
p929
I931
sVclosest
p930
I932
sVsingapore
p931
I933
sVcompanion
p932
I934
sVdirector
p933
I935
sVsubmarines
p934
I936
sVrunning
p935
I937
sVMammoth
p936
I938
sVsikhism
p937
I939
sVIron
p938
I940
sVWoody
p939
I1916
sVDream
p940
I942
sVweave
p941
I944
sVtheater
p942
I945
sVrupee
p943
I946
sVtrains
p944
I947
sVmodel
p945
I948
sVcharged
p946
I949
sVsummer
p947
I950
sVUnited
p948
I951
sVbeing
p949
I952
sVmoney
p950
I953
sVBoxing
p951
I954
sVneon
p952
I955
sVColby
p953
I956
sVS50
p954
I957
sVspeed
p955
I958
sVdeath
p956
I959
sVeuros
p957
I960
sVscissorhands
p958
I961
sVMac
p959
I1584
sVblog
p960
I963
sVinstrument
p961
I964
sVdipper
p962
I965
sV4
p963
I966
sVNinja
p964
I967
sVMona
p965
I968
sVIsland
p966
I969
sVwelland
p967
I970
sVarchitectural
p968
I450
sVworld
p969
I971
sVlady
p970
I972
sVstraight-4
p971
I973
sVfortune
p972
I974
sVrobson
p973
I976
sVroll
p974
I504
sVannually
p975
I977
sVLondon
p976
I978
sVt
p977
I979
sVwba
p978
I980
sVserved
p979
I981
sVtower
p980
I982
sVkennel
p981
I983
sVtagliablog
p982
I984
sVMark
p983
I985
sVNew
p984
I986
sVMarx
p985
I987
sVgross
p986
I988
sVdimensions
p987
I989
sVrecorded
p988
I990
sVlegal
p989
I991
sVBulls
p990
I992
sVnutty
p991
I993
sVDX3000
p992
I994
sVtransformers
p993
I995
sVDoritos
p994
I996
sVmanufactured
p995
I997
sVequivalent
p996
I998
sVnotable
p997
I999
sVafrikaans
p998
I1000
sVLeonardo
p999
I1001
sVmanufactures
p1000
I1002
sVnewscaster
p1001
I1003
sVon
p1002
I1004
sVstone
p1003
I1005
sVstations
p1004
I1006
sVof
p1005
I1007
sVindustry
p1006
I1008
sVfavorite
p1007
I1009
sVoz
p1008
I1010
sVchow
p1009
I1011
sVhero:
p1010
I1012
sVor
p1011
I1013
sVroad
p1012
I1014
sVSharks
p1013
I1015
sVSuperior
p1014
I1016
sVinstruments
p1015
I1017
sVimage
p1016
I1018
sVbreakwater
p1017
I1019
sVCathy
p1018
I510
sVMagnum
p1019
I1021
sVfast
p1020
I1549
sVher
p1021
I1022
sVarea
p1022
I1023
sVthere
p1023
I1024
sVhey
p1024
I1025
sVstart
p1025
I1026
sVstealth
p1026
I1027
sVkrona
p1027
I2043
sVObama
p1028
I1028
sVvicente
p1029
I1029
sVMahal
p1030
I1030
sVilluminated
p1031
I1031
sVsoprano
p1032
I1032
sVfoxes
p1033
I1251
sVsurvived
p1034
I1034
sVWalker
p1035
I1035
sVpodcast
p1036
I1036
sVwith
p1037
I1037
sVabused
p1038
I1038
sVrush
p1039
I1039
sVHouse
p1040
I1040
sVUrquell
p1041
I1041
sVsite
p1042
I1952
sVsubclasses
p1043
I1042
sVaa
p1044
I1043
sVgone
p1045
I1044
sVtaylor
p1046
I1045
sVUSA
p1047
I1046
sVan
p1048
I1047
sVas
p1049
I1048
sVUSS
p1050
I1049
sVat
p1051
I1050
sVfile
p1052
I1051
sVaces
p1053
I1052
sVFerdinand
p1054
I1053
sVhound
p1055
I1054
sVhospitals
p1056
I1055
sVfilm
p1057
I1056
sVReal
p1058
I1057
sVgenres
p1059
I1058
sVhybrid
p1060
I1059
sVHyundai
p1061
I1060
sVDark
p1062
I1061
sVJRRR
p1063
I1062
sVmathematics
p1064
I1063
sVyou
p1065
I1064
sV2007
p1066
I1606
sVGreat
p1067
I1066
sVsigmod
p1068
I1067
sVstudents
p1069
I1068
sVsymbol
p1070
I1069
sVneanderthal
p1071
I1256
sVpeak
p1072
I1072
sVbrands
p1073
I1073
sVlinebackers
p1074
I1074
sValcohol
p1075
I1075
sVbuilding
p1076
I1076
sVdabble
p1077
I1077
sVsg-1
p1078
I1078
sVmass
p1079
I1079
sVgod
p1080
I1080
sVresolution
p1081
I1081
sVoriginal
p1082
I1082
sVMaple
p1083
I1083
sVrepresent
p1084
I1084
sVall
p1085
I1085
sVSamuel
p1086
I1258
sVexhibitions
p1087
I1087
sVfounder
p1088
I1088
sVdollar
p1089
I1089
sVfounded
p1090
I1090
sVspacecraft
p1091
I1091
sVzinc
p1092
I1092
sVSchmidt
p1093
I1093
sVreligious
p1094
I1094
sVchildren
p1095
I1095
sVcauses
p1096
I1096
sVBrown
p1097
I1097
sVtv
p1098
I1098
sVH&R
p1099
I62
sVto
p1100
I1100
sVprogram
p1101
I1101
sVmarscapone
p1102
I1102
sVsong
p1103
I1104
sVJeep
p1104
I1105
sVAlaska
p1105
I1106
sVdocumentaries
p1106
I1107
sVSocrates
p1107
I1108
sVnovel
p1108
I1944
sVporgy
p1109
I1110
sVdinosaur
p1110
I1111
sVmile
p1111
I1112
sVKill
p1112
I1113
sVharry
p1113
I1114
sVsmall
p1114
I173
sVlocomotive
p1115
I1116
sV20th
p1116
I1117
sVtea
p1117
I1118
sVUniversity's
p1118
I1119
sVDenver
p1119
I1120
sVpast
p1120
I1121
sVseishindo
p1121
I1122
sVdesign
p1122
I1123
sVpass
p1123
I1124
sVGiants
p1124
I1125
sVcheeses
p1125
I1126
sVwhat
p1126
I1127
sVsun
p1127
I1128
sVcenters
p1128
I1623
sVShaquille
p1129
I1129
sVpublic
p1130
I1130
sVfull
p1131
I1131
sVchristian
p1132
I1132
sVCharlie
p1133
I1133
sVNFL
p1134
I1134
sVHerald
p1135
I1135
sVtracks
p1136
I1136
sVoperating
p1137
I1137
sVbarremian
p1138
I1138
sVpublishes
p1139
I1139
sVspeeches
p1140
I1140
sVbible
p1141
I1141
sVcolored
p1142
I1142
sVlosses
p1143
I1143
sVdeities
p1144
I1144
sVsub-types
p1145
I1145
sVairport
p1146
I1146
sVpublished
p1147
I1147
sVspecialize
p1148
I1148
sVfamily
p1149
I1149
sVbuses
p1150
I1150
sVvii
p1151
I1151
sVvin
p1152
I1152
sVtexts
p1153
I1153
sVHerreshoff
p1154
I1154
sV1904
p1155
I1155
sVarmed
p1156
I1156
sVspawned
p1157
I1157
sVdango
p1158
I1158
sVEurope
p1159
I1159
sVPayne
p1160
I1628
sVsplash
p1161
I1161
sVPeak
p1162
I1162
sV6
p1163
I1163
sVPicasso
p1164
I1164
sVminor
p1165
I1165
sVKennedy
p1166
I1166
sVcompany
p1167
I531
sVSt
p1168
I1168
sVAmerican
p1169
I1169
sVknown
p1170
I1170
sVdoom
p1171
I1171
sVWXPN
p1172
I1172
sVfleece
p1173
I1173
sVSS
p1174
I1174
sVscience
p1175
I1175
sVmall
p1176
I1176
sVWade
p1177
I1177
sVpepper's
p1178
I1334
sVspecialized
p1179
I1179
sVhistory
p1180
I592
sVreincarnation
p1181
I1181
sVpond
p1182
I641
sVGrohl
p1183
I1183
sVspecies
p1184
I1184
sVInterstate
p1185
I1185
sV!
p1186
I1186
sVinfluenced
p1187
I1187
sVcourt
p1188
I1188
sVhugo
p1189
I670
sVratified
p1190
I1190
sVJekyll
p1191
I1191
sVFulham
p1192
I1192
sVsacred
p1193
I1193
sVheadquartered
p1194
I1194
sVtreatments
p1195
I1195
sVMattel
p1196
I1196
sVfa
p1197
I1197
sVadventure
p1198
I1198
sVFurious
p1199
I1199
sVViacom
p1200
I594
sVa
p1201
I1202
sVChurchill
p1202
I1203
sVmorphine
p1203
I1204
sVregister
p1204
I1205
sVdragon
p1205
I1206
sVcoal
p1206
I1207
sVSean
p1207
I1208
sVhobbit
p1208
I1209
sVKeyon
p1209
I1210
sVplaying
p1210
I1211
sVmexican
p1211
I1212
sVseptember
p1212
I1213
sVdeveloped
p1213
I1214
sVFry_s
p1214
I1215
sVmission
p1215
I1216
sVIllinois
p1216
I840
sVheld
p1217
I1218
sVcommitted
p1218
I1219
sVbrie
p1219
I1220
sVislam
p1220
I860
sVSnowshoe
p1221
I1961
sVstyle
p1222
I1223
sVAOL
p1223
I1224
sV28
p1224
I1225
sVCardinals
p1225
I1226
sVsymptoms
p1226
I1227
sVsystems
p1227
I1228
sVfounders
p1228
I1229
sVpeanuts
p1229
I1230
sVsoccer
p1230
I1231
sVwingspan
p1231
I1232
sVPackers
p1232
I1233
sVevening
p1233
I1234
sVceo
p1234
I1235
sVgadget
p1235
I1236
sVMichael
p1236
I1237
sVBay
p1237
I1238
sVunderground
p1238
I1443
sVoxford
p1239
I1240
sVjudaism
p1240
I1241
sVfound
p1241
I1242
sVLagat
p1242
I1243
sVLiam
p1243
I1244
sVRay
p1244
I1245
sVheavy
p1245
I1246
sVweight
p1246
I1247
sVgeneration
p1247
I1248
sVhouse
p1248
I1249
sVphi
p1249
I1965
sVButcher
p1250
I1033
sVJoseph
p1251
I1252
sVmumm
p1252
I1253
sVbeyond
p1253
I1254
sVcomic
p1254
I200
sVflower
p1255
I1071
sVpsychology
p1256
I1257
sVsince
p1257
I1086
sVpublish
p1258
I1259
sVresearch
p1259
I1260
sVwired_s
p1260
I1261
sVBMW
p1261
I1262
sVissue
p1262
I1263
sVhighway
p1263
I1264
sVstory
p1264
I1285
sVrated
p1265
I203
sVcookie
p1266
I1267
sVmembers
p1267
I1268
sVbBlues
p1268
I1269
sVYankees
p1269
I1270
sVII
p1270
I1271
sVMutant
p1271
I1272
sVBoston
p1272
I1273
sVamerican
p1273
I1274
sVprejudice
p1274
I1275
sVTaj
p1275
I1276
sVautomobile
p1276
I1277
sVexhibited
p1277
I1278
sVmajor
p1278
I1279
sVHugh
p1279
I1280
sVnumber
p1280
I1281
sVknickerbockers
p1281
I1282
sVfeet
p1282
I1283
sVFry
p1283
I1284
sVhorse
p1284
I1265
sVtemperature
p1285
I1286
sVscript
p1286
I1287
sVleading
p1287
I1288
sVRudi
p1288
I1289
sVLarry
p1289
I1290
sVstorm
p1290
I1291
sVBelgium
p1291
I1292
sVrates
p1292
I1293
sVtomkat
p1293
I1294
sVheadache
p1294
I1295
sVsecretariat
p1295
I1296
sVpark
p1296
I1297
sVpart
p1297
I1298
sVdoctors
p1298
I1299
sValbums
p1299
I1300
sVbelieve
p1300
I1301
sVkind
p1301
I1302
sVobservatory
p1302
I1303
sVinducted
p1303
I1304
sVsavealot
p1304
I1305
sVgloster
p1305
I1306
sVprairie
p1306
I1308
sVsupposed
p1307
I1309
sVRick
p1308
I1310
sVnominee
p1309
I1311
sVWBC
p1310
I1312
sVshowers
p1311
I1313
sVgall
p1312
I1314
sVorders
p1313
I1315
sVRolls-Royce
p1314
I1316
sVmountain
p1315
I1317
sVbuilt
p1316
I1318
sVClub
p1317
I1319
sVIceland
p1318
I1320
sVlit
p1319
I1321
sValso
p1320
I1322
sVWalmart
p1321
I1323
sVGalileo
p1322
I1324
sVplay
p1323
I1325
sVelectric
p1324
I1326
sVsingles
p1325
I1327
sVflute
p1326
I1328
sVarchitects
p1327
I1329
sVmost
p1328
I1330
sVseasons
p1329
I1331
sVThe
p1330
I1332
sVchancery
p1331
I1333
sVconstitution
p1332
I1335
sVBridge
p1333
I1336
sVka
p1334
I1337
sVGoogle
p1335
I1338
sVJulien
p1336
I1339
sVchronicle
p1337
I1340
sVEgypt
p1338
I1341
sVperformances
p1339
I1342
sVcover
p1340
I1343
sVCallahan
p1341
I1344
sVorganism
p1342
I1346
sVcoronet
p1343
I1347
sVstones
p1344
I1348
sVgold
p1345
I1349
sVcelebrities
p1346
I1350
sVKingdom
p1347
I1351
sVgiant
p1348
I1352
sVnicknames
p1349
I1988
sVjustice
p1350
I1355
sVwrites
p1351
I1356
sV8
p1352
I1357
sVhis
p1353
I1358
sVMagic
p1354
I1359
sVbreast
p1355
I1360
sVtheft
p1356
I1361
sVcollins
p1357
I1656
sVduring
p1358
I1363
sVsunni
p1359
I1364
sVcatcher
p1360
I1365
sVShepard
p1361
I1366
sVclinic
p1362
I1992
sVJ.
p1363
I1368
sVgotten
p1364
I1369
sVriver
p1365
I1370
sVwrote
p1366
I1371
sVrestaurants
p1367
I1372
sVset
p1368
I1373
sVart
p1369
I1374
sVAdrienne
p1370
I1375
sVWright
p1371
I1376
sVare
p1372
I1377
sVsea
p1373
I1378
sVclose
p1374
I1379
sV11th
p1375
I1380
sVseminars
p1376
I1381
sVspirits
p1377
I1382
sVmovie
p1378
I1383
sVcurrently
p1379
I1384
sVPark
p1380
I1385
sVwon
p1381
I1386
sValkaline
p1382
I1387
sVSony
p1383
I1388
sVconditions
p1384
I1389
sVsolo
p1385
I1390
sVMonopoly
p1386
I1391
sVsold
p1387
I1392
sVahoy
p1388
I1393
sVgenre
p1389
I1394
sVleague
p1390
I1396
sVTeenage
p1391
I1397
sVlast
p1392
I1398
sVroman
p1393
I1400
sVbaltimore
p1394
I1401
sVSuperman
p1395
I95
sVpoint
p1396
I1403
sVbattery
p1397
I1404
sVPencarrow
p1398
I1405
sVproton
p1399
I1406
sVNobel
p1400
I1407
sVsing
p1401
I1664
sVFrida
p1402
I1409
sVpycon
p1403
I1410
sVbelt
p1404
I1411
sVGilligan's
p1405
I1412
sVmonthly
p1406
I1413
sVEmmy
p1407
I1414
sVdue
p1408
I1415
sVwhom
p1409
I1416
sVCalifornia
p1410
I1417
sVarmory
p1411
I1418
sVlived
p1412
I1419
sVchampion
p1413
I1420
sVpacks
p1414
I1421
sVfire
p1415
I1422
sVwhat's
p1416
I1423
sVplants
p1417
I1425
sVx-men
p1418
I19
sVlook
p1419
I1427
sVVIII's
p1420
I1428
sVstraight
p1421
I1429
sVWinston
p1422
I1430
sVbudget
p1423
I1431
sVEverest
p1424
I1432
sVsesame
p1425
I1433
sVpace
p1426
I1434
sVNiagara
p1427
I1435
sVformats
p1428
I1436
sVfleet
p1429
I1437
sVJCPenney
p1430
I1438
sVguide
p1431
I55
sVengineers
p1432
I1440
sVCity
p1433
I1441
sVlodges
p1434
I1442
sVcentury
p1435
I1444
sVbinding
p1436
I1445
sVtitanic
p1437
I1668
sVTim
p1438
I86
sVEagles
p1439
I1448
sVshar
p1440
I1449
sVcuisine
p1441
I1450
sVLuke
p1442
I1451
sVbelong
p1443
I1452
sVcumulus
p1444
I1453
sVgrand
p1445
I1454
sVMauritania
p1446
I1455
sVused
p1447
I1456
sVcurators
p1448
I1457
sVEclipse
p1449
I146
sVholidays
p1450
I1460
sVdomains
p1451
I1461
sVflown
p1452
I1462
sVJolie
p1453
I1463
sVannunciation
p1454
I213
sVMiller
p1455
I1465
sVManny
p1456
I1466
sVflags
p1457
I1467
sVkelly
p1458
I1468
sVSox
p1459
I1469
sVGirl
p1460
I1470
sVDennis
p1461
I1471
sVspend
p1462
I1472
sVKarl
p1463
I1473
sVLisa
p1464
I1200
sVbirthday
p1465
I1803
sVBernard
p1466
I1474
sVatomic
p1467
I1475
sVgoblet
p1468
I1476
sVcup
p1469
I1477
sVrangers
p1470
I336
sVinternal
p1471
I1480
sVChristopher
p1472
I344
sVxl-200
p1473
I1482
sVcordon
p1474
I1483
sVindonesian
p1475
I1484
sVDodgers
p1476
I1485
sVDie
p1477
I377
sVAlta
p1478
I1487
sVgame
p1479
I1488
sVBetty
p1480
I1489
sVprojects
p1481
I1490
sVStiller
p1482
I1491
sVcommanders
p1483
I1492
sVBradley
p1484
I1493
sVcollect
p1485
I1494
sVRaskob
p1486
I1495
sVdisorder
p1487
I457
sVwind-up
p1488
I1497
sVJava
p1489
I1498
sVoften
p1490
I1499
sVfreebase
p1491
I1500
sVsome
p1492
I1501
sVaired
p1493
I1502
sVmartial
p1494
I1503
sVstrongest
p1495
I1504
sVAndy
p1496
I1505
sVexamples
p1497
I1506
sVwonderland
p1498
I1507
sVParker's
p1499
I1508
sVDooling
p1500
I1509
sVPittsburgh
p1501
I1510
sVSabatini
p1502
I516
sVdecision
p1503
I1512
sVper
p1504
I1513
sVreligion
p1505
I1514
sVpei
p1506
I1515
sVAldridge's
p1507
I1516
sVApollo
p1508
I1517
sVanna
p1509
I1518
sVbe
p1510
I1519
sVrun
p1511
I563
sVrequiem
p1512
I1521
sV300
p1513
I1522
sVBill
p1514
I1523
sVcostumes
p1515
I1524
sVDavid
p1516
I1525
sVaerosmith
p1517
I1526
sVstep
p1518
I1527
sVKentucky
p1519
I1528
sVt-38
p1520
I1529
sVby
p1521
I1530
sVvaccine
p1522
I1531
sVwildlife
p1523
I620
sVRon
p1524
I1533
sVTolkien
p1525
I1534
sVRoe
p1526
I1535
sVdrama
p1527
I1536
sVRoy
p1528
I1537
sVrange
p1529
I1538
sVblock
p1530
I1539
sVgrammy
p1531
I1540
sVBears
p1532
I1541
sVinto
p1533
I1542
sVwithin
p1534
I1543
sVblogtalkradio
p1535
I1544
sVRuth
p1536
I1545
sVbarosaurus
p1537
I1546
sVbrut
p1538
I1547
sVKitty
p1539
I1548
sVcow's
p1540
I1353
sVKoolaid
p1541
I841
sVheritage
p1542
I1551
sV:
p1543
I1552
sVmanufacture
p1544
I1553
sVboys
p1545
I1554
sVatlantic
p1546
I1555
sVdelta
p1547
I1556
sVtryptophan
p1548
I1557
sVline
p1549
I1558
sVdirected
p1550
I1560
sVMcNabb
p1551
I1561
sVguidebooks
p1552
I1563
sVspamalot
p1553
I1564
sVconsist
p1554
I1565
sVAfrica
p1555
I1566
sVup
p1556
I1567
sVus
p1557
I1568
sVcalled
p1558
I1569
sVunits
p1559
I1570
sVinfluence
p1560
I1571
sVCross
p1561
I1572
sVpresided
p1562
I1573
sVTo
p1563
I1574
sVsingle
p1564
I909
sVEdward
p1565
I1576
sV1896
p1566
I1577
sVManhattan
p1567
I1578
sVcotton
p1568
I1579
sVMay
p1569
I1580
sVPhillies
p1570
I1581
sVpeace
p1571
I1582
sVBabcock
p1572
I1583
sVpoliticians
p1573
I962
sVb12
p1574
I1201
sVAndrews
p1575
I1586
sVincome
p1576
I1587
sVFallingwater
p1577
I1588
sVpolonium
p1578
I1589
sVNetflix
p1579
I1590
sVvisits
p1580
I1591
sVquinoa
p1581
I1592
sVrestoration
p1582
I1593
sVwrinkle
p1583
I1594
sVTX1
p1584
I1595
sVNautilus
p1585
I1596
sVfighter
p1586
I1597
sVvice
p1587
I1598
sVage
p1588
I1599
sVSpears'
p1589
I1600
sVinstitutions
p1590
I1601
sV2002
p1591
I1602
sV2003
p1592
I1603
sV2000
p1593
I1604
sVScott
p1594
I1424
sVstargate
p1595
I1065
sV2004
p1596
I1607
sV2005
p1597
I1608
sVfar
p1598
I1609
sV2008
p1599
I1610
sV2009
p1600
I1611
sVback"
p1601
I1612
sVonce
p1602
I1613
sVcode
p1603
I1614
sVoperas
p1604
I1960
sVJim
p1605
I1103
sVBeyonce
p1606
I1616
sVastronauts
p1607
I1617
sVSpock
p1608
I1618
sVWoodrow
p1609
I1619
sVSaint
p1610
I1620
sVgo
p1611
I1621
sVmoon
p1612
I1622
sVPaul_s
p1613
I1395
sVissues
p1614
I1624
sVAngelina
p1615
I1625
sVturkish
p1616
I1626
sVwizard
p1617
I1627
sVlanguages
p1618
I1160
sVGlass
p1619
I1629
sVsenators
p1620
I1399
sVhinduism
p1621
I1631
sVinclude
p1622
I1632
sVjurisdiction
p1623
I1307
sVslogan
p1624
I1634
sVSims
p1625
I1635
sVmagic
p1626
I1636
sVtransmission
p1627
I1637
sVknight
p1628
I1638
sVEdmonton
p1629
I1639
sVSteubenville
p1630
I1640
sVqueen
p1631
I1633
sVcap'n
p1632
I1642
sVsettlers
p1633
I1643
sVSkywalker
p1634
I1644
sVFast
p1635
I1645
sVearth
p1636
I1646
sVscientific
p1637
I1647
sVrefereed
p1638
I1648
sVplays
p1639
I1649
sVJessica
p1640
I1650
sVusa_s
p1641
I1651
sVmarketed
p1642
I1652
sVAlan
p1643
I1653
sVindian
p1644
I1654
sVcapital
p1645
I1655
sVursa
p1646
I1362
sVAmerica
p1647
I1657
sVbird
p1648
I1658
sVMotorola
p1649
I1659
sVdegree
p1650
I1660
sVHasbro
p1651
I1661
sVGreen
p1652
I1662
sVgruta
p1653
I1663
sVlatour
p1654
I1408
sVinvented
p1655
I1665
sVreceive
p1656
I1666
sV30
p1657
I1667
sValluminum-alloy
p1658
I1446
sVCBS
p1659
I1669
sVproducts
p1660
I1670
sVmakes
p1661
I1671
sVcomposed
p1662
I1672
sVMountain
p1663
I1673
sVOilers
p1664
I1674
sVRitz
p1665
I1675
sVwin
p1666
I1676
sVRobert
p1667
I1677
sVmanage
p1668
I1678
sVprivate
p1669
I1679
sVd80
p1670
I1680
sVtalon
p1671
I1681
sVnames
p1672
I1682
sVManila
p1673
I1562
sVsinging
p1674
I1684
sVuse
p1675
I1685
sVfrom
p1676
I1686
sV&
p1677
I1687
sVchi
p1678
I1688
sVcretaceous
p1679
I1689
sVcapri
p1680
I1690
sVasteroid
p1681
I1691
sVuss
p1682
I1692
sVvs.
p1683
I2038
sVsort
p1684
I1694
sVTutankhamun
p1685
I1695
sVstarted
p1686
I1696
sVfreedom
p1687
I2040
sVinfection
p1688
I1697
sVtrain
p1689
I1698
sVScouts
p1690
I1615
sVhad
p1691
I1700
sVanimals
p1692
I1701
sVride
p1693
I1702
sVCroaker
p1694
I1703
sVisland
p1695
I1459
sVmeet
p1696
I1705
sVF.
p1697
I1706
sVOxford
p1698
I1963
sVproducer
p1699
I1866
sVhigh
p1700
I1707
sVCats
p1701
I1708
sVwonderful
p1702
I1709
sVtai
p1703
I1710
sVrumble
p1704
I1712
sVNHL
p1705
I1713
sVsix
p1706
I1714
sVformations
p1707
I1715
sVmerlot
p1708
I1716
sVregions
p1709
I1717
sVlocated
p1710
I1718
sVwinners
p1711
I1719
sVanimal
p1712
I1720
sVcomedy
p1713
I1721
sVbuildings
p1714
I1722
sVABC
p1715
I247
sVNathan
p1716
I1724
sVkenpo
p1717
I1725
sVleukemia
p1718
I1726
sVcollection
p1719
I1727
sVThorpe
p1720
I1728
sVGarcia
p1721
I1729
sVfatigue
p1722
I1730
sVhawk
p1723
I1731
sVprostate
p1724
I1732
sVpositon
p1725
I1733
sVApple
p1726
I1734
sV22nd
p1727
I1735
sVlight
p1728
I1736
sVlines
p1729
I1737
sVprocessor
p1730
I1738
sVobject-oriented
p1731
I1739
sVchief
p1732
I1740
sVfurious
p1733
I1741
sVWilson
p1734
I1742
sVKwak
p1735
I1743
sVproduces
p1736
I1744
sVSmith
p1737
I1745
sVproduced
p1738
I1746
sVoffences
p1739
I1747
sVCivilization
p1740
I1748
sVincluding
p1741
I1749
sVcostume
p1742
I1750
sVBird
p1743
I1751
sVindustries
p1744
I1752
sV1
p1745
I1753
sVships
p1746
I1754
sVpuerta
p1747
I1755
sVlatitude
p1748
I1756
sVhobby
p1749
I1757
sV2011
p1750
I1758
sV2010
p1751
I1759
sV2012
p1752
I1760
sVdesigns
p1753
I560
sVseabiscuit
p1754
I1762
sVRonaldo
p1755
I1763
sVpractice
p1756
I1764
sVruns
p1757
I1765
sViPhone
p1758
I1766
sVdas
p1759
I1767
sVWorks
p1760
I1768
sVRobin
p1761
I1769
sVpresidential
p1762
I1770
sVcreators
p1763
I1983
sVarticles
p1764
I1771
sVSupreme
p1765
I1772
sVAdobe
p1766
I1773
sVSan
p1767
I1774
sVuniversity
p1768
I1775
sVlepton
p1769
I1776
sVtransmitted
p1770
I1777
sVmode
p1771
I1778
sVkroner
p1772
I1779
sVKoertzen
p1773
I2052
sVAlbertson
p1774
I1781
sVArts
p1775
I748
sVBertrand
p1776
I1783
sVglobe
p1777
I1784
sVbooks
p1778
I1785
sVsexual
p1779
I1786
sVout
p1780
I1787
sVcategory
p1781
I1788
sVBabe
p1782
I1789
sVfrontier
p1783
I1790
sVf-5
p1784
I1791
sVScoble
p1785
I1792
sVmessenger
p1786
I1793
sVcause
p1787
I1794
sVtorres
p1788
I1795
sVzoological
p1789
I1796
sVyork
p1790
I59
sVyori
p1791
I1798
sVconflicts
p1792
I1799
sV1982
p1793
I2055
sVMadrid
p1794
I1801
sVtimes
p1795
I1802
sVCanadiens
p1796
I220
sVqualification
p1797
I1804
sVretail
p1798
I1805
sVinvisible
p1799
I1921
sVmankind
p1800
I1806
sVPilsner
p1801
I1807
sVowned
p1802
I1808
sVphiladelphia
p1803
I1809
sVowner
p1804
I157
sVnyse
p1805
I1811
sVNorth
p1806
I1812
sVpractitioners
p1807
I1813
sVNY
p1808
I1814
sVsystem
p1809
I1815
sVtheir
p1810
I1816
sVattack
p1811
I1817
sVDisneyland
p1812
I1818
sVMustang
p1813
I1178
sVfinal
p1814
I1819
sVAssociation
p1815
I1820
sVacademy
p1816
I1821
sVBing
p1817
I1822
sVbaskervilles
p1818
I1823
sVUniversal
p1819
I1824
sVBurton
p1820
I1825
sVLima
p1821
I1826
sVexhibit
p1822
I1827
sVDiego
p1823
I1828
sVRichard
p1824
I1829
sVWestminster
p1825
I1830
sVhave
p1826
I1831
sVneed
p1827
I1832
sVmen_s
p1828
I1833
sVdishes
p1829
I1834
sVThousand
p1830
I1835
sVparks
p1831
I1836
sVwhich
p1832
I1837
sVRolling
p1833
I1838
sVsdhc
p1834
I1839
sVfirefly
p1835
I1840
sVPierce
p1836
I1841
sVwho
p1837
I1842
sVTitanic
p1838
I1843
sVceratopsia
p1839
I307
sVGames
p1840
I1845
sVsedan
p1841
I1846
sVmedal
p1842
I1847
sVclass
p1843
I1848
sVcohost
p1844
I1849
sVdisease
p1845
I1850
sVtalk
p1846
I1851
sVpictures
p1847
I1852
sVEarth
p1848
I1853
sVAshok
p1849
I1854
sVIan
p1850
I1855
sVParis
p1851
I1856
sVstove
p1852
I1857
sVsupported
p1853
I1858
sVMacsoft
p1854
I1859
sVraleigh
p1855
I1860
sVrouge
p1856
I1861
sVFillion
p1857
I1862
sVdecade
p1858
I570
sVsubdisciplines
p1859
I1864
sVapollo
p1860
I2067
sVCharlie_s
p1861
I583
sVThrones
p1862
I1867
sVA75
p1863
I1868
sVGAP,
p1864
I1869
sVTamora
p1865
I1870
sVYork
p1866
I1871
sVfuel
p1867
I1872
sVpiano
p1868
I1873
sVoverall
p1869
I1874
sVmolasses
p1870
I1875
sVchips
p1871
I1876
sVareas
p1872
I1877
sVteams
p1873
I1878
sVSeinfeld
p1874
I1879
sVabreviation
p1875
I1880
sVgenerations
p1876
I1881
sVFIFA
p1877
I1882
sVKing
p1878
I1883
sVnational
p1879
I1884
sVst.
p1880
I1885
sVcajun
p1881
I1886
sVZoo
p1882
I773
sVcomputer
p1883
I1888
sVdravidian
p1884
I1889
sVtextiles
p1885
I1890
sVTempelhof
p1886
I1891
sVMellon
p1887
I1892
sVlux
p1888
I1893
sVPluto
p1889
I1894
sVBergkamp
p1890
I1895
sVwritten
p1891
I829
sVdeVito
p1892
I1897
sVnominees
p1893
I1898
sVpiston
p1894
I1899
sVJuly
p1895
I1900
sVsabotage
p1896
I1901
sVmonarchs
p1897
I1902
sVWrangler
p1898
I1903
sVbridges
p1899
I1904
sVhoby
p1900
I1905
sVkey
p1901
I1906
sVconfiguration
p1902
I1907
sVKennel
p1903
I1908
sVMacintosh
p1904
I1909
sVMets
p1905
I1910
sVFirefox
p1906
I905
sVcareer
p1907
I1912
sViPod
p1908
I1913
sVBatman:
p1909
I1914
sVfigures
p1910
I1915
sVmeiji
p1911
I941
sVabbey
p1912
I891
sVkinds
p1913
I2094
sVRolls
p1914
I1917
sVTimothy
p1915
I1918
sV579
p1916
I1919
sVlyricist
p1917
I1920
sVLos
p1918
I975
sVGarry
p1919
I1922
sVCarnegie
p1920
I1923
sVkingda
p1921
I1924
sVcatholicism
p1922
I1925
sVJun
p1923
I1926
sVBrooklyn
p1924
I1927
sVbianchi
p1925
I1928
sVlibrettist
p1926
I1929
sVtreat
p1927
I1930
sVeraser
p1928
I1931
sVThailand
p1929
I1932
sVToronto
p1930
I1933
sVCenter
p1931
I1934
sVpainted
p1932
I1935
sVNations
p1933
I1936
sVkoolaid
p1934
I1937
sVfinished
p1935
I1938
sV#477
p1936
I1939
sVravens
p1937
I1940
sVgunpowder
p1938
I1941
sV2006
p1939
I1605
sVpresent
p1940
I1942
sVdivisions
p1941
I1943
sVsmartphones
p1942
I1109
sVarignar
p1943
I1945
sVhalley
p1944
I1946
sVowns
p1945
I1947
sVdmc-tz3
p1946
I1948
sVstuffing
p1947
I1949
sVneuron
p1948
I1950
sVcompleted
p1949
I1951
sVDubai
p1950
I1761
sVknut
p1951
I1953
sVmalls
p1952
I1954
sVarabic
p1953
I1955
sVFarka
p1954
I1956
sVorbital
p1955
I1957
sVLowell
p1956
I1958
sVCristiano
p1957
I1959
sVcross
p1958
I943
sVmember
p1959
I1222
sVbuddhism
p1960
I1962
sVshuttle
p1961
I1239
sVparty
p1962
I1964
sVparthenon
p1963
I1250
sVDanny
p1964
I1966
sVcoached
p1965
I1967
sVtaekwondo
p1966
I2084
sVv.
p1967
I1968
sVReid
p1968
I1969
sVcoaches
p1969
I1970
sVGrover
p1970
I1971
sVv6
p1971
I1972
sVMitchell
p1972
I1973
sVMargiela
p1973
I1630
sVceltic
p1974
I1974
sVcenter
p1975
I1975
sVi
p1976
I1976
sVJulie
p1977
I1977
sVKasparov
p1978
I1978
sVStates
p1979
I1979
sVcommand
p1980
I1980
sVenglish
p1981
I1981
sVposition
p1982
I1982
sVOppenheimer's
p1983
I1402
sVinc.
p1984
I1984
sVlatest
p1985
I1985
sVguitarist
p1986
I1986
sVstores
p1987
I1987
sVglycine
p1988
I1354
sVNivea
p1989
I1989
sVCave
p1990
I1990
sVHayden
p1991
I1991
sVbatteries
p1992
I1367
sVvoltage
p1993
I1993
sVstratus
p1994
I1994
sVVictoria
p1995
I1995
sVother
p1996
I2091
sVStarbucks
p1997
I1997
sV5
p1998
I1998
sVski
p1999
I1999
sVsonic
p2000
I2000
sVmeteor
p2001
I2092
sVpropelled
p2002
I2002
sVhistoric
p2003
I2003
sVpress
p2004
I2004
sVfools
p2005
I2005
sVFournie
p2006
I2006
sVlike
p2007
I2007
sVlost
p2008
I2008
sVsizes
p2009
I2009
sVstarry
p2010
I2010
sVhosts
p2011
I2011
sVtungsten
p2012
I2012
sVworks
p2013
I2013
sVBeckett
p2014
I2014
sVitalian
p2015
I2015
sVamendment
p2016
I2016
sVlibrary
p2017
I2017
sVimmortal
p2018
I2018
sVskeptics'
p2019
I2019
sVlibretti
p2020
I2020
sVhome
p2021
I2021
sVempire
p2022
I2022
sVJonathan
p2023
I2023
sVTyutin
p2024
I2024
sVMike
p2025
I2025
sVlead
p2026
I2026
sVhurricane
p2027
I2027
sVairspeed
p2028
I2028
sVO'Neal
p2029
I2029
sVSeagal
p2030
I2030
sVleap
p2031
I2031
sVdoes
p2032
I2032
sVjournal
p2033
I2033
sVbowling
p2034
I2034
sVexpansion
p2035
I2035
sVhost
p2036
I2036
sVMicrosoft
p2037
I2037
sVrefuge
p2038
I1693
sVabout
p2039
I2039
sVuniverse
p2040
I1704
sVPeabody
p2041
I2041
sVUS
p2042
I2042
sVcompatible
p2043
I1711
sVUK
p2044
I2044
sVJapan
p2045
I2045
sVintroduced
p2046
I2046
sVsoftware
p2047
I2047
sVown
p2048
I2048
sVwashington
p2049
I2049
sVdomain
p2050
I2050
sVthree
p2051
I2051
sVlung
p2052
I1780
sVartists
p2053
I2053
sVbowlers
p2054
I2054
sVridge
p2055
I1800
sV1981
p2056
I2056
sVmuseum
p2057
I2057
sVUtah
p2058
I2088
sVbeer
p2059
I2058
sVfunction
p2060
I2059
sVcricket
p2061
I2060
sVnorth
p2062
I2061
sVbus
p2063
I2062
sVDetroit
p2064
I2063
sVDew
p2065
I2064
sVconstruction
p2066
I2065
sVWelt
p2067
I2066
sVhighest
p2068
I1865
sVcount
p2069
I2068
sVmade
p2070
I2069
sVplaces
p2071
I2070
sVofficial
p2072
I2071
sVGettysburg
p2073
I2072
sVsigned
p2074
I2073
sVrecord
p2075
I2074
sVBritain
p2076
I2075
sVstories
p2077
I2076
sVcello
p2078
I2077
sVnominations
p2079
I2078
sVgarter
p2080
I2079
sVLake
p2081
I2080
sVBauhaus
p2082
I2081
sVVancouver
p2083
I2082
sVrijksmuseum
p2084
I2083
sVMalhotra's
p2085
I1559
sVingredients
p2086
I2085
sVcorporation
p2087
I2086
sVeastern
p2088
I1782
sVpercent
p2089
I1478
sVWells
p2090
I2089
sVFuji
p2091
I2090
sVbook
p2092
I1996
sVbranch
p2093
I2001
sVWilliam
p2094
I2093
sVstar
p2095
I735
sVjuno
p2096
I2095
sVRoute
p2097
I2096
sVPablo
p2098
I2097
sVjune
p2099
I2098
sVTostitos
p2100
I2099
sVF.C.
p2101
I2100
sVSouth
p2102
I2101
sVElizabeth
p2103
I2102
sVblogs
p2104
I2103
sVrunaways
p2105
I2104
sVwrite
p2106
I2105
sVcompete
p2107
I2106
s.