(dp0
Vrepresent
p1
I493
sVcoach
p2
I136
sVmanaged
p3
I339
sVexhibitions
p4
I185
sVfocus
p5
I336
sVastronauts
p6
I288
sVfounded
p7
I80
sVfacilities
p8
I448
sVmanages
p9
I61
sVlegal
p10
I395
sVgo
p11
I201
sVreligious
p12
I124
sVissues
p13
I318
sVzone
p14
I487
sVtv
p15
I167
sVtechnique
p16
I335
sVperiodicals
p17
I503
sVlanguages
p18
I176
sVto
p19
I27
sVcharge
p20
I624
sVprogram
p21
I238
sVunder
p22
I162
sVworth
p23
I116
sVdivision
p24
I338
sVsupported
p25
I174
sVsong
p26
I558
sVcostume
p27
I626
sVsponsors
p28
I379
sVdocumentaries
p29
I618
sVgot
p30
I481
sVslogan
p31
I613
sVadaptations
p32
I559
sVpresented
p33
I375
sVdid
p34
I38
sVdie
p35
I39
sVcompanies
p36
I5
sVlabels
p37
I161
sVdinosaur
p38
I188
sVteam
p39
I387
sVowned
p40
I541
sVbicycle
p41
I322
sVtea
p42
I42
sVdirect
p43
I546
sVcost
p44
I49
sVdesign
p45
I326
sVpass
p46
I514
sVrefereed
p47
I356
sVwhat
p48
I193
sVplays
p49
I329
sVappear
p50
I92
sVcurrent
p51
I619
sVcauses
p52
I549
sVcars
p53
I391
sVsupplier
p54
I578
sVnet
p55
I115
sVpublic
p56
I258
sVmakeup
p57
I57
sVtracks
p58
I532
sVoperating
p59
I523
sVaddress
p60
I10
sVsing
p61
I386
sVinvented
p62
I450
sVpublishes
p63
I231
sVkids
p64
I536
sVcolored
p65
I401
sVreceive
p66
I145
sVstudied
p67
I596
sVdeities
p68
I93
sVsub-types
p69
I542
sVchemical
p70
I432
sVproducts
p71
I228
sVsubstancs
p72
I539
sVpublished
p73
I63
sVusually
p74
I537
sVmilitary
p75
I294
sVPanasonic
p76
I350
sVmakes
p77
I510
sVcomposed
p78
I557
sVoffs
p79
I224
sVarchitectural
p80
I205
sVbuses
p81
I253
sVwin
p82
I164
sVmanage
p83
I423
sVprivate
p84
I260
sVnames
p85
I95
sVsinging
p86
I317
sVuse
p87
I4
sVfrom
p88
I190
sVworking
p89
I427
sVcoached
p90
I365
sVvisit
p91
I398
sVproperties
p92
I299
sVlive
p93
I121
sVmusic
p94
I431
sVfilms
p95
I511
sVtype
p96
I41
sVabusing
p97
I614
sVstarted
p98
I571
sVoscar
p99
I609
sVoperators
p100
I251
sVmoored
p101
I518
sVinfection
p102
I274
sVtrain
p103
I321
sVbeers
p104
I471
sVknown
p105
I96
sVcases
p106
I509
sVmascot
p107
I376
sVpassenger
p108
I480
sVanimals
p109
I502
sVcar
p110
I392
sVride
p111
I402
sVlongitude
p112
I100
sVmovies
p113
I417
sVcasting
p114
I435
sVcan
p115
I184
sVplayable
p116
I564
sVnewspapers
p117
I445
sVhistory
p118
I112
sVdedicated
p119
I383
sVproducer
p120
I556
sVhigh
p121
I327
sVcurrency
p122
I292
sVperformed
p123
I254
sVclothing
p124
I131
sVspecies
p125
I189
sVinfluenced
p126
I255
sVratified
p127
I34
sVregions
p128
I53
sVlocated
p129
I175
sVwinners
p130
I449
sVsacred
p131
I603
sVboats
p132
I477
sVeconomy
p133
I347
sVbuildings
p134
I186
sVdesigner
p135
I627
sVmax
p136
I370
sVafter
p137
I494
sVheadquartered
p138
I215
sVtreatments
p139
I525
sVcollection
p140
I393
sVdinosaurs
p141
I134
sVproduce
p142
I229
sVdesigned
p143
I60
sVdate
p144
I171
sVpresident
p145
I454
sVjournals
p146
I368
sVtypes
p147
I108
sVa
p148
I47
sVpositon
p149
I382
sVowns
p150
I143
sVbranches
p151
I366
sVwins
p152
I309
sVlines
p153
I281
sVfictional
p154
I606
sVprocessor
p155
I459
sVbranched
p156
I357
sVenter
p157
I333
sVtall
p158
I79
sVoperate
p159
I282
sVathletes
p160
I415
sVorder
p161
I125
sVwind
p162
I520
sVrestriction
p163
I341
sVdistributors
p164
I203
sVproduces
p165
I496
sVdeveloped
p166
I249
sVover
p167
I74
sVproduced
p168
I380
sVheld
p169
I181
sVepisodes
p170
I275
sVformations
p171
I65
sVcommitted
p172
I397
sVworship
p173
I244
sVdeveloper
p174
I348
sVindustries
p175
I475
sVwrite
p176
I374
sVstyle
p177
I206
sVgroup
p178
I500
sVships
p179
I59
sVexhibits
p180
I235
sVsymptoms
p181
I312
sVbroadcasts
p182
I323
sVbreeds
p183
I498
sVlatitude
p184
I98
sVhobby
p185
I605
sVmain
p186
I488
sVimage
p187
I354
sVhappened
p188
I113
sVdesigns
p189
I550
sVaffected
p190
I464
sVdiseases
p191
I225
sVceo
p192
I424
sVfinish
p193
I178
sVdamages
p194
I444
sVband
p195
I568
sVeffects
p196
I196
sVparty
p197
I479
sVschools
p198
I219
sVspend
p199
I576
sVarticles
p200
I534
sVmultiplayer
p201
I442
sVopera
p202
I545
sVdebut
p203
I543
sVtransmission
p204
I114
sVcoaches
p205
I588
sVtransmitted
p206
I384
sVmode
p207
I443
sVrock
p208
I64
sVfound
p209
I236
sVside
p210
I195
sVbrews
p211
I276
sVgeneration
p212
I268
sVCanon
p213
I289
sVconventions
p214
I363
sVbooks
p215
I305
sVsponsor
p216
I118
sVyear
p217
I104
sVsexual
p218
I408
sVout
p219
I15
sVcategory
p220
I240
sVnetwork
p221
I233
sVspace
p222
I141
sVdialects
p223
I388
sVsince
p224
I438
sVpublish
p225
I446
sVparticles
p226
I458
sVformula
p227
I433
sVissue
p228
I16
sVhighway
p229
I43
sVshows
p230
I264
sVattended
p231
I607
sVhull
p232
I85
sVfree
p233
I273
sVmembers
p234
I490
sVconflicts
p235
I484
sVtelescopes
p236
I429
sVcertified
p237
I377
sVlanguage
p238
I290
sVcreated
p239
I222
sVprogramming
p240
I506
sValcohol
p241
I555
sVbirthday
p242
I460
sVplace
p243
I561
sVgenerations
p244
I437
sVqualification
p245
I300
sVretail
p246
I139
sVexhibited
p247
I451
sVspeeds
p248
I349
sVfirst
p249
I62
sVorigin
p250
I149
sVmajor
p251
I110
sVspoken
p252
I304
sVnumber
p253
I272
sVrank
p254
I55
sVfloors
p255
I89
sVowner
p256
I563
sVsays
p257
I407
sVcomic
p258
I90
sVopen
p259
I389
sVcity
p260
I214
sVstory
p261
I478
sVrated
p262
I200
sVtemperature
p263
I73
sVpractitioners
p264
I71
sVleading
p265
I265
sVsystem
p266
I44
sVcodons
p267
I508
sVrunways
p268
I256
sVtheir
p269
I221
sVrates
p270
I331
sVlisted
p271
I191
sVstorm
p272
I593
sVparticipated
p273
I22
sVfinal
p274
I313
sVDisneyland
p275
I548
sVhub
p276
I278
sVpark
p277
I307
sVprosthetic
p278
I56
sVbroadcast
p279
I465
sVreleased
p280
I52
sVpart
p281
I574
sValbums
p282
I553
sVoperates
p283
I599
sVsymptom
p284
I522
sVpopulation
p285
I462
sVkind
p286
I526
sVroles
p287
I168
sVgotten
p288
I416
sVrehab
p289
I447
sVsupposed
p290
I570
sVwere
p291
I66
sVcards
p292
I345
sVpowers
p293
I308
sVscreenplay
p294
I199
sVtopics
p295
I147
sVlocations
p296
I378
sVburied
p297
I467
sVhave
p298
I25
sVneed
p299
I346
sVexhibit
p300
I617
sVorders
p301
I469
sVbuilt
p302
I142
sVdishes
p303
I589
sValso
p304
I439
sVtake
p305
I109
sVrides
p306
I529
sVplay
p307
I32
sVelectric
p308
I623
sVserve
p309
I358
sVprice
p310
I13
sVarchitects
p311
I364
sVboiling
p312
I197
sVoffences
p313
I396
sVletter
p314
I302
sVseasons
p315
I434
sVmedal
p316
I144
sVclass
p317
I320
sVcause
p318
I226
sVepisode
p319
I239
sVperformances
p320
I106
sVaverage
p321
I72
sVcover
p322
I12
sVdisease
p323
I483
sVplaying
p324
I83
sVinstitutions
p325
I0
sVsenators
p326
I620
sVjurisdiction
p327
I76
sVcelebrities
p328
I24
sVnominated
p329
I405
sVdiscovered
p330
I270
sVreligions
p331
I243
sVcolors
p332
I472
sVradio
p333
I237
sVparticipate
p334
I36
sVsubdisciplines
p335
I245
sVjudges
p336
I283
sVproposed
p337
I505
sVtitle
p338
I297
sVwrites
p339
I361
sVstorms
p340
I591
sVtexture
p341
I218
sVtheme
p342
I566
sVhockey
p343
I577
sVfuel
p344
I2
sVdo
p345
I29
sVhis
p346
I310
sVget
p347
I102
sVdesigning
p348
I428
sVstop
p349
I81
sVduring
p350
I127
sVareas
p351
I463
sVsensor
p352
I421
sVinducted
p353
I351
sVcountries
p354
I247
sVteams
p355
I35
sVbook
p356
I91
sVerupt
p357
I78
sVabreviation
p358
I303
sVrelease
p359
I170
sVwrote
p360
I122
sVvoltage
p361
I615
sVset
p362
I269
sVart
p363
I590
sVup
p364
I547
sVare
p365
I6
sVclose
p366
I573
sVtextiles
p367
I565
sVsubject
p368
I156
sVcirculated
p369
I582
sVcapacity
p370
I194
sVruntime
p371
I422
sVmovie
p372
I470
sVcurrently
p373
I328
sVsites
p374
I604
sVlabel
p375
I325
sVwritten
p376
I622
sVwon
p377
I267
sVolympics
p378
I20
sVpets
p379
I87
sVmoons
p380
I234
sVpiston
p381
I411
sVconditions
p382
I403
sVsolo
p383
I202
sVparent
p384
I482
sVoriginated
p385
I296
sVsold
p386
I595
sVawards
p387
I179
sVwear
p388
I600
sVgenre
p389
I123
sVmotto
p390
I138
sVconfiguration
p391
I412
sVcome
p392
I14
sVleague
p393
I46
sVlast
p394
I77
sVcareer
p395
I311
sVcountry
p396
I602
sVdedicate
p397
I625
sVplayers
p398
I413
sVoperas
p399
I544
sVfigures
p400
I280
sVtraded
p401
I7
sVand
p402
I99
sVpoint
p403
I198
sVcolor
p404
I257
sVcharacter
p405
I406
sVperiod
p406
I120
sVheight
p407
I340
sVcode
p408
I293
sVdestroyed
p409
I187
sVarts
p410
I242
sVcities
p411
I513
sVcameras
p412
I517
sVengines
p413
I410
sVairlines
p414
I277
sVbeen
p415
I150
sVbeer
p416
I583
sVproduction
p417
I528
sVtreat
p418
I404
sVstadium
p419
I452
sVparents
p420
I598
sVengine
p421
I492
sVdry
p422
I455
sVlived
p423
I418
sVpacks
p424
I154
sVpainted
p425
I359
sVformed
p426
I67
sVworked
p427
I58
sVspin
p428
I223
sVpresent
p429
I468
sVmatter
p430
I560
sVplants
p431
I69
sVdivisions
p432
I519
sVx-men
p433
I319
sVsoccer
p434
I575
sVlook
p435
I261
sVstructures
p436
I486
sVoriginate
p437
I285
sVbudget
p438
I204
sVair
p439
I314
sVemploy
p440
I54
sVcast
p441
I489
sVformats
p442
I173
sVvoice
p443
I137
sVlaunched
p444
I183
sVlodges
p445
I419
sVlosses
p446
I597
sVorientation
p447
I409
sVconferences
p448
I117
sVplayed
p449
I263
sVis
p450
I9
sVit
p451
I51
sVmalls
p452
I298
sVin
p453
I23
sVbeaver
p454
I220
sVorbital
p455
I119
sVdifferent
p456
I227
sVbelong
p457
I45
sVmember
p458
I48
sVfilm
p459
I105
sVunits
p460
I295
sVgames
p461
I342
sVevents
p462
I111
sVabused
p463
I540
sVused
p464
I286
sVclosest
p465
I344
sVcomprehensive
p466
I611
sVdirector
p467
I436
sVsubmarines
p468
I208
sVrunning
p469
I82
sVflown
p470
I169
sVcharacters
p471
I385
sVspecialize
p472
I580
sVprograms
p473
I497
sVadapted
p474
I394
sVingredients
p475
I601
sVpractices
p476
I474
sVcommand
p477
I485
sVtrains
p478
I271
sVposition
p479
I159
sVthe
p480
I97
sVcreators
p481
I504
sVmusical
p482
I530
sVcharged
p483
I151
sVnicknames
p484
I337
sVbeing
p485
I594
sVmoney
p486
I291
sVsporting
p487
I499
sVdistribute
p488
I324
sVatomic
p489
I581
sVspeed
p490
I371
sVportrayed
p491
I612
sVbegin
p492
I531
sVpercent
p493
I554
sVhad
p494
I284
sVblog
p495
I362
sVinstrument
p496
I473
sVbelongs
p497
I126
sVcollections
p498
I360
sVactors
p499
I369
sVhas
p500
I21
sVelevation
p501
I217
sVsurvival
p502
I330
sVincome
p503
I524
sVpropelled
p504
I180
sVbirth
p505
I562
sVjudge
p506
I212
sVname
p507
I585
sVmelting
p508
I390
sVlike
p509
I262
sVsizes
p510
I165
sVcommanders
p511
I425
sVannually
p512
I399
sVcollect
p513
I515
sVhosts
p514
I466
sVworks
p515
I177
sVold
p516
I28
sVpeople
p517
I18
sVsome
p518
I70
sVaired
p519
I372
sVborn
p520
I157
sVstrongest
p521
I592
sVproductions
p522
I587
sVexamples
p523
I457
sVdimensions
p524
I353
sVfor
p525
I84
sVrecorded
p526
I533
sVper
p527
I103
sVreligion
p528
I155
sVdoes
p529
I3
sVbe
p530
I31
sVrun
p531
I252
sVscientific
p532
I584
sVmanufactured
p533
I461
sVequivalent
p534
I148
sVbowling
p535
I334
sVnotable
p536
I279
sVexpansion
p537
I153
sVoverall
p538
I521
sVhost
p539
I610
sVvisits
p540
I101
sVstarring
p541
I166
sVdna
p542
I507
sVmanufacturing
p543
I68
sVby
p544
I8
sVmanufactures
p545
I107
sVnewscaster
p546
I430
sVchapter
p547
I287
sVon
p548
I37
sVabout
p549
I158
sVvisitors
p550
I501
sVof
p551
I11
sVindustry
p552
I246
sVislands
p553
I343
sVintroduced
p554
I381
sVor
p555
I259
sVsoftware
p556
I248
sVown
p557
I88
sVgrammy
p558
I315
sVinto
p559
I352
sVwithin
p560
I572
sVSandman
p561
I17
sVartists
p562
I586
sVher
p563
I316
sVarea
p564
I75
sValtitude
p565
I210
sVthere
p566
I33
sVlong
p567
I40
sVstart
p568
I426
sVfought
p569
I552
sVseries
p570
I373
sVwas
p571
I1
sVhead
p572
I135
sVform
p573
I129
sVbus
p574
I250
sVdesignated
p575
I538
sVconstruction
p576
I441
sVsurvived
p577
I19
sVhighest
p578
I216
sVwith
p579
I152
sVdirected
p580
I230
sVmade
p581
I86
sVguidebooks
p582
I367
sVconsist
p583
I133
sVmartial
p584
I241
sVofficial
p585
I512
sVmaximum
p586
I209
sVrecord
p587
I160
sVstories
p588
I400
sVnominations
p589
I332
sVstages
p590
I616
sVsubclasses
p591
I476
sVage
p592
I535
sVgone
p593
I26
sVhosted
p594
I182
sVpresided
p595
I213
sVan
p596
I420
sVsingle
p597
I301
sVat
p598
I146
sVfile
p599
I172
sVship
p600
I567
sVhospitals
p601
I579
sVas
p602
I192
sVgenres
p603
I132
sVfloor
p604
I140
sVwhen
p605
I50
sVwebsite
p606
I527
sVother
p607
I94
sVrole
p608
I266
sVdigital
p609
I516
sVtest
p610
I355
sVyou
p611
I30
sVscored
p612
I414
sVkinds
p613
I306
sVstudents
p614
I491
sVsetting
p615
I495
sVdiet
p616
I211
sVrestoration
p617
I569
sVaward
p618
I163
sVbrands
p619
I453
sVdied
p620
I608
sVopened
p621
I440
sVvice
p622
I551
sVblogs
p623
I130
sVbeds
p624
I207
sVmass
p625
I456
sVtime
p626
I128
sVoriginal
p627
I232
sVsongs
p628
I621
s.