(dp0
Vrepresent
p1
I493
sVcoach
p2
I136
sVmanaged
p3
I339
sVexhibitions
p4
I185
sVfounder
p5
I628
sVmaximum
p6
I209
sVfocus
p7
I336
sVastronauts
p8
I288
sVfounded
p9
I80
sVfacilities
p10
I448
sVmanages
p11
I61
sVper
p12
I103
sVgo
p13
I201
sVcaptain
p14
I629
sVreligious
p15
I124
sVchildren
p16
I630
sVissues
p17
I318
sVzone
p18
I487
sVanimal
p19
I665
sVtv
p20
I167
sVtechnique
p21
I335
sVperiodicals
p22
I503
sVlanguages
p23
I176
sVto
p24
I27
sVcharge
p25
I624
sVprogram
p26
I238
sVunder
p27
I162
sVinclude
p28
I632
sVworth
p29
I116
sVdivision
p30
I338
sVlabels
p31
I161
sVsong
p32
I558
sVsponsors
p33
I379
sVdocumentaries
p34
I618
sVgot
p35
I481
sVslogan
p36
I613
sVlook
p37
I261
sVand
p38
I99
sVpresented
p39
I375
sVdid
p40
I38
sVdie
p41
I39
sVcompanies
p42
I5
sVdinosaur
p43
I188
sVteam
p44
I387
sVinversions
p45
I636
sVround
p46
I637
sV20th
p47
I638
sVbicycle
p48
I322
sVtea
p49
I42
sVdirect
p50
I546
sVcost
p51
I49
sVdesign
p52
I326
sVpass
p53
I514
sVestimated
p54
I640
sVrefereed
p55
I356
sVestablished
p56
I641
sVwhat
p57
I193
sVformats
p58
I173
sVplays
p59
I329
sVappear
p60
I92
sVpace
p61
I738
sVmarketed
p62
I642
sVcenters
p63
I643
sVcurrent
p64
I619
sVcauses
p65
I549
sVfossil
p66
I644
sVcars
p67
I391
sVsupplier
p68
I578
sVnet
p69
I115
sVpublic
p70
I258
sVtransportation
p71
I646
sVmakeup
p72
I57
sVmusical
p73
I530
sVtracks
p74
I532
sVoperating
p75
I523
sVaddress
p76
I10
sVsing
p77
I386
sVinvented
p78
I450
sVpublishes
p79
I231
sVspeeches
p80
I647
sVkids
p81
I536
sVcolored
p82
I401
sVreceive
p83
I145
sVemployees
p84
I648
sVstudied
p85
I596
sVdeities
p86
I93
sVsub-types
p87
I542
sVchemical
p88
I432
sVproducts
p89
I228
sVsubstancs
p90
I539
sVpublished
p91
I63
sVusually
p92
I537
sVmilitary
p93
I294
sVhistory
p94
I112
sVmakes
p95
I510
sVcomposed
p96
I557
sVoffs
p97
I224
sVstarring
p98
I166
sVfamily
p99
I650
sVbuses
p100
I253
sVwin
p101
I164
sVmanage
p102
I423
sVprivate
p103
I260
sVtexts
p104
I651
sVnames
p105
I95
sVsinging
p106
I317
sVspawned
p107
I653
sVhotels
p108
I654
sVuse
p109
I4
sVfrom
p110
I190
sVworking
p111
I427
sVcentury
p112
I655
sVvisit
p113
I398
sVby
p114
I8
sVgrapes
p115
I685
sVlive
p116
I121
sVbike
p117
I631
sVmusic
p118
I431
sVfilms
p119
I511
sVtype
p120
I41
sVcapital
p121
I645
sVabusing
p122
I614
sVasteroid
p123
I656
sVstarted
p124
I571
sVoscar
p125
I609
sVoperators
p126
I251
sVabout
p127
I158
sVinfection
p128
I274
sVtrain
p129
I321
sVbeers
p130
I471
sVknown
p131
I96
sVcases
p132
I509
sVmascot
p133
I376
sVorganizations
p134
I660
sVanimals
p135
I502
sVmiddle
p136
I742
sVcar
p137
I392
sVride
p138
I402
sVwhen
p139
I50
sVlongitude
p140
I100
sVmovies
p141
I417
sVcan
p142
I184
sVisland
p143
I746
sVplayable
p144
I564
sVindustry
p145
I246
sVbreeds
p146
I498
sVdedicated
p147
I383
sVgive
p148
I662
sVhigh
p149
I327
sVcurrency
p150
I292
sVperformed
p151
I254
sVclothing
p152
I131
sVspecies
p153
I189
sVinfluenced
p154
I255
sVend
p155
I663
sVformations
p156
I65
sVregions
p157
I53
sVlocated
p158
I175
sVwinners
p159
I449
sVmodels
p160
I664
sVsacred
p161
I603
sVboats
p162
I477
sVcomedy
p163
I666
sVeconomy
p164
I347
sVbuildings
p165
I186
sVdesigner
p166
I627
sVmax
p167
I370
sVafter
p168
I494
sVheadquartered
p169
I215
sVtreatments
p170
I525
sVcollection
p171
I393
sVdinosaurs
p172
I134
sVbirthday
p173
I460
sVdesigned
p174
I60
sVdate
p175
I171
sVpresident
p176
I454
sVjournals
p177
I368
sVtypes
p178
I108
sVa
p179
I47
sVpositon
p180
I382
sVintroduced
p181
I381
sVbranches
p182
I366
sVwins
p183
I309
sVlines
p184
I281
sVfictional
p185
I606
sVor
p186
I259
sVobject-oriented
p187
I668
sVchief
p188
I669
sVbranched
p189
I357
sVenter
p190
I333
sVtall
p191
I79
sVoperate
p192
I282
sVathletes
p193
I415
sVplaying
p194
I83
sVwind
p195
I520
sVrestriction
p196
I341
sVproducer
p197
I556
sVproduces
p198
I496
sVdeveloped
p199
I249
sVover
p200
I74
sVgovern
p201
I633
sVproduced
p202
I380
sVheld
p203
I181
sVepisodes
p204
I275
sVincluding
p205
I670
sVcostume
p206
I626
sVcommitted
p207
I397
sVworship
p208
I244
sVdeveloper
p209
I348
sVindustries
p210
I475
sVwrite
p211
I374
sVstyle
p212
I206
sVgroup
p213
I500
sVships
p214
I59
sVexhibits
p215
I235
sVwriting
p216
I672
sVsymptoms
p217
I312
sVbroadcasts
p218
I323
sVproduction
p219
I528
sVsystems
p220
I673
sVlatitude
p221
I98
sVhobby
p222
I605
sVmain
p223
I488
sVinto
p224
I352
sVhappened
p225
I113
sVcount
p226
I676
sVdesigns
p227
I550
sVaffected
p228
I464
sVdiseases
p229
I225
sVceo
p230
I424
sVpractice
p231
I678
sVschool
p232
I635
sV1955
p233
I679
sVband
p234
I568
sVrank
p235
I55
sVschools
p236
I219
sVaired
p237
I372
sVarticles
p238
I534
sVname
p239
I585
sVopera
p240
I545
sVdebut
p241
I543
sVtransmission
p242
I114
sVtransmitted
p243
I384
sVmode
p244
I443
sVrock
p245
I64
sVfound
p246
I236
sVside
p247
I195
sVheavy
p248
I681
sVbrews
p249
I276
sVchristian
p250
I723
sVweight
p251
I682
sVdue
p252
I735
sVgeneration
p253
I268
sVCanon
p254
I289
sVproduct
p255
I667
sVused
p256
I286
sVconventions
p257
I363
sVbooks
p258
I305
sVsponsor
p259
I118
sVyear
p260
I104
sVsexual
p261
I408
sVthick
p262
I694
sVout
p263
I15
sVcategory
p264
I240
sVflower
p265
I683
sValcohol
p266
I555
sVspace
p267
I141
sVprofit
p268
I684
sVdialects
p269
I388
sVmultiplayer
p270
I442
sVpublish
p271
I446
sVparticles
p272
I458
sVrechargable
p273
I634
sVformula
p274
I433
sVissue
p275
I16
sVoriginally
p276
I661
sVhighway
p277
I43
sVshows
p278
I264
sVattended
p279
I607
sVhull
p280
I85
sVgiven
p281
I696
sVfree
p282
I273
sVmembers
p283
I490
sVlatest
p284
I752
sVconflicts
p285
I484
sVtelescopes
p286
I429
sVcertified
p287
I377
sVlanguage
p288
I290
sVcreated
p289
I222
sVstarts
p290
I686
sVprogramming
p291
I506
sVproduce
p292
I229
sVplace
p293
I561
sVwrote
p294
I122
sVqualification
p295
I300
sVretail
p296
I139
sVexhibited
p297
I451
sVspeeds
p298
I349
sVfirst
p299
I62
sVorigin
p300
I149
sVmajor
p301
I110
sVinitial
p302
I658
sVrevenue
p303
I689
sVspoken
p304
I304
sVattractions
p305
I690
sVnumber
p306
I272
sVowned
p307
I541
sVchannels
p308
I691
sVfeatured
p309
I692
sVfloors
p310
I89
sVcow's
p311
I693
sVowner
p312
I563
sVsays
p313
I407
sVcomic
p314
I90
sVopen
p315
I389
sVengineer
p316
I695
sVcity
p317
I214
sVstory
p318
I478
sVrated
p319
I200
sVtemperature
p320
I73
sVpractitioners
p321
I71
sVleading
p322
I265
sVbreed
p323
I697
sVsystem
p324
I44
sVcodons
p325
I508
sVrunways
p326
I256
sVtheir
p327
I221
sVrates
p328
I331
sVlisted
p329
I191
sVstorm
p330
I593
sVtime
p331
I128
sVpercentage
p332
I698
sVcountries
p333
I247
sVparticipated
p334
I22
sVfinal
p335
I313
sVDisneyland
p336
I548
sVhub
p337
I278
sVseason
p338
I700
sVcompleted
p339
I701
sVuniverse
p340
I770
sVserve
p341
I358
sVprosthetic
p342
I56
sVbroadcast
p343
I465
sVreleased
p344
I52
sVpart
p345
I574
sValbums
p346
I553
sVbelieve
p347
I702
sVsymptom
p348
I522
sVpopulation
p349
I462
sVkind
p350
I526
sVroles
p351
I168
sVgotten
p352
I416
sVroyal
p353
I756
sVwingspan
p354
I675
sVjurisdiction
p355
I76
sVrehab
p356
I447
sVtitles
p357
I639
sVsupposed
p358
I570
sVhistorical
p359
I703
sVwere
p360
I66
sVcards
p361
I345
sVother
p362
I94
sVpowers
p363
I308
sVexhibit
p364
I617
sVbridge
p365
I704
sVnominee
p366
I705
sVtopics
p367
I147
sVlocations
p368
I378
sVburied
p369
I467
sVhave
p370
I25
sVneed
p371
I346
sVorders
p372
I469
sVmountain
p373
I707
sVbuilt
p374
I142
sVdishes
p375
I589
sVparks
p376
I708
sVzoo
p377
I709
sVlit
p378
I710
sValso
p379
I439
sVtake
p380
I109
sVforces
p381
I711
sVrides
p382
I529
sVquarterback
p383
I712
sVplay
p384
I32
sVelectric
p385
I623
sVroster
p386
I713
sVpark
p387
I307
sVprice
p388
I13
sVarchitects
p389
I364
sVboiling
p390
I197
sVsaid
p391
I725
sVletter
p392
I302
sVseasons
p393
I434
sVmedal
p394
I144
sVclass
p395
I320
sVcause
p396
I226
sVepisode
p397
I239
sVneighborhoods
p398
I714
sVperformances
p399
I106
sVaverage
p400
I72
sVcover
p401
I12
sVdisease
p402
I483
sVorder
p403
I125
sVcharged
p404
I151
sVorganism
p405
I715
sVinstitutions
p406
I0
sVdirected
p407
I230
sVsenators
p408
I620
sVgerman
p409
I716
sVsupported
p410
I174
sVcelebrities
p411
I24
sVnominated
p412
I405
sVdiscovered
p413
I270
sVreligions
p414
I243
sVcolors
p415
I472
sVradio
p416
I237
sVparticipate
p417
I36
sVsubdisciplines
p418
I245
sVjudges
p419
I283
sVpodcast
p420
I781
sVdistributors
p421
I203
sVtitle
p422
I297
sVwrites
p423
I361
sVstorms
p424
I591
sVstate
p425
I727
sVtexture
p426
I218
sVelevation
p427
I217
sVtheme
p428
I566
sVhockey
p429
I577
sVfuel
p430
I2
sVdo
p431
I29
sVexports
p432
I717
sVhis
p433
I310
sVgone
p434
I26
sVget
p435
I102
sVdesigning
p436
I428
sVstop
p437
I81
sVduring
p438
I127
sVareas
p439
I463
sVruns
p440
I719
sVsensor
p441
I421
sVinducted
p442
I351
sVoffences
p443
I396
sVrna
p444
I758
sVversions
p445
I720
sVteams
p446
I35
sVerupt
p447
I78
sVabreviation
p448
I303
sVrelease
p449
I170
sVgenerations
p450
I437
sVatomic
p451
I581
sVset
p452
I269
sVart
p453
I590
sVdisaster
p454
I721
sVmonarchs
p455
I729
sVnational
p456
I722
sVcrystal
p457
I783
sVlight
p458
I734
sVoperates
p459
I599
sVare
p460
I6
sVmusicians
p461
I687
sVclose
p462
I573
sVsport
p463
I724
sVtextiles
p464
I565
sVsubject
p465
I156
sVcirculated
p466
I582
sVcapacity
p467
I194
sVspirits
p468
I726
sVmatter
p469
I560
sVmovie
p470
I470
sVcurrently
p471
I328
sVsites
p472
I604
sVlabel
p473
I325
sVopened
p474
I440
sVwritten
p475
I622
sVwon
p476
I267
sVolympics
p477
I20
sVpets
p478
I87
sVmoons
p479
I234
sVnominees
p480
I728
sVpiston
p481
I411
sVconditions
p482
I403
sVscreen
p483
I730
sVsolo
p484
I202
sVparent
p485
I482
sVbridges
p486
I671
sVoriginated
p487
I296
sVsold
p488
I595
sVawards
p489
I179
sVwear
p490
I600
sVkey
p491
I731
sVgenre
p492
I123
sVmotto
p493
I138
sVconfiguration
p494
I412
sVcome
p495
I14
sVleague
p496
I46
sVlast
p497
I77
sVcareer
p498
I311
sVcountry
p499
I602
sVdedicate
p500
I625
sVcalled
p501
I784
sVplayers
p502
I413
sVoperas
p503
I544
sVfigures
p504
I280
sVtraded
p505
I7
sVscreenplay
p506
I199
sVcancer
p507
I732
sVpoint
p508
I198
sVcolor
p509
I257
sVhad
p510
I284
sVlyricist
p511
I733
sVperiod
p512
I120
sVheight
p513
I340
sVcode
p514
I293
sVdestroyed
p515
I187
sVarts
p516
I242
sVcities
p517
I513
sVcameras
p518
I517
sVengines
p519
I410
sVairlines
p520
I277
sVbeen
p521
I150
sVbeer
p522
I583
sVlibrettist
p523
I736
sVtreat
p524
I404
sVstadium
p525
I452
sVcollections
p526
I360
sVengine
p527
I492
sVdry
p528
I455
sVlived
p529
I418
sVpacks
p530
I154
sVpainted
p531
I359
sVformed
p532
I67
sVsort
p533
I657
sVfounders
p534
I674
sVfinished
p535
I737
sVworked
p536
I58
sVspin
p537
I223
sVpresent
p538
I468
sVplants
p539
I69
sVdivisions
p540
I519
sVx-men
p541
I319
sVsoccer
p542
I575
sVadaptations
p543
I559
sVstructures
p544
I486
sVoriginate
p545
I285
sVbudget
p546
I204
sVair
p547
I314
sVemploy
p548
I54
sVcast
p549
I489
sVPanasonic
p550
I350
sVowns
p551
I143
sVturbojet
p552
I739
sVvoice
p553
I137
sVlaunched
p554
I183
sVengineers
p555
I740
sVlodges
p556
I419
sVlosses
p557
I597
sVorientation
p558
I409
sVconferences
p559
I117
sVplayed
p560
I263
sVis
p561
I9
sVit
p562
I51
sVstations
p563
I769
sVhorsepower
p564
I706
sVmalls
p565
I298
sVin
p566
I23
sVbeaver
p567
I220
sVtourist
p568
I677
sVorbital
p569
I119
sVdifferent
p570
I227
sVsince
p571
I438
sVmake
p572
I743
sVbelong
p573
I45
sVmember
p574
I48
sVmatches
p575
I744
sVdamages
p576
I444
sVunits
p577
I295
sVparty
p578
I479
sVevents
p579
I111
sVfinish
p580
I178
sVcurators
p581
I745
sVcoached
p582
I365
sVcomprehensive
p583
I611
sVholidays
p584
I747
sVdirector
p585
I436
sVcoaches
p586
I588
sVrunning
p587
I82
sVflown
p588
I169
sVcharacters
p589
I385
sVprotected
p590
I748
sVweave
p591
I749
sVceltic
p592
I750
sVspecialize
p593
I580
sVkept
p594
I751
sVprograms
p595
I497
sVadapted
p596
I394
sVfloor
p597
I140
sVsubmarines
p598
I208
sVpractices
p599
I474
sVcommand
p600
I485
sVtrains
p601
I271
sVposition
p602
I159
sVthe
p603
I97
sVcreators
p604
I504
sVspend
p605
I576
sVeffects
p606
I196
sVstores
p607
I753
sVproposed
p608
I505
sVbeing
p609
I594
sVmoney
p610
I291
sVsporting
p611
I499
sVdistribute
p612
I324
sVtennis
p613
I688
sVvoltage
p614
I615
sVinstructed
p615
I754
sVspeed
p616
I371
sVportrayed
p617
I612
sVdeath
p618
I755
sVcharacter
p619
I406
sVpoliticians
p620
I786
sVblog
p621
I362
sVinstrument
p622
I473
sVbelongs
p623
I126
sVparents
p624
I598
sVshowers
p625
I741
sVrole
p626
I266
sVas
p627
I192
sVhas
p628
I21
sVcasting
p629
I435
sVsurvival
p630
I330
sVdigital
p631
I516
sVpropelled
p632
I180
sVlcd
p633
I759
sVbirth
p634
I562
sVjudge
p635
I212
sVdesigners
p636
I760
sVdomains
p637
I649
sVprojects
p638
I761
sVmelting
p639
I390
sVlike
p640
I262
sVlost
p641
I762
sVsizes
p642
I165
sVcommanders
p643
I425
sVannually
p644
I399
sVcollect
p645
I515
sVhosts
p646
I466
sVserved
p647
I763
sVworks
p648
I177
sVOS
p649
I764
sVfunction
p650
I778
sVdrop
p651
I680
sVold
p652
I28
sVpeople
p653
I18
sVsome
p654
I70
sVbegin
p655
I531
sVlibrary
p656
I765
sVborn
p657
I157
sVstrongest
p658
I592
sVproductions
p659
I587
sVexamples
p660
I457
sVX
p661
I718
sVlibretti
p662
I766
sVdimensions
p663
I353
sVfor
p664
I84
sVclosest
p665
I344
sVarmed
p666
I652
sVdecision
p667
I767
sVrecorded
p668
I533
sVlegal
p669
I395
sVreligion
p670
I155
sVdoes
p671
I3
sVbe
p672
I31
sVfootball
p673
I789
sVrun
p674
I252
sVscientific
p675
I584
sVmanufactured
p676
I461
sVequivalent
p677
I148
sVbowling
p678
I334
sVnotable
p679
I279
sVcostumes
p680
I768
sVexpansion
p681
I153
sVoverall
p682
I521
sVhost
p683
I610
sVdiet
p684
I211
sVarchitectural
p685
I205
sVdna
p686
I507
sVmanufacturing
p687
I68
sVproperties
p688
I299
sVmanufactures
p689
I107
sVnewscaster
p690
I430
sVchapter
p691
I287
sVon
p692
I37
sVmoored
p693
I518
sVvisitors
p694
I501
sVof
p695
I11
sVnewspapers
p696
I445
sVcompatible
p697
I771
sVrange
p698
I772
sVislands
p699
I343
sVruntime
p700
I422
sVprocessor
p701
I459
sVsoftware
p702
I248
sVown
p703
I88
sVgrammy
p704
I315
sVinstruments
p705
I773
sVimage
p706
I354
sVwithin
p707
I572
sVSandman
p708
I17
sVartists
p709
I586
sVbowlers
p710
I774
sV1982
p711
I775
sVher
p712
I316
sVarea
p713
I75
sValtitude
p714
I210
sVthere
p715
I33
sVlong
p716
I40
sVfight
p717
I776
sVstart
p718
I426
sVfought
p719
I552
sVeditor
p720
I777
sVseries
p721
I373
sVwas
p722
I1
sVmanufacture
p723
I699
sVhead
p724
I135
sVform
p725
I129
sVbus
p726
I250
sVdesignated
p727
I538
sVconstruction
p728
I441
sVsurvived
p729
I19
sVline
p730
I780
sVhighest
p731
I216
sVwith
p732
I152
sVabused
p733
I540
sVmade
p734
I86
sVguidebooks
p735
I367
sVconsist
p736
I133
sVmartial
p737
I241
sVofficial
p738
I512
sVup
p739
I547
sVsigned
p740
I782
sVrecord
p741
I160
sVstories
p742
I400
sVnominations
p743
I332
sVstages
p744
I616
sVsubclasses
p745
I476
sVblogs
p746
I130
sVpassenger
p747
I480
sVhosted
p748
I182
sVpresided
p749
I213
sVan
p750
I420
sVsingle
p751
I301
sVat
p752
I146
sVfile
p753
I172
sVship
p754
I567
sVhospitals
p755
I579
sVfilm
p756
I105
sVgenres
p757
I132
sVingredients
p758
I601
sVnicknames
p759
I337
sVstake
p760
I785
sVpercent
p761
I554
sVwebsite
p762
I527
sVMac
p763
I757
sVbook
p764
I91
sVactors
p765
I369
sVmeteor
p766
I787
sVincome
p767
I524
sVtest
p768
I355
sVcompete
p769
I793
sVyou
p770
I30
sVcricket
p771
I779
sVcompany
p772
I659
sVscored
p773
I414
sVkinds
p774
I306
sVgames
p775
I342
sVstudents
p776
I491
sVsymbol
p777
I788
sVsetting
p778
I495
sVvisits
p779
I101
sVrestoration
p780
I569
sVaward
p781
I163
sVbrands
p782
I453
sVdied
p783
I608
sVnetwork
p784
I233
sVbuilding
p785
I790
sVvice
p786
I551
sVage
p787
I535
sVdaily
p788
I791
sVbeds
p789
I207
sV2000
p790
I792
sVmass
p791
I456
sVratified
p792
I34
sV2009
p793
I794
sVresolution
p794
I795
sVoriginal
p795
I232
sVsongs
p796
I621
s.