(dp0
Vcode
p1
I51
sVfounder
p2
I22
sVfounded
p3
I30
sVcoach
p4
I223
sVgo
p5
I74
sVcaptain
p6
I154
sVchildren
p7
I148
sVcauses
p8
I37
sVtv
p9
I0
sVlanguages
p10
I157
sVto
p11
I127
sVbike
p12
I100
sVinclude
p13
I10
sVsong
p14
I180
sVsponsors
p15
I337
sVgovern
p16
I15
sVrechargable
p17
I268
sVschool
p18
I151
sVdid
p19
I2
sVteam
p20
I173
sVinversions
p21
I263
sVround
p22
I121
sV20th
p23
I319
sVbicycle
p24
I353
sVtitles
p25
I89
sVdesign
p26
I314
sVestimated
p27
I200
sVestablished
p28
I134
sVmarketed
p29
I235
sVcenters
p30
I179
sVcurrent
p31
I66
sVfossil
p32
I231
sVcapital
p33
I60
sVnet
p34
I47
sVpublic
p35
I61
sVchristian
p36
I217
sVoperating
p37
I199
sVinvented
p38
I116
sVspeeches
p39
I56
sVemployees
p40
I212
sVpublished
p41
I174
sVdomains
p42
I145
sVstarring
p43
I251
sVfamily
p44
I302
sVwin
p45
I72
sVmanage
p46
I205
sVtexts
p47
I250
sVnames
p48
I214
sVarmed
p49
I128
sVspawned
p50
I308
sVhotels
p51
I106
sVuse
p52
I59
sVfrom
p53
I273
sVcentury
p54
I320
sVasteroid
p55
I25
sVfilms
p56
I102
sVtype
p57
I135
sVsort
p58
I310
sVstarted
p59
I153
sVtennis
p60
I201
sVcompany
p61
I192
sVaward
p62
I34
sVbeers
p63
I343
sVknown
p64
I215
sVorganizations
p65
I46
sVslogan
p66
I19
sVride
p67
I236
sVof
p68
I21
sVgive
p69
I57
sVcurrency
p70
I50
sVspecies
p71
I120
sVend
p72
I122
sVwrite
p73
I142
sVanimal
p74
I271
sVcomedy
p75
I189
sVproduct
p76
I7
sVtreatments
p77
I68
sVcollection
p78
I31
sVproduce
p79
I3
sVdesigned
p80
I29
sVdate
p81
I177
sVtypes
p82
I213
sVa
p83
I230
sVlight
p84
I233
sVlines
p85
I8
sVobject-oriented
p86
I316
sVchief
p87
I324
sVathletes
p88
I334
sVdeveloped
p89
I137
sVover
p90
I75
sVproduced
p91
I117
sVheld
p92
I96
sVepisodes
p93
I169
sVincluding
p94
I267
sVindustries
p95
I150
sVbridges
p96
I73
sVstyle
p97
I258
sVgroup
p98
I168
sVwriting
p99
I90
sVsymptoms
p100
I266
sVproduction
p101
I162
sVsystems
p102
I91
sVfounders
p103
I155
sVwingspan
p104
I336
sVhappened
p105
I86
sVcount
p106
I290
sVtourist
p107
I296
sVceo
p108
I92
sVpractice
p109
I131
sV1955
p110
I49
sVname
p111
I112
sVdrop
p112
I288
sVrock
p113
I136
sVheavy
p114
I342
sVweight
p115
I27
sVseries
p116
I190
sVbooks
p117
I241
sVyear
p118
I33
sVflower
p119
I159
sVopened
p120
I341
sVprofit
p121
I48
sVcause
p122
I209
sVoriginally
p123
I234
sVgrapes
p124
I304
sVlanguage
p125
I301
sVcreated
p126
I45
sVstarts
p127
I93
sVprogramming
p128
I317
sVmusicians
p129
I329
sVstudents
p130
I345
sVfirst
p131
I118
sVmajor
p132
I84
sVthere
p133
I63
sVrevenue
p134
I225
sVspoken
p135
I133
sVattractions
p136
I297
sVnumber
p137
I216
sVchannels
p138
I259
sVfeatured
p139
I242
sVlong
p140
I289
sVthick
p141
I175
sVengineer
p142
I315
sVgiven
p143
I356
sVrated
p144
I143
sVbreed
p145
I167
sVsystem
p146
I24
sVcodons
p147
I203
sVtheir
p148
I110
sVpercentage
p149
I303
sVparticipated
p150
I198
sVmanufacture
p151
I354
sVseason
p152
I152
sVcompleted
p153
I204
sVbroadcast
p154
I284
sVreleased
p155
I138
sVpart
p156
I228
sVbelieve
p157
I87
sVpopulation
p158
I20
sVcost
p159
I245
sVhistorical
p160
I305
sVwere
p161
I107
sVbridge
p162
I330
sVnominee
p163
I35
sVshowers
p164
I307
sVhorsepower
p165
I36
sVmountain
p166
I99
sVbuilt
p167
I144
sVparks
p168
I80
sVzoo
p169
I285
sVlit
p170
I119
sVforces
p171
I129
sVquarterback
p172
I254
sVaired
p173
I264
sVroster
p174
I67
sVseasons
p175
I187
sVclass
p176
I28
sVepisode
p177
I43
sVneighborhoods
p178
I220
sVperformances
p179
I327
sVorganism
p180
I229
sVdirected
p181
I219
sVgerman
p182
I333
sVcelebrities
p183
I278
sVdiscovered
p184
I26
sVreligions
p185
I58
sVradio
p186
I255
sVpodcast
p187
I349
sVtheme
p188
I160
sVwon
p189
I294
sVdo
p190
I328
sVexports
p191
I298
sVstop
p192
I280
sVX
p193
I184
sVareas
p194
I161
sVruns
p195
I338
sVcountries
p196
I4
sVversions
p197
I181
sVteams
p198
I197
sVrelease
p199
I176
sVset
p200
I196
sVart
p201
I40
sVdisaster
p202
I238
sVnational
p203
I108
sVare
p204
I5
sVtransportation
p205
I62
sVsport
p206
I331
sVsubject
p207
I344
sVsaid
p208
I352
sVspirits
p209
I270
sVrecord
p210
I170
sVmovie
p211
I248
sVcurrently
p212
I163
sVsites
p213
I221
sVlabel
p214
I171
sVstate
p215
I158
sVprotected
p216
I224
sVnominees
p217
I191
sVconditions
p218
I265
sVsold
p219
I115
sVmonarchs
p220
I332
sVscreen
p221
I54
sVawards
p222
I71
sVkey
p223
I292
sVgenre
p224
I211
sVcome
p225
I272
sVlast
p226
I82
sVcountry
p227
I321
sVplayers
p228
I64
sVgames
p229
I194
sVadapted
p230
I355
sVcancer
p231
I178
sVroyal
p232
I243
sVlyricist
p233
I17
sVdestroyed
p234
I239
sVarts
p235
I130
sVengines
p236
I262
sVdue
p237
I126
sVbeen
p238
I95
sVlibrettist
p239
I42
sVpainted
p240
I12
sVformed
p241
I13
sVfinished
p242
I300
sVworked
p243
I283
sVpresent
p244
I357
sVwins
p245
I139
sVoriginate
p246
I164
sVair
p247
I83
sVpace
p248
I348
sVowns
p249
I193
sVturbojet
p250
I261
sVlaunched
p251
I140
sVengineers
p252
I282
sVhave
p253
I41
sVconferences
p254
I94
sVplayed
p255
I277
sVis
p256
I16
sVmiddle
p257
I111
sVin
p258
I6
sVdifferent
p259
I149
sVmake
p260
I312
sVmatches
p261
I274
sVevents
p262
I85
sVused
p263
I69
sVcurators
p264
I318
sVisland
p265
I227
sVholidays
p266
I218
sVcoaches
p267
I249
sVcharacters
p268
I208
sVweave
p269
I311
sVceltic
p270
I156
sVkept
p271
I286
sVprograms
p272
I1
sVposition
p273
I165
sVthe
p274
I65
sVlatest
p275
I256
sVstores
p276
I322
sVbeing
p277
I281
sVmoney
p278
I247
sVinstructed
p279
I81
sVdeath
p280
I210
sVhad
p281
I275
sVpoliticians
p282
I350
sVactors
p283
I109
sVhas
p284
I103
sVrna
p285
I202
sVlcd
p286
I339
sVdesigners
p287
I293
sVprojects
p288
I313
sVlost
p289
I125
sVserved
p290
I351
sVworks
p291
I124
sVOS
p292
I183
sVpeople
p293
I77
sVsome
p294
I98
sVplay
p295
I166
sVlibrary
p296
I23
sVmartial
p297
I39
sVlibretti
p298
I141
sVfor
p299
I18
sVdecision
p300
I269
sVreligion
p301
I53
sVdoes
p302
I9
sVbe
p303
I253
sVmanufactured
p304
I309
sVbowling
p305
I347
sVnotable
p306
I76
sVcostumes
p307
I104
sVhost
p308
I44
sVarchitectural
p309
I257
sVby
p310
I79
sVnewscaster
p311
I358
sVon
p312
I55
sVabout
p313
I123
sVstations
p314
I346
sVuniverse
p315
I195
sVcompatible
p316
I185
sVrange
p317
I105
sVislands
p318
I132
sVintroduced
p319
I38
sVor
p320
I113
sVown
p321
I260
sVinstruments
p322
I240
sVbowlers
p323
I207
sV1982
p324
I188
sVarea
p325
I14
sVinitial
p326
I114
sVcow's
p327
I246
sVfight
p328
I291
sVeditor
p329
I323
sVwas
p330
I11
sVfunction
p331
I147
sVcricket
p332
I206
sVconstruction
p333
I299
sVline
p334
I244
sVhighest
p335
I287
sVwith
p336
I186
sVabused
p337
I279
sVborn
p338
I295
sVsigned
p339
I172
sVcrystal
p340
I232
sVcalled
p341
I32
sVas
p342
I70
sVat
p343
I97
sVfilm
p344
I326
sVstake
p345
I276
sVMac
p346
I182
sVother
p347
I88
sVrole
p348
I252
sVmeteor
p349
I306
sVmodels
p350
I101
sVsymbol
p351
I52
sVfootball
p352
I222
sVdied
p353
I78
sVbuilding
p354
I146
sVdaily
p355
I237
sV2000
p356
I325
sVcompete
p357
I335
sV2009
p358
I226
sVresolution
p359
I340
s.