(lp0
I140
aI12
aI211
aI114
aI114
aI211
aI114
aI211
aI114
aI211
aI114
aI211
aI114
aI211
aI114
aI211
aI150
aI152
aI114
aI211
aI114
aI211
aI114
aI211
aI150
aI152
aI114
aI211
aI114
aI211
aI114
aI211
aI114
aI211
aI3
aI217
aI114
aI211
aI114
aI211
aI114
aI211
aI269
aI7
aI36
aI114
aI211
aI114
aI211
aI211
aI114
aI40
aI26
aI114
aI211
aI114
aI211
aI114
aI211
aI114
aI211
aI221
aI120
aI114
aI211
aI114
aI211
aI114
aI211
aI114
aI211
aI196
aI70
aI114
aI211
aI114
aI211
aI114
aI211
aI28
aI48
aI114
aI211
aI211
aI114
aI114
aI211
aI114
aI211
aI114
aI211
aI114
aI211
aI114
aI211
aI114
aI211
aI114
aI211
aI114
aI211
aI114
aI211
aI104
aI49
aI260
aI291
aI114
aI211
aI114
aI211
aI114
aI211
aI114
aI211
aI114
aI211
aI114
aI211
aI202
aI49
aI104
aI49
aI114
aI211
aI114
aI211
aI114
aI211
aI114
aI211
aI114
aI211
aI114
aI211
aI114
aI211
aI114
aI211
aI114
aI211
aI104
aI49
aI114
aI211
aI114
aI211
aI114
aI211
aI104
aI49
aI114
aI211
aI256
aI271
aI145
aI104
aI49
aI114
aI211
aI114
aI211
aI114
aI211
aI114
aI211
aI114
aI211
aI114
aI211
aI114
aI211
aI114
aI211
aI114
aI211
aI114
aI211
aI114
aI211
aI114
aI211
aI114
aI211
aI114
aI211
aI114
aI211
aI23
aI10
aI110
aI114
aI211
aI114
aI211
aI114
aI211
aI33
aI209
aI150
aI152
aI114
aI211
aI114
aI211
aI114
aI211
aI114
aI211
aI114
aI211
aI114
aI211
aI236
aI205
aI114
aI211
aI202
aI49
aI114
aI211
aI114
aI211
aI114
aI211
aI114
aI211
aI114
aI211
aI114
aI211
aI236
aI31
aI150
aI152
aI114
aI211
aI114
aI211
aI114
aI211
aI42
aI262
aI4
aI128
aI211
aI114
aI114
aI211
aI162
aI180
aI114
aI211
aI114
aI211
aI156
aI55
aI114
aI211
aI114
aI211
aI15
aI272
aI248
aI114
aI211
aI114
aI211
aI114
aI211
aI114
aI211
aI114
aI211
aI114
aI211
aI226
aI57
aI114
aI211
aI114
aI211
aI114
aI211
aI114
aI211
aI114
aI211
aI150
aI43
aI114
aI211
aI114
aI211
aI211
aI114
aI114
aI211
aI114
aI211
aI40
aI126
aI114
aI211
aI48
aI65
aI264
aI114
aI211
aI114
aI211
aI114
aI211
aI11
aI184
aI114
aI211
aI114
aI211
aI114
aI211
aI114
aI211
aI114
aI211
aI114
aI211
aI114
aI211
aI114
aI211
aI214
aI155
aI153
aI114
aI211
aI106
aI158
aI211
aI114
aI114
aI211
aI114
aI211
aI211
aI114
aI114
aI211
aI114
aI211
aI114
aI211
aI114
aI211
aI114
aI211
aI114
aI211
aI170
aI258
aI185
aI105
aI114
aI211
aI104
aI49
aI114
aI211
aI114
aI211
aI114
aI211
aI114
aI211
aI114
aI211
aI286
aI163
aI114
aI211
aI211
aI114
aI287
aI289
aI114
aI211
aI65
aI28
aI114
aI211
aI114
aI211
aI220
aI24
aI114
aI211
aI114
aI211
aI114
aI211
aI267
aI193
aI274
aI114
aI211
aI114
aI211
aI114
aI211
aI114
aI211
aI114
aI211
aI114
aI211
aI104
aI49
aI28
aI48
aI150
aI116
aI40
aI228
aI114
aI211
aI41
aI92
aI208
aI114
aI211
aI114
aI211
aI114
aI211
aI114
aI211
aI114
aI211
aI260
aI291
aI211
aI114
aI114
aI211
aI115
aI208
aI92
aI114
aI211
aI114
aI211
aI208
aI41
aI0
aI179
aI88
aI25
aI249
aI114
aI211
aI114
aI211
aI114
aI211
aI114
aI211
aI114
aI211
aI114
aI211
aI114
aI211
aI114
aI211
aI114
aI211
aI114
aI211
aI114
aI211
aI94
aI278
aI114
aI211
aI114
aI211
aI114
aI211
aI150
aI164
aI114
aI211
aI114
aI211
aI114
aI211
aI114
aI211
aI255
aI174
aI114
aI211
aI114
aI211
aI114
aI211
aI114
aI211
aI114
aI211
aI114
aI211
aI221
aI159
aI156
aI275
aI283
a.