(lp0
I62
aI16
aI32
aI114
aI211
aI198
aI124
aI133
aI245
aI213
aI60
aI63
aI51
aI114
aI211
aI114
aI211
aI114
aI211
aI44
aI165
aI114
aI211
aI114
aI211
aI114
aI211
aI232
aI192
aI210
aI157
aI129
aI114
aI211
aI114
aI211
aI114
aI211
aI114
aI211
aI67
aI247
aI40
aI253
aI114
aI211
aI156
aI55
aI21
aI131
aI142
aI59
aI54
aI71
aI108
aI114
aI211
aI18
aI261
aI114
aI211
aI211
aI114
aI114
aI211
aI114
aI211
aI181
aI19
aI223
aI114
aI211
aI114
aI211
aI114
aI211
aI114
aI211
aI114
aI211
aI183
aI139
aI86
aI114
aI211
aI186
aI285
aI114
aI211
aI114
aI211
aI114
aI211
aI114
aI211
aI114
aI211
aI45
aI296
aI150
aI230
aI260
aI291
aI114
aI211
aI114
aI211
aI114
aI211
aI114
aI211
aI40
aI141
aI114
aI211
aI114
aI211
aI211
aI114
aI211
aI114
aI114
aI211
aI114
aI211
aI114
aI211
aI211
aI114
aI114
aI211
aI195
aI138
aI114
aI211
aI114
aI211
aI114
aI211
aI114
aI211
aI114
aI211
aI114
aI211
aI114
aI211
aI114
aI211
aI114
aI211
aI161
aI25
aI249
aI114
aI211
aI114
aI211
aI109
aI66
aI114
aI211
aI114
aI211
aI114
aI211
aI114
aI211
aI114
aI211
aI114
aI211
aI114
aI211
aI114
aI211
aI28
aI65
aI264
aI93
aI94
aI84
aI184
aI114
aI211
aI114
aI211
aI114
aI211
aI114
aI211
aI114
aI211
aI114
aI211
aI262
aI42
aI28
aI48
aI114
aI211
aI114
aI211
aI114
aI211
aI114
aI211
aI114
aI211
aI114
aI211
aI114
aI211
aI123
aI2
aI114
aI211
aI114
aI211
aI114
aI211
aI111
aI57
aI226
aI114
aI211
aI114
aI211
aI114
aI211
aI114
aI211
aI114
aI211
aI114
aI211
aI114
aI211
aI114
aI211
aI199
aI107
aI114
aI211
aI40
aI244
aI114
aI211
aI114
aI211
aI150
aI263
aI114
aI211
aI114
aI211
aI114
aI211
aI114
aI211
aI114
aI211
aI114
aI211
aI133
aI245
aI114
aI211
aI114
aI211
aI114
aI211
aI114
aI211
aI260
aI291
aI114
aI211
aI114
aI211
aI114
aI211
aI114
aI211
aI114
aI211
aI114
aI211
aI277
aI252
aI47
aI241
aI114
aI211
aI114
aI211
aI114
aI211
aI114
aI211
aI114
aI211
aI114
aI211
aI114
aI211
aI114
aI211
aI114
aI211
aI114
aI211
aI284
aI246
aI114
aI211
aI114
aI211
aI114
aI211
aI276
aI219
aI237
aI240
aI73
aI114
aI211
aI114
aI211
aI114
aI211
aI237
aI219
aI114
aI211
aI84
aI184
aI28
aI48
aI114
aI211
aI114
aI211
aI114
aI211
aI114
aI211
aI222
aI89
aI224
aI84
aI184
aI187
aI168
aI114
aI211
aI114
aI211
aI114
aI211
aI114
aI211
aI114
aI211
aI114
aI211
aI114
aI211
aI264
aI48
aI28
aI114
aI211
aI114
aI211
aI39
aI197
aI268
aI251
aI114
aI211
aI114
aI211
aI114
aI211
aI114
aI211
aI114
aI211
aI114
aI211
aI114
aI211
aI114
aI211
aI114
aI211
aI114
aI211
aI114
aI211
aI114
aI211
aI270
aI293
aI175
aI114
aI211
aI7
aI269
aI36
aI114
aI211
aI114
aI211
aI150
aI20
aI114
aI211
aI211
aI114
aI114
aI211
aI114
aI211
aI114
aI211
aI114
aI211
aI114
aI211
aI28
aI65
aI114
aI211
aI114
aI211
aI90
aI201
aI227
aI114
aI211
aI114
aI211
aI114
aI211
aI114
aI211
aI114
aI211
aI143
aI132
aI114
aI211
aI248
aI272
aI22
aI149
aI282
aI217
aI81
aI165
aI44
aI114
aI211
aI114
aI211
aI114
aI211
aI114
aI211
aI18
aI75
aI261
aI114
aI211
aI114
aI211
aI114
aI211
aI100
aI171
aI292
aI114
aI211
aI114
aI211
aI21
aI142
aI131
aI59
aI114
aI211
aI28
aI65
aI114
aI211
aI114
aI211
aI114
aI211
aI114
aI211
aI114
aI211
aI114
aI211
aI46
aI95
aI114
aI211
aI114
aI211
aI130
aI53
aI35
aI114
aI211
aI114
aI211
aI114
aI211
aI114
aI211
aI114
aI211
aI114
aI211
aI114
aI211
aI215
aI190
aI114
aI211
aI77
aI82
aI114
aI211
aI182
aI118
aI114
aI211
aI133
aI138
aI114
aI211
aI114
aI211
aI114
aI211
aI114
aI211
aI114
aI211
aI114
aI211
aI114
aI211
aI279
aI248
aI272
aI29
aI280
aI114
aI211
aI47
aI241
aI114
aI211
aI120
aI221
aI114
aI211
aI37
aI7
aI269
aI36
aI114
aI211
aI103
aI58
aI46
aI95
aI114
aI211
aI104
aI49
aI102
aI224
aI89
aI87
aI216
aI114
aI211
aI265
aI30
aI34
aI78
aI288
aI234
aI114
aI211
aI114
aI211
aI114
aI211
aI114
aI211
aI84
aI184
aI11
aI114
aI211
aI114
aI211
aI114
aI211
aI206
aI109
aI150
aI61
aI114
aI211
aI219
aI79
aI114
aI211
aI114
aI211
aI114
aI211
aI272
aI248
aI11
aI184
aI114
aI211
aI217
aI282
aI3
aI114
aI211
aI146
aI127
aI114
aI211
aI14
aI243
aI249
aI161
aI1
aI282
aI207
aI257
aI202
aI49
aI114
aI211
aI114
aI211
aI200
aI218
aI114
aI211
aI114
aI211
aI104
aI49
aI169
aI91
aI167
aI254
aI231
aI173
aI132
aI143
aI114
aI211
aI114
aI211
aI114
aI211
aI114
aI211
aI114
aI211
aI114
aI211
aI114
aI211
aI114
aI211
aI114
aI211
aI114
aI211
aI200
aI218
aI114
aI211
aI114
aI211
aI28
aI65
aI235
aI136
aI122
aI203
aI114
aI211
aI231
aI254
aI114
aI211
aI114
aI211
aI213
aI239
aI114
aI211
aI114
aI211
aI165
aI44
aI65
aI28
aI114
aI211
aI114
aI211
aI168
aI187
aI114
aI211
aI114
aI211
aI114
aI211
aI49
aI202
aI211
aI114
aI211
aI114
aI114
aI211
aI114
aI211
aI114
aI211
aI114
aI211
aI114
aI211
aI114
aI211
aI114
aI211
aI114
aI211
aI27
aI266
aI114
aI211
aI150
aI152
aI114
aI211
aI114
aI211
aI114
aI211
aI114
aI211
aI114
aI211
aI114
aI211
aI114
aI211
aI114
aI211
aI114
aI211
aI114
aI211
aI99
aI254
aI231
aI196
aI70
aI114
aI211
aI114
aI211
aI119
aI189
aI172
aI114
aI211
aI114
aI211
aI114
aI211
aI114
aI211
aI114
aI211
aI114
aI211
aI114
aI211
aI114
aI211
aI114
aI211
aI114
aI211
aI150
aI152
aI114
aI211
aI114
aI211
aI114
aI211
aI225
aI64
aI114
aI211
aI114
aI211
aI114
aI211
aI188
aI112
aI123
aI178
aI114
aI211
aI249
aI88
aI161
aI264
aI28
aI48
aI114
aI211
aI114
aI211
aI114
aI211
aI97
aI68
aI91
aI169
aI114
aI211
aI114
aI211
aI184
aI11
aI114
aI211
aI114
aI211
aI114
aI211
aI114
aI211
aI114
aI211
aI114
aI211
aI114
aI211
aI114
aI211
aI156
aI283
aI275
aI114
aI211
aI114
aI211
aI114
aI211
aI114
aI211
aI114
aI211
aI114
aI211
aI211
aI114
aI150
aI50
aI114
aI211
aI114
aI211
aI114
aI211
aI104
aI49
aI104
aI49
aI114
aI211
aI114
aI211
aI114
aI211
aI114
aI211
aI114
aI211
aI28
aI48
aI114
aI211
aI114
aI211
aI114
aI211
aI209
aI33
aI281
aI114
aI211
aI211
aI114
aI114
aI211
aI114
aI211
aI114
aI211
aI190
aI215
aI114
aI211
aI114
aI211
aI114
aI211
aI114
aI211
aI114
aI211
aI114
aI211
aI114
aI211
aI114
aI211
aI114
aI211
aI211
aI114
aI211
aI114
aI40
aI52
aI114
aI211
aI260
aI291
aI114
aI211
aI114
aI211
aI114
aI211
aI114
aI211
aI114
aI211
aI114
aI211
aI114
aI211
aI154
aI8
aI114
aI211
aI17
aI80
aI76
aI114
aI211
aI114
aI211
aI105
aI185
aI215
aI190
aI202
aI49
aI114
aI211
aI114
aI211
aI104
aI49
aI213
aI294
aI282
aI1
aI121
aI72
aI211
aI114
aI114
aI211
aI114
aI211
aI104
aI49
aI28
aI264
aI65
aI114
aI211
aI114
aI211
aI114
aI211
aI137
aI233
aI114
aI211
aI114
aI211
aI132
aI143
aI114
aI211
aI114
aI211
aI114
aI211
aI289
aI160
aI238
aI56
aI191
aI85
aI48
aI28
aI65
aI114
aI211
aI114
aI211
aI114
aI211
aI114
aI211
aI114
aI211
aI114
aI211
aI114
aI211
aI114
aI211
aI114
aI211
aI114
aI211
aI114
aI211
aI59
aI142
aI114
aI211
aI202
aI49
aI162
aI180
aI114
aI211
aI114
aI211
aI114
aI211
aI48
aI28
aI114
aI211
aI144
aI260
aI114
aI211
aI140
aI12
aI114
aI211
aI114
aI211
aI114
aI211
aI114
aI211
aI114
aI211
aI117
aI229
aI114
aI211
aI114
aI211
aI211
aI114
aI211
aI114
aI114
aI211
aI114
aI211
aI114
aI211
aI114
aI211
aI114
aI211
aI114
aI211
aI114
aI211
aI114
aI211
aI114
aI211
aI212
aI9
aI114
aI211
aI65
aI28
aI264
aI114
aI211
aI114
aI211
aI114
aI211
aI114
aI211
aI114
aI211
aI114
aI211
aI40
aI244
aI114
aI211
aI114
aI211
aI114
aI211
aI114
aI211
aI114
aI211
aI48
aI28
aI114
aI211
aI114
aI211
aI260
aI291
aI114
aI211
aI114
aI211
aI114
aI211
aI114
aI211
aI114
aI211
aI114
aI211
aI114
aI211
aI114
aI211
aI114
aI211
aI114
aI211
aI151
aI177
aI114
aI211
aI114
aI211
aI114
aI211
aI114
aI211
aI197
aI39
aI242
aI5
aI28
aI48
aI114
aI211
aI114
aI211
aI114
aI211
aI114
aI211
aI89
aI224
aI114
aI211
aI202
aI49
aI114
aI211
aI114
aI211
aI114
aI211
aI114
aI211
aI114
aI211
aI114
aI211
aI114
aI211
aI166
aI221
aI114
aI211
aI114
aI211
aI211
aI114
aI114
aI211
aI114
aI211
aI114
aI211
aI291
aI144
aI114
aI211
aI83
aI185
aI105
aI114
aI211
aI114
aI211
aI114
aI211
aI96
aI187
aI168
aI104
aI49
aI114
aI211
aI114
aI211
aI114
aI211
aI134
aI250
aI281
aI209
aI114
aI211
aI114
aI211
aI114
aI211
aI114
aI211
aI114
aI211
aI216
aI87
aI295
aI114
aI211
aI114
aI211
aI114
aI211
aI114
aI211
a.