(dp0
Vaward.award_nomination.nominated_for
p1
I1
sVgames.game.number_of_players
p2
I2
sVaward.award_nomination.year
p3
I3
sVorganization.leadership.organization
p4
I113
sVbase.popstra.fashion_choice.fashion_wearer
p5
I5
sVengineering.battery_size_cell_variation.size
p6
I6
sVlocation.location_symbol_relationship.administrative_division
p7
I136
sVbook.contents.publication
p8
I8
sVmusic.group_membership.group
p9
I9
sVbiology.breed_registration.breed
p10
I10
sVtv.regular_tv_appearance.series
p11
I11
sVfilm.film_film_distributor_relationship.distributor
p12
I199
sVgovernment.government_position_held.office_position_or_title
p13
I13
sVsoccer.football_goal.scorer
p14
I14
sVfilm.performance.actor
p15
I291
sVeducation.academic_post.person
p16
I16
sVbusiness.employment_tenure.person
p17
I156
sVsoccer.football_team_management_tenure.manager
p18
I18
sVtravel.travel_destination_monthly_climate.travel_destination
p19
I19
sVlibrary.public_library_system.collection_size
p20
I20
sVroyalty.chivalric_order_membership.order
p21
I80
sVmedicine.survival_rate.rate
p22
I22
sVsports.sports_team_roster.player
p23
I201
sVlocation.statistical_region.major_exports
p24
I24
sVolympics.olympic_medal_honor.olympics
p25
I25
sVbusiness.business_operation.net_profit
p26
I26
sVtv.tv_producer_episode_credit.producer
p27
I27
sVaward.award_honor.award
p28
I28
sVorganization.organization_membership.member
p29
I29
sVopera.opera_character_voice.opera
p30
I30
sVcomputer.software_compatibility.software
p31
I31
sVeducation.academic_post.position_or_title
p32
I32
sVbasketball.basketball_roster_position.team
p33
I33
sVopera.opera_character_voice.voice
p34
I34
sVcelebrities.legal_entanglement.celebrity
p35
I109
sVmartial_arts.martial_arts_certification.person
p36
I36
sVmartial_arts.martial_arts_certification.date
p37
I37
sVcvg.game_performance.voice_actor
p38
I38
sVrail.railway_operator_relationship.railway
p39
I39
sVmeasurement_unit.dated_money_value.amount
p40
I40
sVolympics.olympic_athlete_affiliation.country
p41
I41
sVmedia_common.completion_of_unfinished_work.finisher
p42
I42
sVmetropolitan_transit.transit_system.daily_riders
p43
I43
sVcelebrities.rehab.celebrity
p44
I44
sVlocation.geocode.longitude
p45
I45
sVautomotive.us_fuel_economy.highway_mpg
p46
I46
sVtv.tv_network_duration.network
p47
I47
sVfilm.performance.film
p48
I260
sVbusiness.company_brand_relationship.brand
p49
I49
sVprotected_sites.protected_site.annual_visitors
p50
I50
sVprotected_sites.natural_or_cultural_site_listing.date_listed
p51
I111
sVbusiness.business_operation.operating_income
p52
I52
sVaward.hall_of_fame_induction.inductee
p53
I53
sVfilm.film_crew_gig.crewmember
p54
I54
sVbaseball.baseball_roster_position.team
p55
I70
sVtv.tv_regular_personal_appearance.program
p56
I56
sVprotected_sites.natural_or_cultural_site_listing.designation
p57
I57
sVbusiness.sponsorship.sponsored_by
p58
I58
sVaward.ranking.item
p59
I59
sVcomic_books.comic_book_issue.cover_price
p60
I60
sVlibrary.public_library_system.annual_visits
p61
I61
sVeducation.academic_post.institution
p62
I62
sVbaseball.baseball_historical_managerial_position.team
p63
I4
sVboats.ship_ownership.owner
p64
I64
sVbase.politicalconventions.convention_speech.speaker
p65
I82
sVbook.periodical_frequency.issues_per_year
p66
I63
sVarchitecture.occupancy.building
p67
I257
sVsoccer.football_league_participation.league
p68
I67
sS'PO'
p69
I114
sVbusiness.employment_tenure.to
p70
I69
sVcvg.musical_game_song_relationship.song
p71
I134
sVfilm.film_crew_gig.film_crew_role
p72
I71
sVbusiness.competitive_space_mediator.space
p73
I72
sVbook.periodical.first_issue_date
p74
I73
sVboxing.boxing_title_tenure.champion
p75
I151
sVsoccer.football_team_management_tenure.to
p76
I75
sVroyalty.chivalric_order_membership.title
p77
I76
sVaward.award_honor.award_winner
p78
I65
sVbasketball.basketball_historical_coach_position.team
p79
I78
sVchess.chess_game_participation.outcome
p80
I79
sVbusiness.stock_ticker_symbol.ticker_symbol
p81
I198
sVcelebrities.rehab.entered
p82
I81
sVcelebrities.substance_abuse_problem.end
p83
I83
sVtv.regular_tv_appearance.character
p84
I84
sVtv.tv_regular_personal_appearance.from
p85
I85
sVice_hockey.hockey_previous_roster_position.team
p86
I86
sVmedia_common.dedication.dedicated_to
p87
I87
sVamerican_football.football_historical_roster_position.team
p88
I89
sVsports.sports_team_roster.number
p89
I90
sVmilitary.military_command.military_conflict
p90
I91
sVfood.beer_containment.size
p91
I93
sVfood.beer_containment.beer
p92
I94
sVautomotive.us_fuel_economy.trim_level
p93
I95
sVexhibitions.exhibition_run.opened_on
p94
I96
sVsoccer.football_roster_position.team
p95
I97
sVinterests.collection.items
p96
I98
sVprojects.project_participation.role
p97
I99
sVamerican_football.player_game_statistics.games
p98
I100
sVgovernment.government_position_held.district_represented
p99
I101
sVamerican_football.football_historical_roster_position.position_s
p100
I102
sVbusiness.sponsorship.sponsored_recipient
p101
I103
sVbusiness.company_brand_relationship.from_date
p102
I104
sVcelebrities.substance_abuse_problem.substance
p103
I105
sVcomic_strips.comic_strip_creator_duration.creator_of_strip
p104
I106
sVfilm.film_film_distributor_relationship.film
p105
I107
sVfilm.film_crew_gig.film
p106
I108
sVmedia_common.completion_of_unfinished_work.unfinished_work
p107
I262
sVaward.hall_of_fame_induction.hall_of_fame
p108
I35
sVbiology.breed_registration.registry
p109
I110
sVbook.periodical.frequency_or_issues_per_year
p110
I51
sVgovernment.political_party_tenure.politician
p111
I112
sVaward.ranking.rank
p112
I21
sVsports.sports_league_participation.league
p113
I192
sVsoccer.football_roster_position.player
p114
I68
sVolympics.olympic_athlete_affiliation.sport
p115
I115
sVlocation.imports_exports_by_industry.industry
p116
I220
sVbusiness.company_product_relationship.consumer_product
p117
I117
sVolympics.olympic_athlete_affiliation.olympics
p118
I92
sVfood.nutrition_fact.quantity
p119
I119
sVevent.speech_or_presentation.speaker_s
p120
I120
sVbusiness.competitive_space_mediator.company
p121
I121
sVlocation.location_symbol_relationship.Kind_of_symbol
p122
I122
sVmeasurement_unit.integer_range.high_value
p123
I123
sVfinance.stock_exchange.companies_traded
p124
I124
sVgovernment.government_position_held.office_holder
p125
I125
sVcelebrities.sexual_orientation_phase.celebrity
p126
I127
sVbaseball.baseball_historical_managerial_position.manager
p127
I128
sVamerican_football.football_roster_position.team
p128
I129
sVaward.ranking.year
p129
I131
sVfashion.designer_label_association.designer
p130
I132
sVlocation.mailing_address.citytown
p131
I133
sVarchitecture.ownership.end_date
p132
I214
sVtravel.transportation.transport_operator
p133
I284
sVlibrary.public_library.address
p134
I138
sVice_hockey.hockey_previous_roster_position.player
p135
I139
sVtv.tv_producer_term.program
p136
I140
sVaward.ranking.list
p137
I142
sVfashion.designer_label_association.label
p138
I143
sVroyalty.chivalric_order_position_tenure.order
p139
I175
sVsports.sports_team_season_record.team
p140
I145
sVcelebrities.sexual_orientation_phase.sexual_orientation
p141
I146
sVbusiness.business_operation.revenue
p142
I273
sVsoccer.football_goal.match
p143
I243
sVengineering.battery_size_cell_variation.voltage
p144
I148
sVmedicine.disease.survival_rates
p145
I149
sVmeasurement_unit.dated_integer.number
p146
I150
sVprotected_sites.natural_or_cultural_site_listing.listed_site
p147
I226
sVlocation.statistical_region.population
p148
I152
sVarchitecture.ownership.structure
p149
I153
sVfilm.film.estimated_budget
p150
I244
sVboxing.boxing_title_tenure.title
p151
I177
sVroyalty.chivalric_order_membership.recipient
p152
I17
sVbiology.breed_registration.breed_group
p153
I23
sVcomic_strips.comic_strip_creator_duration.comic_strip
p154
I158
sVevent.speech_or_presentation.speech_topic
p155
I159
sVboxing.match_boxer_relationship.match
p156
I160
sVolympics.olympic_medal_honor.medal
p157
I161
sVcvg.game_performance.character
p158
I162
sVzoos.animal_captivity.animal
p159
I163
sVroyalty.chivalric_order_position_tenure.officer
p160
I270
sVeducation.educational_institution.total_enrollment
p161
I164
sVcelebrities.rehab.rehab_facility
p162
I165
sVevent.speech_or_presentation.event
p163
I166
sVprojects.project_participation.from_date
p164
I167
sVexhibitions.exhibition_run.venue
p165
I168
sVice_hockey.hockey_roster_position.position
p166
I279
sVmilitary.military_command.military_commander
p167
I169
sVsoccer.football_player_match_participation.player
p168
I170
sVamerican_football.player_game_statistics.season
p169
I171
sVfood.nutrition_fact.nutrient
p170
I172
sVmilitary.armed_force.personnel
p171
I174
sVfilm.performance.character
p172
I144
sVice_hockey.hockey_roster_position.number
p173
I15
sVarchitecture.ownership.owner
p174
I155
sVtv.tv_producer_term.producer
p175
I12
sVcvg.game_performance.game
p176
I180
sVsports.sports_league_participation.team
p177
I232
sVamerican_football.football_historical_coach_position.team
p178
I182
sVice_hockey.hockey_previous_roster_position.to
p179
I183
sVtv.regular_tv_appearance.actor
p180
I184
sVcelebrities.substance_abuse_problem.celebrity
p181
I185
sVbase.famouspets.pet_ownership.pet
p182
I186
sVzoos.animal_captivity.zoo
p183
I286
sVexhibitions.exhibition_run.exhibition
p184
I187
sVgovernment.political_party_tenure.party
p185
I188
sVbasketball.basketball_historical_coach_position.coach
p186
I234
sVamerican_football.football_roster_position.position
p187
I157
sVinterests.collection.collector
p188
I190
sVaviation.aircraft_model.passengers
p189
I178
sVolympics.olympic_medal_honor.event
p190
I88
sVwine.grape_variety_composition.wine
p191
I193
sVcvg.game_performance.performance_type
p192
I194
sVlocation.mailing_address.street_address
p193
I195
sVbaseball.baseball_roster_position.player
p194
I196
sVrail.railway_operator_relationship.operator
p195
I197
sVmartial_arts.martial_arts_certification.qualification
p196
I7
sVengineering.battery_size_cell_variation.cell_type
p197
I176
sVfilm.film_cut.runtime
p198
I200
sVfashion.designer_label_association.from_date
p199
I173
sVbusiness.company_brand_relationship.company
p200
I202
sVlocation.location_symbol_relationship.symbol
p201
I203
sVorganization.leadership.person
p202
I204
sVtv.tv_regular_personal_appearance.person
p203
I238
sVaviation.aircraft_ownership_count.aircraft_owner
p204
I137
sVarchitecture.occupancy.occupant
p205
I207
sVbasketball.basketball_roster_position.player
p206
I209
sVfinance.exchange_rate.target_of_exchange
p207
I74
sVcelebrities.celebrity.net_worth
p208
I141
sVbook.periodical_publication_date.date
p209
I240
sVmeasurement_unit.money_value.amount
p210
I213
sVinterests.collection.category
p211
I215
sVfinance.exchange_rate.source_of_exchange
p212
I147
sVaward.award_nomination.award_nominee
p213
I217
sVfilm.film_cut.film
p214
I218
sVchess.chess_game_participation.game
p215
I219
sVreligion.religion.number_of_adherents
p216
I116
sVevent.speech_or_presentation.presented_work
p217
I221
sVamerican_football.football_historical_roster_position.number
p218
I222
sVtv.tv_network_duration.program
p219
I241
sVtravel.travel_destination_monthly_climate.month
p220
I223
sVamerican_football.football_historical_roster_position.player
p221
I224
sVboats.ship_ownership.ship
p222
I225
sVmedia_common.dedication.work_dedicated
p223
I216
sVsports.sports_team_roster.team
p224
I227
sVprojects.project.actual_cost
p225
I228
sVbusiness.consumer_company.products
p226
I229
sVamusement_parks.park.annual_visits
p227
I230
sVprojects.project_participation.participant
p228
I231
sVtravel.travel_destination_monthly_climate.average_max_temp_c
p229
I181
sVaviation.aircraft_ownership_count.aircraft_model
p230
I233
sVfood.nutrition_fact.food
p231
I189
sVlocation.location_symbol_relationship.date_adopted
p232
I235
sVcomputer.software_compatibility.operating_system
p233
I236
sVaward.hall_of_fame_induction.date
p234
I130
sVcomputer.software.compatible_oses
p235
I205
sVevent.disaster.damage
p236
I239
sVmusic.group_membership.member
p237
I212
sS'SP'
p238
I211
sVamusement_parks.ride.cost
p239
I126
sVbook.contents.work
p240
I154
sVorganization.organization.headquarters
p241
I245
sVtravel.transportation.travel_destination
p242
I246
sVsoccer.football_league_participation.team
p243
I247
sVice_hockey.hockey_roster_position.player
p244
I248
sVolympics.olympic_medal_honor.medalist
p245
I249
sVcvg.musical_game_song_relationship.game
p246
I250
sVlaw.judicial_tenure.court
p247
I251
sVbook.periodical_publisher_period.periodical
p248
I252
sVdigicams.digital_camera.street_price
p249
I253
sVprojects.project_participation.project
p250
I254
sVmilitary.military_service.military_person
p251
I255
sVexhibitions.exhibition_run.admission_fee
p252
I135
sVsoccer.football_player_match_participation.match
p253
I258
sVorganization.leadership.role
p254
I259
sVaward.award_honor.honored_for
p255
I48
sVsoccer.football_team_management_tenure.team
p256
I261
sVbusiness.employer.employees
p257
I55
sVcelebrities.legal_entanglement.location
p258
I206
sVmedicine.hospital.beds
p259
I263
sVbaseball.baseball_historical_roster_position.player
p260
I179
sVopera.opera_character_voice.character
p261
I265
sVtv.tv_series_episode.producers
p262
I266
sVwine.grape_variety_composition.percentage
p263
I267
sVlaw.judicial_tenure.judge
p264
I268
sVmartial_arts.martial_arts_certification.art
p265
I269
sVamerican_football.football_historical_coach_position.coach
p266
I118
sVsports.sports_team_season_record.season
p267
I271
sVice_hockey.hockey_roster_position.team
p268
I272
sVbase.popstra.fashion_choice.designer
p269
I242
sVaward.award_honor.year
p270
I264
sVsports.sports_team_season_record.wins
p271
I256
sVwine.grape_variety_composition.grape_variety
p272
I274
sVbusiness.employment_tenure.title
p273
I275
sVchess.chess_game_participation.color
p274
I276
sVbook.periodical_publisher_period.publisher
p275
I277
sVfood.beer_containment.container_type
p276
I278
sVtv.tv_regular_personal_appearance.appearance_type
p277
I191
sVorganization.organization_membership.organization
p278
I280
sVchess.chess_game_participation.player
p279
I237
sVbasketball.basketball_roster_position.number
p280
I281
sVaward.award_nomination.award
p281
I282
sVbusiness.employment_tenure.company
p282
I283
sVbaseball.baseball_historical_roster_position.team
p283
I0
sVbase.famouspets.pet_ownership.owner
p284
I285
sVolympics.olympic_athlete_affiliation.athlete
p285
I208
sVboxing.match_boxer_relationship.winner_won
p286
I287
sVamerican_football.football_roster_position.player
p287
I210
sVbasketball.basketball_historical_coach_position.from
p288
I288
sVboxing.match_boxer_relationship.boxer
p289
I289
sVmeasurement_unit.dated_money_value.valid_date
p290
I290
sVcelebrities.legal_entanglement.offense
p291
I66
sVbase.politicalconventions.convention_speech.venue
p292
I77
sVamerican_football.player_game_statistics.player
p293
I292
sVroyalty.chivalric_order_position_tenure.chivalric_office
p294
I293
sVautomotive.trim_level.msrp
p295
I294
sVmedia_common.dedication.dedicated_by
p296
I295
sVlocation.location.geolocation
p297
I296
s.