(dp0
Vskiing.ski_area.lodges
p1
I365
sVmeteorology.tropical_cyclone.formed
p2
I0
sVlaw.court.founded
p3
I1
sVlaw.constitutional_amendment.proposed_by
p4
I2
sVamusement_parks.ride.drop
p5
I3
sVengineering.engine.energy_source
p6
I4
sVtv.tv_program.air_date_of_first_episode
p7
I5
sVcomputer.computer.discontinued
p8
I6
sS'?feh'
p9
I7
sVtravel.travel_destination.local_transportation
p10
I8
sVbroadcast.content.production_end
p11
I431
sVprojects.project.planned_completion_date
p12
I10
sVpeople.deceased_person.place_of_burial
p13
I11
sVcomic_strips.comic_strip.characters
p14
I12
sVrail.locomotive.locomotive_class
p15
I13
sVbusiness.business_operation.industry
p16
I14
sVgeography.body_of_water.bridges
p17
I476
sVarchitecture.structure.architect
p18
I15
sVfood.candy_bar.sold_in
p19
I16
sVconferences.conference_series.subject
p20
I17
sVgeography.mountain.last_eruption
p21
I18
sVmedia_common.cause_of_loss.works_lost_this_way
p22
I19
sVeducation.field_of_study.subdisciplines
p23
I20
sVchemistry.chemical_element.isotopes
p24
I21
sVdining.cuisine.ingredients
p25
I22
sVroyalty.order_of_chivalry.date_founded
p26
I23
sVboats.ship.hull_material
p27
I24
sVfinance.stock_exchange.primary_regions
p28
I25
sVdigicams.digital_camera.released
p29
I26
sVbaseball.baseball_manager.current_team_managed
p30
I214
sVinternet.website.owner
p31
I28
sVspaceflight.satellite.launch_date
p32
I29
sS'?cga'
p33
I30
sS'?bhh'
p34
I31
sVpeople.person.height_meters
p35
I32
sVfreebase.domain_profile.category
p36
I33
sVtv.tv_program.currently_in_production
p37
I34
sS'?dbi'
p38
I368
sS'?cce'
p39
I36
sS'?ccd'
p40
I37
sS'?ccc'
p41
I38
sS'?cca'
p42
I39
sS'?bcf'
p43
I370
sVbroadcast.radio_station.owner
p44
I42
sVtv.tv_program.program_creator
p45
I618
sVchemistry.chemical_element.discovery_date
p46
I44
sVboats.ship.ship_builder
p47
I45
sS'?ecf'
p48
I46
sS'?hgh'
p49
I47
sVchemistry.chemical_element.chemical_series
p50
I48
sVbroadcast.radio_station.serves_area
p51
I49
sS'?hgd'
p52
I50
sVtravel.travel_destination.accommodation
p53
I51
sS'?eci'
p54
I52
sVreligion.religion.texts
p55
I53
sS'?hgc'
p56
I54
sVmartial_arts.martial_art.well_known_practitioner
p57
I55
sVmedia_common.adaptation.adapted_from
p58
I56
sVfilm.film.costume_design_by
p59
I57
sVamusement_parks.ride.opened
p60
I58
sVbook.periodical.subjects
p61
I59
sVreligion.religion.notable_figures
p62
I60
sVgeography.mountain.elevation
p63
I61
sVeducation.fraternity_sorority.founded_location
p64
I62
sS'?gca'
p65
I718
sVphysics.particle.electric_charge
p66
I63
sVfictional_universe.school_in_fiction.students_graduates
p67
I64
sS'?gbb'
p68
I65
sVlaw.legal_case.judges
p69
I66
sS'?gbe'
p70
I67
sVvisual_art.artwork.artist
p71
I68
sVcvg.game_series.games_in_series
p72
I69
sVmedia_common.quotation.author
p73
I71
sVboxing.boxing_match.decision
p74
I72
sS'?fbh'
p75
I73
sS'?fbd'
p76
I74
sVdistilled_spirits.spirit_producing_region.distilleries
p77
I75
sS'?fba'
p78
I77
sVfilm.film.music
p79
I78
sVautomotive.engine.fuels_used
p80
I79
sVice_hockey.hockey_position.players
p81
I80
sVlocation.location.events
p82
I81
sVcomputer.computer.key_designers
p83
I627
sVfilm.film.initial_release_date
p84
I82
sS'?dac'
p85
I629
sVdigicams.digital_camera.weight
p86
I84
sVcricket.cricket_tournament_event.teams
p87
I85
sVbasketball.basketball_team.head_coach
p88
I86
sVamusement_parks.park.areas
p89
I87
sVbroadcast.radio_station_owner.radio_stations
p90
I88
sVskiing.ski_area.opening_date
p91
I109
sVspaceflight.spacecraft.manufacturer
p92
I90
sVbicycles.bicycle_model.manufacturer
p93
I91
sVphysics.particle_family.particles
p94
I92
sS'?aee'
p95
I93
sS'?aed'
p96
I94
sS'?aeb'
p97
I95
sVphysics.particle_family.subclasses
p98
I96
sVlocation.country.capital
p99
I97
sVbasketball.basketball_coach.season_losses
p100
I98
sVbase.saturdaynightlive.snl_host.episodes_hosted
p101
I99
sVmeteorology.cloud.varieties
p102
I100
sVcricket.cricket_tournament_event.host
p103
I101
sS'?bdh'
p104
I102
sVbook.newspaper.circulation_areas
p105
I103
sVlocation.location.containedby
p106
I376
sS'?bda'
p107
I104
sVmartial_arts.martial_art.category
p108
I105
sVbusiness.product_line.includes_product_lines
p109
I106
sVfinance.currency.prefix_symbol
p110
I107
sVexhibitions.exhibition.curators
p111
I108
sVtransportation.road.length
p112
I110
sVmedicine.medical_treatment.used_to_treat
p113
I493
sVfreebase.type_profile.instance_count
p114
I112
sVreligion.religion.branched_into
p115
I113
sVcricket.cricket_umpire.test_matches_refereed
p116
I114
sVfilm.film.subjects
p117
I115
sVtv.tv_series_episode.writer
p118
I116
sVcomputer.programming_language_designer.languages_designed
p119
I117
sS'?chb'
p120
I118
sS'?chc'
p121
I119
sS'?cha'
p122
I120
sS'?chf'
p123
I121
sS'?che'
p124
I122
sVcomputer.computing_platform.file_formats_supported
p125
I123
sS'?chi'
p126
I124
sVgeology.rock_type.parent_rock_type
p127
I125
sVroyalty.royal_line.monarchs_from_this_line
p128
I126
sVfilm.film.written_by
p129
I128
sVarchitecture.building.floors
p130
I129
sVbroadcast.tv_station_owner.tv_stations
p131
I130
sVmedicine.infectious_disease.infectious_agent_type
p132
I131
sVskiing.ski_area.top_elevation
p133
I132
sS'?cgg'
p134
I133
sS'?cgf'
p135
I134
sVinternet.website.launched
p136
I240
sVbase.dinosaur.dinosaur_location.dinosaur_s
p137
I136
sS'?cgi'
p138
I137
sS'?cgh'
p139
I138
sVlaw.constitution.country
p140
I139
sS'?egi'
p141
I140
sVarchitecture.building.building_function
p142
I141
sVdigicams.digital_camera.lcd_screen_dimensions
p143
I142
sS'?ege'
p144
I143
sVradio.radio_program.final_broadcast
p145
I640
sS'?egf'
p146
I144
sS'?fad'
p147
I145
sS'?fae'
p148
I146
sVeducation.educational_institution.newspaper
p149
I147
sS'?hcc'
p150
I148
sS'?faa'
p151
I149
sS'?fab'
p152
I150
sS'?hch'
p153
I151
sS'?hci'
p154
I152
sVbiology.fossil_specimen.found_at_site
p155
I500
sVmedia_common.literary_genre.books_in_this_genre
p156
I153
sS'?fai'
p157
I154
sVtv.tv_program.theme_song
p158
I155
sS'?ffc'
p159
I156
sVaviation.aircraft_model.maiden_flight
p160
I157
sVbroadcast.content.genre
p161
I246
sVice_hockey.hockey_conference.divisions
p162
I159
sS'?ffi'
p163
I160
sVpeople.person.place_of_birth
p164
I161
sVaviation.aircraft_model.maximum_speed_km_h
p165
I644
sVboats.ship_designer.boats_designed
p166
I164
sVcommon.image.size
p167
I165
sVtv.tv_program.episode_running_time
p168
I166
sVarchitecture.structure.architectural_style
p169
I167
sS'?ggc'
p170
I168
sVlibrary.public_library.library_system
p171
I298
sVbroadcast.podcast_feed.average_media_length
p172
I170
sVlocation.country.official_language
p173
I171
sVexhibitions.exhibition.subjects
p174
I172
sVvisual_art.artwork.media
p175
I173
sVinternet.website.category
p176
I175
sVboxing.boxing_match.titles_at_stake
p177
I176
sVolympics.olympic_sport.events
p178
I177
sVzoos.zoo.exhibits
p179
I178
sVcomic_books.comic_book_series.featured_characters
p180
I179
sVopera.opera.librettist
p181
I332
sVamusement_parks.ride.max_speed
p182
I181
sVroyalty.order_of_chivalry.founders
p183
I182
sVcomic_books.comic_book_series.publisher
p184
I183
sVexhibitions.exhibit.exhibitions_displayed_in
p185
I184
sVbiology.deceased_organism.date_of_death
p186
I185
sVmusic.artist.active_end
p187
I186
sVpeople.person.date_of_birth
p188
I187
sVcricket.cricket_team.coach
p189
I188
sVtravel.travel_destination.guidebooks
p190
I189
sVmedia_common.netflix_genre.titles
p191
I76
sVdining.cuisine.dishes
p192
I191
sVdigicams.digital_camera.lcd_pixels
p193
I192
sS'?eag'
p194
I384
sVamusement_parks.ride.manufacturer
p195
I194
sVfinance.currency.countries_formerly_used
p196
I386
sS'?bab'
p197
I691
sVevent.disaster.survivors
p198
I196
sVmusic.artist.label
p199
I197
sVdigicams.digital_camera_manufacturer.cameras
p200
I199
sS'?aai'
p201
I200
sVtv.tv_program.episodes
p202
I201
sVboats.ship.length_overall
p203
I202
sS'?aac'
p204
I203
sS'?aaa'
p205
I204
sS'?aaf'
p206
I205
sS'?aae'
p207
I206
sS'?aad'
p208
I207
sVmeteorology.tropical_cyclone_season.strongest_storm
p209
I208
sS'?eif'
p210
I209
sVmartial_arts.martial_artist.martial_art
p211
I210
sVtime.event.locations
p212
I211
sVconferences.conference.venue
p213
I212
sVwine.wine.percentage_alcohol
p214
I70
sVmusic.artist.track
p215
I174
sVtv.tv_program.seasons
p216
I215
sVchemistry.chemical_element.melting_point
p217
I216
sS'?aha'
p218
I218
sVmeteorology.tropical_cyclone.affected_areas
p219
I219
sS'?ahd'
p220
I220
sVastronomy.orbital_relationship.orbited_by
p221
I221
sVspaceflight.satellite.launch_site
p222
I222
sS'?dcf'
p223
I223
sVreligion.religion.includes
p224
I224
sVcricket.cricket_bowler.pace
p225
I225
sS'?dca'
p226
I226
sS'?dcb'
p227
I227
sS'?ddh'
p228
I228
sVsports.sports_team.team_mascot
p229
I504
sVopera.opera.date_of_first_performance
p230
I230
sVautomotive.generation.designer
p231
I231
sS'?ddb'
p232
I232
sS'?dde'
p233
I233
sS'?ddd'
p234
I234
sS'?ddf'
p235
I235
sVolympics.olympic_participating_country.olympics_participated_in
p236
I236
sVcvg.cvg_platform.games_on_this_platform
p237
I237
sVlanguage.human_language.countries_spoken_in
p238
I238
sVmedicine.disease.stages
p239
I239
sVcomic_books.comic_book_series.number_of_issues
p240
I391
sVeducation.school_mascot.school
p241
I242
sVrail.railway.closed
p242
I243
sVamusement_parks.park.opened
p243
I244
sS'?ghb'
p244
I245
sVradio.radio_program_episode.program
p245
I158
sVorganization.organization.slogan
p246
I248
sVbusiness.consumer_product.product_line
p247
I654
sS'?ghi'
p248
I250
sVmedicine.infectious_disease.transmission
p249
I251
sVfashion.garment.specialization_of
p250
I252
sVmeteorology.cloud.appearance
p251
I253
sVbiology.gene_ontology_group.description
p252
I496
sS'?gci'
p253
I254
sS'?gch'
p254
I255
sVcomputer.software_developer.software
p255
I256
sVbiology.amino_acid.codons
p256
I257
sS'?fea'
p257
I258
sS'?fec'
p258
I259
sVolympics.olympic_games.number_of_countries
p259
I260
sVbroadcast.content.artist
p260
I261
sVroyalty.order_of_chivalry.motto
p261
I262
sVprotected_sites.protected_site.date_established
p262
I263
sVspaceflight.astronaut.space_time_minutes
p263
I264
sVbiology.amino_acid.single_letter_abbreviation
p264
I265
sVgeography.body_of_water.islands
p265
I266
sVcvg.computer_videogame.gameplay_modes
p266
I267
sVcricket.cricket_bowler.technique
p267
I268
sS'?bef'
p268
I671
sVlanguage.human_language.language_family
p269
I270
sVcomic_books.comic_book_colorist.comic_stories_colored
p270
I661
sS'?bhe'
p271
I273
sVbusiness.shopping_center.retail_floor_space_m_2
p272
I274
sVprotected_sites.park_system.member_parks
p273
I275
sS'?bgh'
p274
I276
sVbroadcast.content.production_start
p275
I277
sVzoos.zoo.opened
p276
I278
sVcomic_books.comic_book_character.cover_appearances
p277
I279
sVexhibitions.exhibition_subject.exhibitions_created_about_this_subject
p278
I280
sS'?bgc'
p279
I281
sS'?bgf'
p280
I282
sS'?bgg'
p281
I283
sS'?acd'
p282
I657
sVbroadcast.content.location
p283
I284
sVevent.disaster_affected_structure.destroyed_by_disaster
p284
I285
sVice_hockey.hockey_coach.current_team
p285
I198
sVmeteorology.cloud.maximum_altitude_m
p286
I287
sS'?dga'
p287
I288
sS'?dgb'
p288
I289
sS'?dgd'
p289
I291
sS'?dgh'
p290
I292
sS'?dgi'
p291
I293
sVice_hockey.hockey_team.division
p292
I294
sVfictional_universe.fictional_setting.works_set_here
p293
I295
sVastronomy.astronomical_observatory.telescope_s
p294
I296
sVastronomy.astronomical_discovery.discovery_technique
p295
I297
sVgovernment.us_president.vice_president
p296
I169
sVmartial_arts.martial_artist.martial_arts_students
p297
I299
sS'?cie'
p298
I300
sS'?cid'
p299
I301
sS'?cig'
p300
I302
sVopera.opera_director.operas_directed
p301
I303
sS'?cic'
p302
I304
sS'?cib'
p303
I305
sVmartial_arts.martial_artist.instructor
p304
I306
sVopera.librettist.libretti
p305
I307
sVfreebase.type_profile.equivalent_topic
p306
I733
sVgeography.glacier.thickness
p307
I308
sVeducation.grade_level.typical_age_minimum
p308
I309
sVmedicine.medical_specialty.hospitals_with_this_specialty
p309
I700
sVopera.opera.language
p310
I310
sVchemistry.chemical_element.discovering_country
p311
I311
sVchemistry.chemical_element.atomic_number
p312
I312
sVarchitecture.architectural_style.architects
p313
I313
sS'?eda'
p314
I314
sS'?edd'
p315
I316
sVinternet.blog.blogger
p316
I317
sS'?hfi'
p317
I318
sS'?edh'
p318
I319
sS'?hfe'
p319
I320
sVbasketball.basketball_coach.season_wins
p320
I322
sVbook.written_work.original_language
p321
I323
sVeducation.educational_institution.colors
p322
I324
sS'?fid'
p323
I325
sVtravel.travel_destination.tourist_attractions
p324
I326
sS'?fif'
p325
I327
sVreligion.religious_text.religious_text_of
p326
I328
sS'?gda'
p327
I329
sVgeography.island.island_group
p328
I330
sVeducation.educational_institution.school_type
p329
I331
sVreligion.religion.deities
p330
I180
sVpeople.deceased_person.date_of_death
p331
I405
sVlanguage.language_creator.languages_created
p332
I334
sVbicycles.bicycle_type.bicycle_models_of_this_type
p333
I335
sVgames.game.minimum_age_years
p334
I336
sVamusement_parks.ride.duration
p335
I337
sVeducation.field_of_study.journals_in_this_discipline
p336
I539
sVconferences.conference_venue.conferences
p337
I338
sVphysics.particle.generation
p338
I339
sVbasketball.basketball_coach.team
p339
I340
sVlocation.place_with_neighborhoods.neighborhoods
p340
I341
sVmedia_common.quotation.spoken_by_character
p341
I342
sVbiology.fossil_specimen.organism
p342
I343
sVastronomy.star.temperature_k
p343
I344
sVfashion.garment.more_specialized_forms
p344
I345
sVzoos.zoo.num_species
p345
I346
sS'?hgi'
p346
I347
sVsports.sports_team.arena_stadium
p347
I348
sS'?ecc'
p348
I349
sVcomputer.programming_language_paradigm.languages
p349
I350
sVroyalty.chivalric_order_founder.orders_founded
p350
I351
sVbook.book.characters
p351
I352
sVrail.locomotive_class.locomotives_of_this_class
p352
I353
sS'?afb'
p353
I354
sS'?afc'
p354
I355
sS'?afa'
p355
I356
sS'?aff'
p356
I357
sVboats.ship.launched
p357
I358
sVfictional_universe.fictional_character.species
p358
I359
sS'?afh'
p359
I360
sS'?afi'
p360
I361
sVrail.railway.length
p361
I362
sVamusement_parks.ride.area
p362
I364
sVbusiness.brand.products
p363
I27
sS'?aib'
p364
I366
sS'?aif'
p365
I367
sS'?bch'
p366
I35
sS'?aid'
p367
I369
sS'?dbg'
p368
I40
sS'?dbf'
p369
I371
sS'?dbe'
p370
I372
sVmusic.composition.composer
p371
I374
sVarchitecture.structure.height_meters
p372
I375
sVice_hockey.hockey_player.hockey_position
p373
I190
sVbase.dinosaur.dinosaur.diet
p374
I378
sVgames.game.designer
p375
I379
sVskiing.ski_area.number_of_runs
p376
I380
sVgeography.river.origin
p377
I381
sVpeople.deceased_person.cause_of_death
p378
I382
sS'?cdi'
p379
I383
sS'?cdf'
p380
I193
sS'?cdg'
p381
I385
sVfood.cheese.source_of_milk
p382
I195
sS'?eab'
p383
I387
sS'?eaa'
p384
I388
sVarchitecture.architect.architectural_style
p385
I389
sVbaseball.baseball_team.division
p386
I390
sVinternet.blog.started
p387
I241
sVcomputer.computer.processor
p388
I392
sS'?hba'
p389
I393
sVmilitary.military_combatant.armed_forces
p390
I394
sVbook.author.series_written_or_contributed_to
p391
I395
sVastronomy.constellation.contains
p392
I396
sVbicycles.bicycle_model.bicycle_type
p393
I397
sVtransportation.road.formed
p394
I398
sVgeology.geological_formation.type_of_rock
p395
I399
sVmusic.album.release_date
p396
I400
sVgeography.waterfall.height
p397
I401
sS'?dia'
p398
I420
sVconferences.conference_sponsor.conferences
p399
I403
sVsports.sports_team.founded
p400
I404
sVautomotive.trim_level.engine
p401
I333
sVgeology.geological_formation.formed_during_period
p402
I408
sVbook.periodical_subject.periodicals
p403
I407
sVpeople.deceased_person.place_of_death
p404
I315
sVsoccer.football_match.teams
p405
I409
sVice_hockey.hockey_team.coach
p406
I410
sVbook.written_work.author
p407
I411
sVbook.written_work.date_of_first_publication
p408
I412
sVmeteorology.tropical_cyclone.direct_fatalities
p409
I413
sVtv.tv_series_episode.season
p410
I554
sS'?dih'
p411
I426
sS'?cee'
p412
I552
sVmedicine.cancer_center_type.centers_of_this_kind
p413
I416
sS'?abf'
p414
I417
sVbaseball.baseball_player.hall_of_fame_induction
p415
I418
sS'?abd'
p416
I419
sS'?abe'
p417
I402
sS'?hfg'
p418
I421
sS'?dig'
p419
I406
sS'?did'
p420
I423
sS'?aba'
p421
I424
sVmusic.artist.genre
p422
I425
sVice_hockey.hockey_division.teams
p423
I415
sS'?dii'
p424
I427
sVsoccer.football_match.attendance
p425
I428
sVmilitary.armed_force.military_combatant
p426
I429
sVprojects.project.actual_completion_date
p427
I430
sVmeteorology.tropical_cyclone.highest_winds
p428
I377
sVarchitecture.lighthouse.construction
p429
I433
sS'?abi'
p430
I434
sVgovernment.us_president.presidency_number
p431
I699
sVarchitecture.architect.structures_designed
p432
I435
sVtime.event.start_date
p433
I436
sVeducation.school_district.schools
p434
I437
sVastronomy.astronomical_discovery.discovery_site
p435
I613
sVgeography.island_group.islands_in_group
p436
I438
sVamusement_parks.park.rides
p437
I439
sVevent.disaster.structures_destroyed
p438
I440
sVmusic.artist.album
p439
I441
sVfilm.film.film_casting_director
p440
I442
sVfashion.textile.weave
p441
I443
sVboats.ship.means_of_propulsion
p442
I422
sVgames.playing_card_game.number_of_cards
p443
I446
sVbasketball.basketball_player.position_s
p444
I447
sVchemistry.chemical_compound.boiling_point
p445
I448
sVreligion.deity.deity_of
p446
I432
sVreligion.belief.belief_of
p447
I127
sVolympics.olympic_games.host_city
p448
I451
sS'?cac'
p449
I452
sVsoccer.football_position.players
p450
I453
sS'?cai'
p451
I454
sS'?cah'
p452
I455
sVboxing.boxing_sanctioning_body.titles
p453
I163
sVbusiness.shopping_center_owner.shopping_centers_owned
p454
I689
sVaward.award_presenting_organization.awards_presented
p455
I458
sS'?heg'
p456
I459
sVinternet.blog.focus
p457
I460
sVchemistry.chemical_compound.formula
p458
I461
sVmusic.artist.active_start
p459
I462
sVengineering.piston_engine.piston_configuration
p460
I463
sVautomotive.company.make_s
p461
I464
sVastronomy.astronomical_discovery.discoverer
p462
I465
sVcomic_books.comic_book_character.first_appearance
p463
I466
sVfood.beer.beer_style
p464
I467
sVtheater.play.lyricist
p465
I468
sVpeople.person.parents
p466
I469
sVlaw.invention.inventor
p467
I470
sVbaseball.baseball_player.position_s
p468
I471
sVtransportation.bridge.bridge_type
p469
I472
sS'?gib'
p470
I473
sVchemistry.chemical_element.discoverer
p471
I474
sVgeology.rock_type.formations
p472
I475
sS'?cgd'
p473
I135
sS'?gbf'
p474
I477
sVtv.tv_program.languages
p475
I478
sVbusiness.shopping_center.store
p476
I479
sVcomic_books.comic_book_issue.issue_number
p477
I480
sVmilitary.military_unit_place_of_origin.military_units
p478
I481
sS'?fdi'
p479
I482
sVamerican_football.football_coach.current_team_head_coached
p480
I483
sVeducation.fraternity_sorority.colleges_and_universities
p481
I484
sVmetropolitan_transit.transit_line.stops
p482
I485
sVastronomy.comet.meteor_shower_spawned
p483
I486
sVcricket.cricket_coach.current_team
p484
I444
sS'?fdd'
p485
I488
sVfictional_universe.fictional_character.place_of_birth
p486
I489
sVtransportation.bridge.total_length
p487
I490
sVlaw.constitutional_amendment.ratification_completed_on
p488
I694
sVcommon.topic.alias
p489
I492
sVreligion.founding_figure.religion_founded
p490
I111
sS'?bah'
p491
I695
sVboats.ship.place_built
p492
I495
sVboats.ship_class.max_speed_knots
p493
I321
sVroyalty.monarch.royal_line
p494
I497
sVcomputer.computer.introduced
p495
I498
sVbicycles.bicycle_manufacturer.bicycle_models
p496
I499
sS'?eib'
p497
I213
sVbiology.organism.height_meters
p498
I501
sS'?agi'
p499
I502
sVamerican_football.football_team.current_head_coach
p500
I527
sS'?bia'
p501
I503
sS'?bic'
p502
I229
sS'?bid'
p503
I505
sVreligion.religion.sacred_sites
p504
I41
sS'?bif'
p505
I507
sS'?agb'
p506
I508
sVcomputer.software.latest_release_date
p507
I162
sS'?aic'
p508
I510
sVmusic.artist.origin
p509
I511
sVlanguage.language_writing_system.languages
p510
I512
sVcvg.computer_videogame.release_date
p511
I571
sVspaceflight.space_mission.astronauts
p512
I514
sVradio.radio_program.first_broadcast
p513
I515
sS'?bfe'
p514
I516
sS'?bfd'
p515
I517
sVengineering.piston_configuration.engines
p516
I518
sS'?bff'
p517
I272
sS'?bfa'
p518
I520
sVarchitecture.lighthouse.year_first_lit
p519
I521
sVfashion.fiber.textiles_made_from_this_fiber
p520
I522
sS'?bci'
p521
I523
sS'?bfi'
p522
I525
sVinfluence.influence_node.influenced
p523
I526
sS'?fde'
p524
I487
sVfood.cheese.texture
p525
I528
sVautomotive.trim_level.transmission
p526
I529
sS'?dff'
p527
I530
sS'?dfe'
p528
I531
sVlaw.court.legal_cases
p529
I532
sS'?dei'
p530
I702
sS'?ahb'
p531
I534
sVmilitary.armed_force.units
p532
I535
sS'?fce'
p533
I561
sVengineering.engine_category.engines
p534
I536
sVbroadcast.content.producer
p535
I537
sVinfluence.influence_node.influenced_by
p536
I538
sVmedicine.medical_treatment.side_effects
p537
I247
sVfreebase.list.entries
p538
I540
sVboats.ship_builder.ships_built
p539
I541
sVfood.tea.tea_type
p540
I542
sVgeography.mountain.mountain_range
p541
I543
sVconferences.conference_series.sponsoring_organization
p542
I544
sS'?deb'
p543
I706
sVfictional_universe.fictional_character.powers_or_abilities
p544
I546
sVlibrary.public_library_system.branches
p545
I445
sS'?ebh'
p546
I547
sS'?ebi'
p547
I548
sVlaw.legal_case.subject
p548
I549
sS'?ceb'
p549
I551
sVbook.magazine_issue.cover_artist
p550
I363
sS'?ced'
p551
I553
sS'?ceg'
p552
I414
sS'?ebe'
p553
I555
sS'?ged'
p554
I556
sS'?geg'
p555
I557
sS'?gef'
p556
I558
sVboats.ship_class.ships_in_class
p557
I559
sVmedicine.disease.causes
p558
I582
sS'?bcd'
p559
I560
sVgeology.rock_type.sub_types
p560
I373
sS'?hag'
p561
I562
sVmedicine.cancer_center.comprehensive
p562
I563
sVfinance.currency.currency_code
p563
I564
sS'?haa'
p564
I565
sVbicycles.bicycle_model.speeds
p565
I566
sVgovernment.election.winner
p566
I567
sVfreebase.domain_category.domains
p567
I581
sVboxing.boxing_match.weight_class
p568
I569
sS'?fhe'
p569
I570
sS'?fhc'
p570
I513
sVfictional_universe.fictional_setting.fictional_characters_born_here
p571
I572
sVphysics.subatomic_particle_generation.particles
p572
I573
sVautomotive.company.manufacturing_plants
p573
I574
sVgames.game_publisher.games_published
p574
I575
sVreligion.religion.practices
p575
I576
sVamusement_parks.ride.designer
p576
I577
sVtv.tv_program.air_date_of_final_episode
p577
I578
sVlanguage.language_family.geographic_distribution
p578
I579
sVfictional_universe.work_of_fiction.setting
p579
I580
sVcomic_books.comic_book_issue.characters_on_cover
p580
I568
sS'?cad'
p581
I449
sVfashion.textile.fiber
p582
I583
sS'?dda'
p583
I584
sVmartial_arts.martial_art.origin
p584
I585
sVaviation.aircraft_model.wingspan
p585
I586
sS'?caa'
p586
I450
sVmedia_common.adapted_work.adaptations
p587
I588
sVdigicams.camera_storage_type.compatible_cameras
p588
I589
sS'?acc'
p589
I590
sS'?acb'
p590
I591
sS'?dhi'
p591
I592
sS'?bei'
p592
I217
sS'?acg'
p593
I594
sS'?acf'
p594
I595
sS'?aci'
p595
I596
sS'?dhd'
p596
I597
sVboxing.boxing_match.round_match_ended
p597
I269
sS'?dhf'
p598
I599
sVengineering.piston_engine.capacity
p599
I600
sS'?beb'
p600
I601
sS'?bec'
p601
I602
sVfilm.film.genre
p602
I603
sVmedicine.vaccine.developed_by
p603
I604
sVcvg.computer_videogame.expansions
p604
I605
sVautomotive.engine.horsepower
p605
I606
sVmetropolitan_transit.transit_system.transit_lines
p606
I607
sVreligion.religion.holidays
p607
I608
sVlanguage.language_family.languages
p608
I609
sVtransportation.road.major_cities
p609
I610
sVcvg.computer_videogame.designers
p610
I611
sVinternet.blogger.blog
p611
I612
sVsoccer.football_player.position_s
p612
I9
sVpeople.person.religion
p613
I614
sVinterests.hobbyist.hobbies
p614
I615
sVmeteorology.tropical_cyclone_season.total_storms
p615
I616
sVbase.academyawards.host_of_oscar_show.oscar_show_hosted
p616
I617
sVradio.radio_subject.programs_with_this_subject
p617
I43
sVphysics.particle.spin
p618
I619
sVbook.written_work.part_of_series
p619
I620
sS'?cba'
p620
I621
sS'?cbb'
p621
I622
sVengineering.engine.designer
p622
I623
sS'?bbh'
p623
I624
sVcvg.cvg_developer.games_developed
p624
I625
sVinternet.blog.language
p625
I456
sVbiology.animal_breed.place_of_origin
p626
I626
sVspaceflight.satellite.dry_mass_kg
p627
I587
sS'?dab'
p628
I628
sVfilm.film.produced_by
p629
I83
sS'?daa'
p630
I630
sS'?daf'
p631
I631
sS'?bbg'
p632
I632
sS'?bbf'
p633
I633
sS'?hha'
p634
I634
sVcomputer.software.languages_used
p635
I635
sVlanguage.human_language.writing_system
p636
I636
sS'?hhg'
p637
I637
sVmedicine.disease.parent_disease
p638
I638
sVskiing.ski_area.closest_city
p639
I639
sS'?aii'
p640
I550
sVbroadcast.distributor.distributes
p641
I641
sVbiology.amino_acid.rna_codons
p642
I642
sVprotected_sites.governing_body_of_protected_sites.protected_sites_governed
p643
I643
sVfilm.film.directed_by
p644
I89
sVlocation.location.area
p645
I645
sVcomic_books.comic_book_series.created_by
p646
I646
sVboats.ship.ship_class
p647
I647
sVvisual_art.artwork.date_completed
p648
I509
sVmedicine.disease.treatments
p649
I649
sVlaw.court.jurisdiction
p650
I650
sVprojects.project.project_focus
p651
I651
sS'?gfd'
p652
I652
sS'?ace'
p653
I653
sS'?gff'
p654
I249
sVaviation.aircraft_model.designed_by
p655
I655
sS'?gfb'
p656
I656
sS'?dhh'
p657
I593
sS'?gai'
p658
I658
sS'?gah'
p659
I659
sVbiology.organism_classification.scientific_name
p660
I660
sS'?gaa'
p661
I271
sVzoos.zoo.num_animals
p662
I662
sS'?gac'
p663
I663
sS'?gab'
p664
I664
sVradio.radio_program.episodes
p665
I665
sS'?gag'
p666
I286
sS'?gaf'
p667
I667
sVfictional_universe.fictional_character.character_created_by
p668
I668
sVfictional_universe.fictional_object.created_by
p669
I669
sVtransportation.road.highway_system
p670
I670
sS'?dhg'
p671
I598
sVamusement_parks.ride.inversions
p672
I290
sVaviation.airport.number_of_runways
p673
I673
sS'?bea'
p674
I674
sVengineering.battery_cell_type.rechargeable
p675
I675
sVamusement_parks.ride.height_restriction
p676
I676
sVfilm.film.rating
p677
I677
sS'?dhb'
p678
I678
sVaviation.airport.hub_for
p679
I679
sVmedicine.disease.symptoms
p680
I681
sS'?aea'
p681
I672
sVcomic_books.comic_book_character.created_by
p682
I682
sVlanguage.human_language.dialects
p683
I683
sVradio.radio_program.subjects
p684
I684
sS'?ade'
p685
I685
sVaviation.aircraft_model.manufacturer
p686
I686
sVconferences.conference_subject.series_of_conferences_about_this
p687
I687
sVbook.book_subject.works
p688
I688
sVlaw.invention.date_of_invention
p689
I457
sVfood.beer_country_region.beers_from_here
p690
I690
sVmusic.recording.producer
p691
I680
sS'?bac'
p692
I692
sS'?baf'
p693
I693
sS'?bag'
p694
I491
sVfood.cheese_milk_source.cheeses
p695
I494
sVcomputer.programming_language.developers
p696
I696
sVrail.locomotive_class.introduced
p697
I697
sVevent.disaster.fatalities
p698
I698
sVcelebrities.supercouple.partners
p699
I519
sVice_hockey.hockey_team.captain
p700
I524
sS'?deh'
p701
I701
sVtv.tv_program.spin_offs
p702
I533
sS'?def'
p703
I703
sS'?ded'
p704
I704
sS'?dee'
p705
I705
sVorganization.organization.founders
p706
I545
sVfictional_universe.fictional_object.destroyed_by
p707
I707
sVboxing.boxing_title.matches_with_this_title_at_stake
p708
I708
sS'?dea'
p709
I709
sVmusic.group_member.instruments_played
p710
I710
sVreligion.monastery.religious_order
p711
I734
sVlocation.location.time_zones
p712
I712
sVtv.tv_series_episode.next_episode
p713
I713
sVbusiness.customer.supplier
p714
I714
sVdigicams.digital_camera.orientation_sensor
p715
I715
sVlanguage.language_writing_system.used_from
p716
I716
sVarchitecture.museum.established
p717
I717
sVinterests.collection_category.name_of_collection_activity
p718
I648
sVpeople.person.children
p719
I719
sVchemistry.chemical_element.symbol
p720
I720
sS'?cfa'
p721
I721
sVastronomy.orbital_relationship.orbital_period
p722
I722
sS'?cfc'
p723
I723
sS'?cfd'
p724
I724
sS'?cff'
p725
I725
sS'?cfg'
p726
I726
sVfood.beer.brewery_brand
p727
I727
sVcomic_strips.comic_strip.genre
p728
I728
sVorganization.organization.date_founded
p729
I666
sVfinance.currency.countries_used
p730
I729
sS'?gcd'
p731
I730
sS'?efc'
p732
I731
sS'?efa'
p733
I732
sS'?bie'
p734
I506
sS'?hdf'
p735
I711
sS'?hda'
p736
I735
sS'?hdh'
p737
I736
sVdining.cuisine.restaurant
p738
I737
s.